
application:     file format elf32-i386

SYMBOL TABLE:
08050f0c l     O .ctors	00000000              __CTOR_LIST__
08050f14 l     O .dtors	00000000              __DTOR_LIST__
08050f1c l     O .jcr	00000000              __JCR_LIST__
08049110 l     F .text	00000000              __do_global_dtors_aux
08051368 l     O .bss	00000001              completed.6159
0805136c l     O .bss	00000004              dtor_idx.6161
08049170 l     F .text	00000000              frame_dummy
08050f10 l     O .ctors	00000000              __CTOR_END__
0804f270 l     O .eh_frame	00000000              __FRAME_END__
08050f1c l     O .jcr	00000000              __JCR_END__
0804d940 l     F .text	00000000              __do_global_ctors_aux
0804dbef l     O .rodata	00000010              __FUNCTION__.5273
0804dbff l     O .rodata	00000017              __FUNCTION__.5277
0804dc16 l     O .rodata	00000005              __FUNCTION__.5306
0805116c l     O .data	00000004              DBG_COND_VAR
08051378 l     O .bss	00000004              DBG_IDENT_VAR
08051170 l     O .data	00000004              DBG_COND_VAR
0805137c l     O .bss	00000004              DBG_IDENT_VAR
0804a090 l     F .text	000003f0              ctrl_task
0804ddc1 l     O .rodata	0000000a              __FUNCTION__.4817
08051424 l     O .bss	00000004              ctrl_fifo
0804ddb6 l     O .rodata	0000000b              __FUNCTION__.4825
080513a0 l     O .bss	00000080              ctrl_path
08051420 l     O .bss	00000004              ctrl_thread
0804ddcb l     O .rodata	0000000a              __FUNCTION__.4830
08051174 l     O .data	00000004              DBG_COND_VAR
08051380 l     O .bss	00000004              DBG_IDENT_VAR
0804df38 l     O .rodata	00000017              __FUNCTION__.5856
0804df4f l     O .rodata	0000000c              __FUNCTION__.5926
0805142c l     O .bss	00000004              server_thread
0804df5b l     O .rodata	0000000d              __FUNCTION__.5951
08051178 l     O .data	00000004              DBG_COND_VAR
08051428 l     O .bss	00000004              DBG_IDENT_VAR
0805117c l     O .data	00000004              DBG_COND_VAR
08051430 l     O .bss	00000004              DBG_IDENT_VAR
0804baec l     F .text	000004ea              task2
0804e00d l     O .rodata	00000006              __FUNCTION__.4851
08051490 l     O .bss	00000018              task2_mtx
080514c0 l     O .bss	00000030              task2_cond
080514a8 l     O .bss	00000004              task2_action
080514f0 l     O .bss	00000004              task2_delay
0804bfd6 l     F .text	000002e4              task1
0804e013 l     O .rodata	00000006              __FUNCTION__.4831
080514fc l     O .bss	00000004              task1_exit
08051448 l     O .bss	00000018              task1_mtx
08051460 l     O .bss	00000030              task1_cond
08051444 l     O .bss	00000004              task1_running
0804e001 l     O .rodata	0000000c              __FUNCTION__.4869
080514f4 l     O .bss	00000004              task1_thread
080514f8 l     O .bss	00000004              task2_thread
0804e019 l     O .rodata	0000000b              __FUNCTION__.4875
08051180 l     O .data	00000004              DBG_COND_VAR
08051440 l     O .bss	00000004              DBG_IDENT_VAR
0804d0ba l     F .text	000001d1              write_section
0804e1d4 l     O .rodata	00000005              STUB_STRING
08050f0c l       .ctors	00000000              __init_array_end
08050f20 l     O .dynamic	00000000              _DYNAMIC
08050f0c l       .ctors	00000000              __init_array_start
08050ff4 l     O .got.plt	00000000              _GLOBAL_OFFSET_TABLE_
0804d930 g     F .text	00000002              __libc_csu_fini
00000000       F *UND*	00000000              pthread_mutex_unlock@@GLIBC_2.0
0804cd5d g     F .text	0000002b              void_set
0804ade4 g     F .text	00000039              server_on_connected
08049db0 g     F .text	00000006              cmd_null
0804c678 g     F .text	00000027              oct64_set
0804d28b g     F .text	0000005b              var_lookup
0804ae3d g     F .text	00000235              server_on_cmd_received
00000000       F *UND*	00000000              strcmp@@GLIBC_2.0
08051160 g     O .data	00000004              app_conf_path
0804d932 g     F .text	00000000              .hidden __i686.get_pc_thunk.bx
00000000       F *UND*	00000000              read@@GLIBC_2.0
0804cbf5 g     F .text	0000001e              ratio_get
08051140 g     O .data	00000020              conf_log
08051100  w      .data	00000000              data_start
0804c3f7 g     F .text	000000d7              tasks_start
0804cde9 g     F .text	0000014d              bool_set
0804c340 g     F .text	0000003a              task2_run
08051164 g     O .data	00000004              app_fifo_name
0804ac49 g     F .text	00000064              server_send_t1stop
00000000       F *UND*	00000000              fflush@@GLIBC_2.0
0804a480 g     F .text	00000206              ctrl_start
08051340 g     O .bss	00000004              stderr@@GLIBC_2.0
0804cc97 g     F .text	00000042              hex16_set
00000000       F *UND*	00000000              sigprocmask@@GLIBC_2.0
0804d32e g     F .text	00000060              var_get
08051120 g     O .data	00000020              conf_root
0804c62a g     F .text	00000027              rgbi_set
00000000       F *UND*	00000000              free@@GLIBC_2.0
0804cf36 g     F .text	000000f4              string_set
0804d893 g     F .text	00000027              ipport_set
0804cb5f g     F .text	0000001e              oct16_get
0804cb41 g     F .text	0000001e              oct8_get
00000000       F *UND*	00000000              fgets@@GLIBC_2.0
08051340 g       *ABS*	00000000              _edata
00000000       F *UND*	00000000              fclose@@GLIBC_2.1
00000000       F *UND*	00000000              time@@GLIBC_2.0
00000000       F *UND*	00000000              pthread_cond_wait@@GLIBC_2.3.2
0804c789 g     F .text	00000027              bin8_set
00000000       F *UND*	00000000              sleep@@GLIBC_2.0
08051374 g     O .bss	00000004              app_log_enabled
00000000       F *UND*	00000000              select@@GLIBC_2.0
00000000       F *UND*	00000000              chdir@@GLIBC_2.0
080491a0 g     F .text	00000027              app_extract_fname
0804d96c g     F .fini	00000000              _fini
0804c37a g     F .text	0000003a              task2_stop
0804d02a g     F .text	00000048              uint_set
00000000       F *UND*	00000000              __stack_chk_fail@@GLIBC_2.4
08049db6 g     F .text	0000006f              cmd_exec
0804c895 g     F .text	0000004d              float_get
0804b93e g     F .text	00000033              server_stop
080491c7 g     F .text	0000002f              app_cleanup
0804d860 g     F .text	00000006              ipaddr_get
0804ae1d g     F .text	00000020              server_on_disconnected
0804c5d0 g     F .text	00000006              bin64_get
0804cb05 g     F .text	0000001e              bin16_get
00000000       F *UND*	00000000              __fdelt_chk@@GLIBC_2.15
0804cd1b g     F .text	00000042              float_set
00000000       F *UND*	00000000              pthread_mutex_lock@@GLIBC_2.0
0804dcc0 g     O .rodata	00000070              cmd_tab
00000000       F *UND*	00000000              unlink@@GLIBC_2.0
0804cc55 g     F .text	00000042              hex32_set
08051370 g     O .bss	00000004              app_nodaemon
0804ab0c g     F .text	00000021              server_valid
08049e25 g     F .text	00000268              cmd_line_parse
0804c714 g     F .text	00000027              bin64_set
00000000       F *UND*	00000000              perror@@GLIBC_2.0
00000000       F *UND*	00000000              accept@@GLIBC_2.0
0804b980 g     F .text	00000067              readline
00000000       F *UND*	00000000              fwrite@@GLIBC_2.0
08049d83 g     F .text	0000002d              cmd_quit
08049226 g     F .text	00000290              app_system_init
0804cb7d g     F .text	0000001e              oct64_get
0804d2e6 g     F .text	00000048              var_set
08050f18 g     O .dtors	00000000              .hidden __DTOR_END__
0804b870 g     F .text	000000ce              server_start
00000000       F *UND*	00000000              getpid@@GLIBC_2.0
0804c603 g     F .text	00000027              cymk_set
0804c2f8 g     F .text	00000048              task1_stop
0804c9a9 g     F .text	0000004e              hex8_get
0804d072 g     F .text	00000048              int_set
00000000       F *UND*	00000000              pthread_cond_signal@@GLIBC_2.3.2
0804cd88 g     F .text	00000061              char_set
08051500 g     O .bss	00000004              app_pid
00000000       F *UND*	00000000              malloc@@GLIBC_2.0
08051100 g       .data	00000000              __data_start
0804c3b4 g     F .text	00000043              task2_timer
0804c848 g     F .text	0000004d              uint_get
00000000       F *UND*	00000000              puts@@GLIBC_2.0
0804c762 g     F .text	00000027              bin16_set
00000000  w      *UND*	00000000              __gmon_start__
0804acad g     F .text	00000064              server_send_t2run
00000000       F *UND*	00000000              exit@@GLIBC_2.0
00000000       F *UND*	00000000              kill@@GLIBC_2.0
08051104 g     O .data	00000000              .hidden __dso_handle
00000000       F *UND*	00000000              open@@GLIBC_2.0
0804d9a4 g     O .rodata	00000004              _IO_stdin_used
0804c92d g     F .text	0000002e              bool_get
0804d88d g     F .text	00000006              ipport_get
00000000       F *UND*	00000000              strftime@@GLIBC_2.0
00000000       F *UND*	00000000              localtime@@GLIBC_2.0
0804a886 g     F .text	00000286              server_parse
0804c4ce g     F .text	000000f5              tasks_stop
00000000       F *UND*	00000000              strtoul@@GLIBC_2.0
0804cbb9 g     F .text	0000001e              rgbi_get
00000000       F *UND*	00000000              strchr@@GLIBC_2.0
0804c651 g     F .text	00000027              rgb_set
00000000       F *UND*	00000000              __libc_start_main@@GLIBC_2.0
0804c8e2 g     F .text	0000004b              string_get
00000000       F *UND*	00000000              write@@GLIBC_2.0
00000000       F *UND*	00000000              getopt@@GLIBC_2.0
0804ab2d g     F .text	0000004d              server_send_plain_text
0804cb9b g     F .text	0000001e              rgb_get
0804d8c0 g     F .text	00000061              __libc_csu_init
08051520 g     O .bss	00000024              server
080511a0 g     O .data	000001a0              conf_type_tab
00000000       F *UND*	00000000              sigaddset@@GLIBC_2.0
0804ad11 g     F .text	00000064              server_send_t2stop
080491f6 g     F .text	00000030              app_termination_handler
00000000       F *UND*	00000000              bind@@GLIBC_2.0
0804c5d6 g     F .text	00000006              oct32_get
0804a7aa g     F .text	000000dc              server_send_package
00000000       F *UND*	00000000              __isoc99_sscanf@@GLIBC_2.7
00000000       F *UND*	00000000              fopen@@GLIBC_2.1
00000000       F *UND*	00000000              putchar@@GLIBC_2.0
08051544 g       *ABS*	00000000              _end
00000000       F *UND*	00000000              pthread_cancel@@GLIBC_2.0
00000000       F *UND*	00000000              strncpy@@GLIBC_2.0
080490e0 g     F .text	00000000              _start
0804cae7 g     F .text	0000001e              bin8_get
0804d9a0 g     O .rodata	00000004              _fp_hw
0804d7f4 g     F .text	00000052              conf_save
00000000       F *UND*	00000000              strncasecmp@@GLIBC_2.0
08051360 g     O .bss	00000004              stdout@@GLIBC_2.0
00000000       F *UND*	00000000              __strcpy_chk@@GLIBC_2.3.4
08051340 g       *ABS*	00000000              __bss_start
0804a783 g     F .text	00000027              server_extract_fname
00000000       F *UND*	00000000              pthread_exit@@GLIBC_2.0
0804abe5 g     F .text	00000064              server_send_t1run
0804cc13 g     F .text	00000042              hex64_set
0804958d g     F .text	00000693              main
0804c7b0 g     F .text	0000004b              void_get
00000000       F *UND*	00000000              __printf_chk@@GLIBC_2.3.4
0804c95b g     F .text	0000004e              char_get
0804ad75 g     F .text	0000006f              server_send_t2timer
08051168 g     O .data	00000004              app_pid_path
0804b072 g     F .text	000007fe              server_task
00000000       F *UND*	00000000              sigemptyset@@GLIBC_2.0
0804ab7a g     F .text	0000006b              server_send_ver
0804d846 g     F .text	0000001a              conf_dump
00000000       F *UND*	00000000              listen@@GLIBC_2.0
00000000       F *UND*	00000000              strrchr@@GLIBC_2.0
0804ca44 g     F .text	0000004d              hex32_get
0804d866 g     F .text	00000027              ipaddr_set
0804c7fb g     F .text	0000004d              int_get
00000000       F *UND*	00000000              fputc@@GLIBC_2.0
00000000  w      *UND*	00000000              _Jv_RegisterClasses
0804a760 g     F .text	00000023              server_disconnect
08051504 g     O .bss	00000004              app_name
00000000       F *UND*	00000000              pthread_join@@GLIBC_2.0
0804c73b g     F .text	00000027              bin32_set
0804c5dc g     F .text	00000027              ratio_set
0804d38e g     F .text	00000466              conf_load
0804cb23 g     F .text	0000001e              bin32_get
00000000       F *UND*	00000000              getppid@@GLIBC_2.0
00000000       F *UND*	00000000              inet_ntop@@GLIBC_2.0
00000000       F *UND*	00000000              socket@@GLIBC_2.0
08049d42 g     F .text	00000041              cmd_ver
0804c9f7 g     F .text	0000004d              hex16_get
00000000       F *UND*	00000000              __fprintf_chk@@GLIBC_2.3.4
00000000       F *UND*	00000000              pthread_create@@GLIBC_2.1
00000000       F *UND*	00000000              sigaction@@GLIBC_2.0
0804b9e7 g     F .text	00000103              shell
0804cbd7 g     F .text	0000001e              cymk_get
00000000       F *UND*	00000000              umask@@GLIBC_2.0
08051364 g     O .bss	00000004              optarg@@GLIBC_2.0
0804ccd9 g     F .text	00000042              hex8_set
08049c20 g     F .text	00000122              cmd_help
00000000       F *UND*	00000000              strtol@@GLIBC_2.0
00000000       F *UND*	00000000              fputs@@GLIBC_2.0
08048c94 g     F .init	00000000              _init
08049571 g     F .text	0000001c              app_system_save_config
00000000       F *UND*	00000000              close@@GLIBC_2.0
00000000       F *UND*	00000000              mkfifo@@GLIBC_2.0
080494b6 g     F .text	000000bb              app_system_load_config
0804c2ba g     F .text	0000003e              task1_run
0804c6ed g     F .text	00000027              oct8_set
0804c6c6 g     F .text	00000027              oct16_set
0804c69f g     F .text	00000027              oct32_set
00000000       F *UND*	00000000              __ctype_b_loc@@GLIBC_2.3
0804ca91 g     F .text	00000056              hex64_get
0804a686 g     F .text	000000cb              ctrl_stop
00000000       F *UND*	00000000              __sprintf_chk@@GLIBC_2.3.4



Disassembly of section .interp:

08048154 <.interp>:
 8048154:	2f                   	das    
 8048155:	6c                   	insb   (%dx),%es:(%edi)
 8048156:	69 62 2f 6c 64 2d 6c 	imul   $0x6c2d646c,0x2f(%edx),%esp
 804815d:	69 6e 75 78 2e 73 6f 	imul   $0x6f732e78,0x75(%esi),%ebp
 8048164:	2e 32 00             	xor    %cs:(%eax),%al

Disassembly of section .note.ABI-tag:

08048168 <.note.ABI-tag>:
 8048168:	04 00                	add    $0x0,%al
 804816a:	00 00                	add    %al,(%eax)
 804816c:	10 00                	adc    %al,(%eax)
 804816e:	00 00                	add    %al,(%eax)
 8048170:	01 00                	add    %eax,(%eax)
 8048172:	00 00                	add    %al,(%eax)
 8048174:	47                   	inc    %edi
 8048175:	4e                   	dec    %esi
 8048176:	55                   	push   %ebp
 8048177:	00 00                	add    %al,(%eax)
 8048179:	00 00                	add    %al,(%eax)
 804817b:	00 02                	add    %al,(%edx)
 804817d:	00 00                	add    %al,(%eax)
 804817f:	00 06                	add    %al,(%esi)
 8048181:	00 00                	add    %al,(%eax)
 8048183:	00 18                	add    %bl,(%eax)
 8048185:	00 00                	add    %al,(%eax)
 8048187:	00                   	.byte 0x0

Disassembly of section .note.gnu.build-id:

08048188 <.note.gnu.build-id>:
 8048188:	04 00                	add    $0x0,%al
 804818a:	00 00                	add    %al,(%eax)
 804818c:	14 00                	adc    $0x0,%al
 804818e:	00 00                	add    %al,(%eax)
 8048190:	03 00                	add    (%eax),%eax
 8048192:	00 00                	add    %al,(%eax)
 8048194:	47                   	inc    %edi
 8048195:	4e                   	dec    %esi
 8048196:	55                   	push   %ebp
 8048197:	00 54 10 1d          	add    %dl,0x1d(%eax,%edx,1)
 804819b:	d8 93 43 e7 95 e3    	fcoms  -0x1c6a18bd(%ebx)
 80481a1:	8f                   	(bad)  
 80481a2:	a3 78 8e d3 7e       	mov    %eax,0x7ed38e78
 80481a7:	80 14 e9 55          	adcb   $0x55,(%ecx,%ebp,8)
 80481ab:	e1                   	.byte 0xe1

Disassembly of section .gnu.hash:

080481ac <.gnu.hash>:
 80481ac:	03 00                	add    (%eax),%eax
 80481ae:	00 00                	add    %al,(%eax)
 80481b0:	42                   	inc    %edx
 80481b1:	00 00                	add    %al,(%eax)
 80481b3:	00 01                	add    %al,(%ecx)
 80481b5:	00 00                	add    %al,(%eax)
 80481b7:	00 05 00 00 00 00    	add    %al,0x0
 80481bd:	23 26                	and    (%esi),%esp
 80481bf:	22 42 00             	and    0x0(%edx),%al
 80481c2:	00 00                	add    %al,(%eax)
 80481c4:	43                   	inc    %ebx
 80481c5:	00 00                	add    %al,(%eax)
 80481c7:	00 45 00             	add    %al,0x0(%ebp)
 80481ca:	00 00                	add    %al,(%eax)
 80481cc:	29 1d 8c 1c 38 f2    	sub    %ebx,0xf2381c8c
 80481d2:	8b 1c ad 4b e3 c0 b3 	mov    -0x4c3f1cb5(,%ebp,4),%ebx
 80481d9:	a2                   	.byte 0xa2
 80481da:	f7 12                	notl   (%edx)

Disassembly of section .dynsym:

080481dc <.dynsym>:
 80481dc:	00 00                	add    %al,(%eax)
 80481de:	00 00                	add    %al,(%eax)
 80481e0:	00 00                	add    %al,(%eax)
 80481e2:	00 00                	add    %al,(%eax)
 80481e4:	00 00                	add    %al,(%eax)
 80481e6:	00 00                	add    %al,(%eax)
 80481e8:	00 00                	add    %al,(%eax)
 80481ea:	00 00                	add    %al,(%eax)
 80481ec:	62 00                	bound  %eax,(%eax)
 80481ee:	00 00                	add    %al,(%eax)
 80481f0:	00 00                	add    %al,(%eax)
 80481f2:	00 00                	add    %al,(%eax)
 80481f4:	00 00                	add    %al,(%eax)
 80481f6:	00 00                	add    %al,(%eax)
 80481f8:	12 00                	adc    (%eax),%al
 80481fa:	00 00                	add    %al,(%eax)
 80481fc:	78 02                	js     8048200 <_init-0xa94>
 80481fe:	00 00                	add    %al,(%eax)
 8048200:	00 00                	add    %al,(%eax)
 8048202:	00 00                	add    %al,(%eax)
 8048204:	00 00                	add    %al,(%eax)
 8048206:	00 00                	add    %al,(%eax)
 8048208:	12 00                	adc    (%eax),%al
 804820a:	00 00                	add    %al,(%eax)
 804820c:	8b 00                	mov    (%eax),%eax
 804820e:	00 00                	add    %al,(%eax)
 8048210:	00 00                	add    %al,(%eax)
 8048212:	00 00                	add    %al,(%eax)
 8048214:	00 00                	add    %al,(%eax)
 8048216:	00 00                	add    %al,(%eax)
 8048218:	12 00                	adc    (%eax),%al
 804821a:	00 00                	add    %al,(%eax)
 804821c:	f0 00 00             	lock add %al,(%eax)
 804821f:	00 00                	add    %al,(%eax)
 8048221:	00 00                	add    %al,(%eax)
 8048223:	00 00                	add    %al,(%eax)
 8048225:	00 00                	add    %al,(%eax)
 8048227:	00 12                	add    %dl,(%edx)
 8048229:	00 00                	add    %al,(%eax)
 804822b:	00 47 01             	add    %al,0x1(%edi)
 804822e:	00 00                	add    %al,(%eax)
 8048230:	00 00                	add    %al,(%eax)
 8048232:	00 00                	add    %al,(%eax)
 8048234:	00 00                	add    %al,(%eax)
 8048236:	00 00                	add    %al,(%eax)
 8048238:	12 00                	adc    (%eax),%al
 804823a:	00 00                	add    %al,(%eax)
 804823c:	91                   	xchg   %eax,%ecx
 804823d:	02 00                	add    (%eax),%al
 804823f:	00 00                	add    %al,(%eax)
 8048241:	00 00                	add    %al,(%eax)
 8048243:	00 00                	add    %al,(%eax)
 8048245:	00 00                	add    %al,(%eax)
 8048247:	00 12                	add    %dl,(%edx)
 8048249:	00 00                	add    %al,(%eax)
 804824b:	00 9d 01 00 00 00    	add    %bl,0x1(%ebp)
 8048251:	00 00                	add    %al,(%eax)
 8048253:	00 00                	add    %al,(%eax)
 8048255:	00 00                	add    %al,(%eax)
 8048257:	00 12                	add    %dl,(%edx)
 8048259:	00 00                	add    %al,(%eax)
 804825b:	00 f4                	add    %dh,%ah
 804825d:	01 00                	add    %eax,(%eax)
 804825f:	00 00                	add    %al,(%eax)
 8048261:	00 00                	add    %al,(%eax)
 8048263:	00 00                	add    %al,(%eax)
 8048265:	00 00                	add    %al,(%eax)
 8048267:	00 12                	add    %dl,(%edx)
 8048269:	00 00                	add    %al,(%eax)
 804826b:	00 91 01 00 00 00    	add    %dl,0x1(%ecx)
 8048271:	00 00                	add    %al,(%eax)
 8048273:	00 00                	add    %al,(%eax)
 8048275:	00 00                	add    %al,(%eax)
 8048277:	00 12                	add    %dl,(%edx)
 8048279:	00 00                	add    %al,(%eax)
 804827b:	00 50 00             	add    %dl,0x0(%eax)
 804827e:	00 00                	add    %al,(%eax)
 8048280:	00 00                	add    %al,(%eax)
 8048282:	00 00                	add    %al,(%eax)
 8048284:	00 00                	add    %al,(%eax)
 8048286:	00 00                	add    %al,(%eax)
 8048288:	12 00                	adc    (%eax),%al
 804828a:	00 00                	add    %al,(%eax)
 804828c:	50                   	push   %eax
 804828d:	02 00                	add    (%eax),%al
 804828f:	00 00                	add    %al,(%eax)
 8048291:	00 00                	add    %al,(%eax)
 8048293:	00 00                	add    %al,(%eax)
 8048295:	00 00                	add    %al,(%eax)
 8048297:	00 12                	add    %dl,(%edx)
 8048299:	00 00                	add    %al,(%eax)
 804829b:	00 7a 01             	add    %bh,0x1(%edx)
 804829e:	00 00                	add    %al,(%eax)
 80482a0:	00 00                	add    %al,(%eax)
 80482a2:	00 00                	add    %al,(%eax)
 80482a4:	00 00                	add    %al,(%eax)
 80482a6:	00 00                	add    %al,(%eax)
 80482a8:	12 00                	adc    (%eax),%al
 80482aa:	00 00                	add    %al,(%eax)
 80482ac:	bc 01 00 00 00       	mov    $0x1,%esp
 80482b1:	00 00                	add    %al,(%eax)
 80482b3:	00 00                	add    %al,(%eax)
 80482b5:	00 00                	add    %al,(%eax)
 80482b7:	00 12                	add    %dl,(%edx)
 80482b9:	00 00                	add    %al,(%eax)
 80482bb:	00 53 01             	add    %dl,0x1(%ebx)
 80482be:	00 00                	add    %al,(%eax)
 80482c0:	00 00                	add    %al,(%eax)
 80482c2:	00 00                	add    %al,(%eax)
 80482c4:	00 00                	add    %al,(%eax)
 80482c6:	00 00                	add    %al,(%eax)
 80482c8:	12 00                	adc    (%eax),%al
 80482ca:	00 00                	add    %al,(%eax)
 80482cc:	29 01                	sub    %eax,(%ecx)
 80482ce:	00 00                	add    %al,(%eax)
 80482d0:	00 00                	add    %al,(%eax)
 80482d2:	00 00                	add    %al,(%eax)
 80482d4:	00 00                	add    %al,(%eax)
 80482d6:	00 00                	add    %al,(%eax)
 80482d8:	12 00                	adc    (%eax),%al
 80482da:	00 00                	add    %al,(%eax)
 80482dc:	90                   	nop
 80482dd:	00 00                	add    %al,(%eax)
 80482df:	00 00                	add    %al,(%eax)
 80482e1:	00 00                	add    %al,(%eax)
 80482e3:	00 00                	add    %al,(%eax)
 80482e5:	00 00                	add    %al,(%eax)
 80482e7:	00 12                	add    %dl,(%edx)
 80482e9:	00 00                	add    %al,(%eax)
 80482eb:	00 64 01 00          	add    %ah,0x0(%ecx,%eax,1)
 80482ef:	00 00                	add    %al,(%eax)
 80482f1:	00 00                	add    %al,(%eax)
 80482f3:	00 00                	add    %al,(%eax)
 80482f5:	00 00                	add    %al,(%eax)
 80482f7:	00 12                	add    %dl,(%edx)
 80482f9:	00 00                	add    %al,(%eax)
 80482fb:	00 12                	add    %dl,(%edx)
 80482fd:	01 00                	add    %eax,(%eax)
 80482ff:	00 00                	add    %al,(%eax)
 8048301:	00 00                	add    %al,(%eax)
 8048303:	00 00                	add    %al,(%eax)
 8048305:	00 00                	add    %al,(%eax)
 8048307:	00 12                	add    %dl,(%edx)
 8048309:	00 00                	add    %al,(%eax)
 804830b:	00 a3 00 00 00 00    	add    %ah,0x0(%ebx)
 8048311:	00 00                	add    %al,(%eax)
 8048313:	00 00                	add    %al,(%eax)
 8048315:	00 00                	add    %al,(%eax)
 8048317:	00 12                	add    %dl,(%edx)
 8048319:	00 00                	add    %al,(%eax)
 804831b:	00 38                	add    %bh,(%eax)
 804831d:	02 00                	add    (%eax),%al
 804831f:	00 00                	add    %al,(%eax)
 8048321:	00 00                	add    %al,(%eax)
 8048323:	00 00                	add    %al,(%eax)
 8048325:	00 00                	add    %al,(%eax)
 8048327:	00 12                	add    %dl,(%edx)
 8048329:	00 00                	add    %al,(%eax)
 804832b:	00 81 01 00 00 00    	add    %al,0x1(%ecx)
 8048331:	00 00                	add    %al,(%eax)
 8048333:	00 00                	add    %al,(%eax)
 8048335:	00 00                	add    %al,(%eax)
 8048337:	00 12                	add    %dl,(%edx)
 8048339:	00 00                	add    %al,(%eax)
 804833b:	00 77 00             	add    %dh,0x0(%edi)
 804833e:	00 00                	add    %al,(%eax)
 8048340:	00 00                	add    %al,(%eax)
 8048342:	00 00                	add    %al,(%eax)
 8048344:	00 00                	add    %al,(%eax)
 8048346:	00 00                	add    %al,(%eax)
 8048348:	12 00                	adc    (%eax),%al
 804834a:	00 00                	add    %al,(%eax)
 804834c:	03 02                	add    (%edx),%eax
 804834e:	00 00                	add    %al,(%eax)
 8048350:	00 00                	add    %al,(%eax)
 8048352:	00 00                	add    %al,(%eax)
 8048354:	00 00                	add    %al,(%eax)
 8048356:	00 00                	add    %al,(%eax)
 8048358:	12 00                	adc    (%eax),%al
 804835a:	00 00                	add    %al,(%eax)
 804835c:	ef                   	out    %eax,(%dx)
 804835d:	01 00                	add    %eax,(%eax)
 804835f:	00 00                	add    %al,(%eax)
 8048361:	00 00                	add    %al,(%eax)
 8048363:	00 00                	add    %al,(%eax)
 8048365:	00 00                	add    %al,(%eax)
 8048367:	00 12                	add    %dl,(%edx)
 8048369:	00 00                	add    %al,(%eax)
 804836b:	00 c1                	add    %al,%cl
 804836d:	00 00                	add    %al,(%eax)
 804836f:	00 00                	add    %al,(%eax)
 8048371:	00 00                	add    %al,(%eax)
 8048373:	00 00                	add    %al,(%eax)
 8048375:	00 00                	add    %al,(%eax)
 8048377:	00 20                	add    %ah,(%eax)
 8048379:	00 00                	add    %al,(%eax)
 804837b:	00 b2 00 00 00 00    	add    %dh,0x0(%edx)
 8048381:	00 00                	add    %al,(%eax)
 8048383:	00 00                	add    %al,(%eax)
 8048385:	00 00                	add    %al,(%eax)
 8048387:	00 12                	add    %dl,(%edx)
 8048389:	00 00                	add    %al,(%eax)
 804838b:	00 88 01 00 00 00    	add    %cl,0x1(%eax)
 8048391:	00 00                	add    %al,(%eax)
 8048393:	00 00                	add    %al,(%eax)
 8048395:	00 00                	add    %al,(%eax)
 8048397:	00 12                	add    %dl,(%edx)
 8048399:	00 00                	add    %al,(%eax)
 804839b:	00 05 01 00 00 00    	add    %al,0x1
 80483a1:	00 00                	add    %al,(%eax)
 80483a3:	00 00                	add    %al,(%eax)
 80483a5:	00 00                	add    %al,(%eax)
 80483a7:	00 12                	add    %dl,(%edx)
 80483a9:	00 00                	add    %al,(%eax)
 80483ab:	00 8d 01 00 00 00    	add    %cl,0x1(%ebp)
 80483b1:	00 00                	add    %al,(%eax)
 80483b3:	00 00                	add    %al,(%eax)
 80483b5:	00 00                	add    %al,(%eax)
 80483b7:	00 12                	add    %dl,(%edx)
 80483b9:	00 00                	add    %al,(%eax)
 80483bb:	00 3f                	add    %bh,(%edi)
 80483bd:	02 00                	add    (%eax),%al
 80483bf:	00 00                	add    %al,(%eax)
 80483c1:	00 00                	add    %al,(%eax)
 80483c3:	00 00                	add    %al,(%eax)
 80483c5:	00 00                	add    %al,(%eax)
 80483c7:	00 12                	add    %dl,(%edx)
 80483c9:	00 00                	add    %al,(%eax)
 80483cb:	00 fb                	add    %bh,%bl
 80483cd:	01 00                	add    %eax,(%eax)
 80483cf:	00 00                	add    %al,(%eax)
 80483d1:	00 00                	add    %al,(%eax)
 80483d3:	00 00                	add    %al,(%eax)
 80483d5:	00 00                	add    %al,(%eax)
 80483d7:	00 12                	add    %dl,(%edx)
 80483d9:	00 00                	add    %al,(%eax)
 80483db:	00 49 02             	add    %cl,0x2(%ecx)
 80483de:	00 00                	add    %al,(%eax)
 80483e0:	00 00                	add    %al,(%eax)
 80483e2:	00 00                	add    %al,(%eax)
 80483e4:	00 00                	add    %al,(%eax)
 80483e6:	00 00                	add    %al,(%eax)
 80483e8:	12 00                	adc    (%eax),%al
 80483ea:	00 00                	add    %al,(%eax)
 80483ec:	7f 02                	jg     80483f0 <_init-0x8a4>
 80483ee:	00 00                	add    %al,(%eax)
 80483f0:	00 00                	add    %al,(%eax)
 80483f2:	00 00                	add    %al,(%eax)
 80483f4:	00 00                	add    %al,(%eax)
 80483f6:	00 00                	add    %al,(%eax)
 80483f8:	12 00                	adc    (%eax),%al
 80483fa:	00 00                	add    %al,(%eax)
 80483fc:	39 02                	cmp    %eax,(%edx)
 80483fe:	00 00                	add    %al,(%eax)
 8048400:	00 00                	add    %al,(%eax)
 8048402:	00 00                	add    %al,(%eax)
 8048404:	00 00                	add    %al,(%eax)
 8048406:	00 00                	add    %al,(%eax)
 8048408:	12 00                	adc    (%eax),%al
 804840a:	00 00                	add    %al,(%eax)
 804840c:	c2 01 00             	ret    $0x1
 804840f:	00 00                	add    %al,(%eax)
 8048411:	00 00                	add    %al,(%eax)
 8048413:	00 00                	add    %al,(%eax)
 8048415:	00 00                	add    %al,(%eax)
 8048417:	00 12                	add    %dl,(%edx)
 8048419:	00 00                	add    %al,(%eax)
 804841b:	00 d7                	add    %dl,%bh
 804841d:	01 00                	add    %eax,(%eax)
 804841f:	00 00                	add    %al,(%eax)
 8048421:	00 00                	add    %al,(%eax)
 8048423:	00 00                	add    %al,(%eax)
 8048425:	00 00                	add    %al,(%eax)
 8048427:	00 12                	add    %dl,(%edx)
 8048429:	00 00                	add    %al,(%eax)
 804842b:	00 b7 01 00 00 00    	add    %dh,0x1(%edi)
 8048431:	00 00                	add    %al,(%eax)
 8048433:	00 00                	add    %al,(%eax)
 8048435:	00 00                	add    %al,(%eax)
 8048437:	00 12                	add    %dl,(%edx)
 8048439:	00 00                	add    %al,(%eax)
 804843b:	00 19                	add    %bl,(%ecx)
 804843d:	01 00                	add    %eax,(%eax)
 804843f:	00 00                	add    %al,(%eax)
 8048441:	00 00                	add    %al,(%eax)
 8048443:	00 00                	add    %al,(%eax)
 8048445:	00 00                	add    %al,(%eax)
 8048447:	00 12                	add    %dl,(%edx)
 8048449:	00 00                	add    %al,(%eax)
 804844b:	00 04 01             	add    %al,(%ecx,%eax,1)
 804844e:	00 00                	add    %al,(%eax)
 8048450:	00 00                	add    %al,(%eax)
 8048452:	00 00                	add    %al,(%eax)
 8048454:	00 00                	add    %al,(%eax)
 8048456:	00 00                	add    %al,(%eax)
 8048458:	12 00                	adc    (%eax),%al
 804845a:	00 00                	add    %al,(%eax)
 804845c:	6b 01 00             	imul   $0x0,(%ecx),%eax
 804845f:	00 00                	add    %al,(%eax)
 8048461:	00 00                	add    %al,(%eax)
 8048463:	00 00                	add    %al,(%eax)
 8048465:	00 00                	add    %al,(%eax)
 8048467:	00 12                	add    %dl,(%edx)
 8048469:	00 00                	add    %al,(%eax)
 804846b:	00 34 00             	add    %dh,(%eax,%eax,1)
 804846e:	00 00                	add    %al,(%eax)
 8048470:	00 00                	add    %al,(%eax)
 8048472:	00 00                	add    %al,(%eax)
 8048474:	00 00                	add    %al,(%eax)
 8048476:	00 00                	add    %al,(%eax)
 8048478:	12 00                	adc    (%eax),%al
 804847a:	00 00                	add    %al,(%eax)
 804847c:	3f                   	aas    
 804847d:	01 00                	add    %eax,(%eax)
 804847f:	00 00                	add    %al,(%eax)
 8048481:	00 00                	add    %al,(%eax)
 8048483:	00 00                	add    %al,(%eax)
 8048485:	00 00                	add    %al,(%eax)
 8048487:	00 12                	add    %dl,(%edx)
 8048489:	00 00                	add    %al,(%eax)
 804848b:	00 2c 02             	add    %ch,(%edx,%eax,1)
 804848e:	00 00                	add    %al,(%eax)
 8048490:	00 00                	add    %al,(%eax)
 8048492:	00 00                	add    %al,(%eax)
 8048494:	00 00                	add    %al,(%eax)
 8048496:	00 00                	add    %al,(%eax)
 8048498:	12 00                	adc    (%eax),%al
 804849a:	00 00                	add    %al,(%eax)
 804849c:	56                   	push   %esi
 804849d:	02 00                	add    (%eax),%al
 804849f:	00 00                	add    %al,(%eax)
 80484a1:	00 00                	add    %al,(%eax)
 80484a3:	00 00                	add    %al,(%eax)
 80484a5:	00 00                	add    %al,(%eax)
 80484a7:	00 12                	add    %dl,(%edx)
 80484a9:	00 00                	add    %al,(%eax)
 80484ab:	00 aa 00 00 00 00    	add    %ch,0x0(%edx)
 80484b1:	00 00                	add    %al,(%eax)
 80484b3:	00 00                	add    %al,(%eax)
 80484b5:	00 00                	add    %al,(%eax)
 80484b7:	00 12                	add    %dl,(%edx)
 80484b9:	00 00                	add    %al,(%eax)
 80484bb:	00 f7                	add    %dh,%bh
 80484bd:	00 00                	add    %al,(%eax)
 80484bf:	00 00                	add    %al,(%eax)
 80484c1:	00 00                	add    %al,(%eax)
 80484c3:	00 00                	add    %al,(%eax)
 80484c5:	00 00                	add    %al,(%eax)
 80484c7:	00 12                	add    %dl,(%edx)
 80484c9:	00 00                	add    %al,(%eax)
 80484cb:	00 ab 01 00 00 00    	add    %ch,0x1(%ebx)
 80484d1:	00 00                	add    %al,(%eax)
 80484d3:	00 00                	add    %al,(%eax)
 80484d5:	00 00                	add    %al,(%eax)
 80484d7:	00 12                	add    %dl,(%edx)
 80484d9:	00 00                	add    %al,(%eax)
 80484db:	00 73 01             	add    %dh,0x1(%ebx)
 80484de:	00 00                	add    %al,(%eax)
 80484e0:	00 00                	add    %al,(%eax)
 80484e2:	00 00                	add    %al,(%eax)
 80484e4:	00 00                	add    %al,(%eax)
 80484e6:	00 00                	add    %al,(%eax)
 80484e8:	12 00                	adc    (%eax),%al
 80484ea:	00 00                	add    %al,(%eax)
 80484ec:	0a 01                	or     (%ecx),%al
 80484ee:	00 00                	add    %al,(%eax)
 80484f0:	00 00                	add    %al,(%eax)
 80484f2:	00 00                	add    %al,(%eax)
 80484f4:	00 00                	add    %al,(%eax)
 80484f6:	00 00                	add    %al,(%eax)
 80484f8:	12 00                	adc    (%eax),%al
 80484fa:	00 00                	add    %al,(%eax)
 80484fc:	e8 01 00 00 00       	call   8048502 <_init-0x792>
 8048501:	00 00                	add    %al,(%eax)
 8048503:	00 00                	add    %al,(%eax)
 8048505:	00 00                	add    %al,(%eax)
 8048507:	00 12                	add    %dl,(%edx)
 8048509:	00 00                	add    %al,(%eax)
 804850b:	00 11                	add    %dl,(%ecx)
 804850d:	00 00                	add    %al,(%eax)
 804850f:	00 00                	add    %al,(%eax)
 8048511:	00 00                	add    %al,(%eax)
 8048513:	00 00                	add    %al,(%eax)
 8048515:	00 00                	add    %al,(%eax)
 8048517:	00 20                	add    %ah,(%eax)
 8048519:	00 00                	add    %al,(%eax)
 804851b:	00 43 00             	add    %al,0x0(%ebx)
 804851e:	00 00                	add    %al,(%eax)
 8048520:	00 00                	add    %al,(%eax)
 8048522:	00 00                	add    %al,(%eax)
 8048524:	00 00                	add    %al,(%eax)
 8048526:	00 00                	add    %al,(%eax)
 8048528:	12 00                	adc    (%eax),%al
 804852a:	00 00                	add    %al,(%eax)
 804852c:	a3 01 00 00 00       	mov    %eax,0x1
 8048531:	00 00                	add    %al,(%eax)
 8048533:	00 00                	add    %al,(%eax)
 8048535:	00 00                	add    %al,(%eax)
 8048537:	00 12                	add    %dl,(%edx)
 8048539:	00 00                	add    %al,(%eax)
 804853b:	00 35 01 00 00 00    	add    %dh,0x1
 8048541:	00 00                	add    %al,(%eax)
 8048543:	00 00                	add    %al,(%eax)
 8048545:	00 00                	add    %al,(%eax)
 8048547:	00 12                	add    %dl,(%edx)
 8048549:	00 00                	add    %al,(%eax)
 804854b:	00 e9                	add    %ch,%cl
 804854d:	00 00                	add    %al,(%eax)
 804854f:	00 00                	add    %al,(%eax)
 8048551:	00 00                	add    %al,(%eax)
 8048553:	00 00                	add    %al,(%eax)
 8048555:	00 00                	add    %al,(%eax)
 8048557:	00 12                	add    %dl,(%edx)
 8048559:	00 00                	add    %al,(%eax)
 804855b:	00 c9                	add    %cl,%cl
 804855d:	01 00                	add    %eax,(%eax)
 804855f:	00 00                	add    %al,(%eax)
 8048561:	00 00                	add    %al,(%eax)
 8048563:	00 00                	add    %al,(%eax)
 8048565:	00 00                	add    %al,(%eax)
 8048567:	00 12                	add    %dl,(%edx)
 8048569:	00 00                	add    %al,(%eax)
 804856b:	00 25 00 00 00 00    	add    %ah,0x0
 8048571:	00 00                	add    %al,(%eax)
 8048573:	00 00                	add    %al,(%eax)
 8048575:	00 00                	add    %al,(%eax)
 8048577:	00 12                	add    %dl,(%edx)
 8048579:	00 00                	add    %al,(%eax)
 804857b:	00 b7 00 00 00 00    	add    %dh,0x0(%edi)
 8048581:	00 00                	add    %al,(%eax)
 8048583:	00 00                	add    %al,(%eax)
 8048585:	00 00                	add    %al,(%eax)
 8048587:	00 12                	add    %dl,(%edx)
 8048589:	00 00                	add    %al,(%eax)
 804858b:	00 0a                	add    %cl,(%edx)
 804858d:	02 00                	add    (%eax),%al
 804858f:	00 00                	add    %al,(%eax)
 8048591:	00 00                	add    %al,(%eax)
 8048593:	00 00                	add    %al,(%eax)
 8048595:	00 00                	add    %al,(%eax)
 8048597:	00 12                	add    %dl,(%edx)
 8048599:	00 00                	add    %al,(%eax)
 804859b:	00 96 01 00 00 00    	add    %dl,0x1(%esi)
 80485a1:	00 00                	add    %al,(%eax)
 80485a3:	00 00                	add    %al,(%eax)
 80485a5:	00 00                	add    %al,(%eax)
 80485a7:	00 12                	add    %dl,(%edx)
 80485a9:	00 00                	add    %al,(%eax)
 80485ab:	00 ee                	add    %ch,%dh
 80485ad:	01 00                	add    %eax,(%eax)
 80485af:	00 00                	add    %al,(%eax)
 80485b1:	00 00                	add    %al,(%eax)
 80485b3:	00 00                	add    %al,(%eax)
 80485b5:	00 00                	add    %al,(%eax)
 80485b7:	00 12                	add    %dl,(%edx)
 80485b9:	00 00                	add    %al,(%eax)
 80485bb:	00 f5                	add    %dh,%ch
 80485bd:	01 00                	add    %eax,(%eax)
 80485bf:	00 00                	add    %al,(%eax)
 80485c1:	00 00                	add    %al,(%eax)
 80485c3:	00 00                	add    %al,(%eax)
 80485c5:	00 00                	add    %al,(%eax)
 80485c7:	00 12                	add    %dl,(%edx)
 80485c9:	00 00                	add    %al,(%eax)
 80485cb:	00 71 02             	add    %dh,0x2(%ecx)
 80485ce:	00 00                	add    %al,(%eax)
 80485d0:	00 00                	add    %al,(%eax)
 80485d2:	00 00                	add    %al,(%eax)
 80485d4:	00 00                	add    %al,(%eax)
 80485d6:	00 00                	add    %al,(%eax)
 80485d8:	12 00                	adc    (%eax),%al
 80485da:	00 00                	add    %al,(%eax)
 80485dc:	10 02                	adc    %al,(%edx)
 80485de:	00 00                	add    %al,(%eax)
 80485e0:	00 00                	add    %al,(%eax)
 80485e2:	00 00                	add    %al,(%eax)
 80485e4:	00 00                	add    %al,(%eax)
 80485e6:	00 00                	add    %al,(%eax)
 80485e8:	12 00                	adc    (%eax),%al
 80485ea:	00 00                	add    %al,(%eax)
 80485ec:	63 02                	arpl   %ax,(%edx)
 80485ee:	00 00                	add    %al,(%eax)
 80485f0:	00 00                	add    %al,(%eax)
 80485f2:	00 00                	add    %al,(%eax)
 80485f4:	00 00                	add    %al,(%eax)
 80485f6:	00 00                	add    %al,(%eax)
 80485f8:	12 00                	adc    (%eax),%al
 80485fa:	00 00                	add    %al,(%eax)
 80485fc:	e1 01                	loope  80485ff <_init-0x695>
 80485fe:	00 00                	add    %al,(%eax)
 8048600:	60                   	pusha  
 8048601:	13 05 08 04 00 00    	adc    0x408,%eax
 8048607:	00 11                	add    %dl,(%ecx)
 8048609:	00 19                	add    %bl,(%ecx)
 804860b:	00 25 02 00 00 40    	add    %ah,0x40000002
 8048611:	13 05 08 04 00 00    	adc    0x408,%eax
 8048617:	00 11                	add    %dl,(%ecx)
 8048619:	00 19                	add    %bl,(%ecx)
 804861b:	00 da                	add    %bl,%dl
 804861d:	00 00                	add    %al,(%eax)
 804861f:	00 a4 d9 04 08 04 00 	add    %ah,0x40804(%ecx,%ebx,8)
 8048626:	00 00                	add    %al,(%eax)
 8048628:	11 00                	adc    %eax,(%eax)
 804862a:	0f 00 1e             	ltr    (%esi)
 804862d:	02 00                	add    (%eax),%al
 804862f:	00 64 13 05          	add    %ah,0x5(%ebx,%edx,1)
 8048633:	08 04 00             	or     %al,(%eax,%eax,1)
 8048636:	00 00                	add    %al,(%eax)
 8048638:	11 00                	adc    %eax,(%eax)
 804863a:	19 00                	sbb    %eax,(%eax)

Disassembly of section .dynstr:

0804863c <.dynstr>:
 804863c:	00 6c 69 62          	add    %ch,0x62(%ecx,%ebp,2)
 8048640:	70 74                	jo     80486b6 <_init-0x5de>
 8048642:	68 72 65 61 64       	push   $0x64616572
 8048647:	2e 73 6f             	jae,pn 80486b9 <_init-0x5db>
 804864a:	2e 30 00             	xor    %al,%cs:(%eax)
 804864d:	5f                   	pop    %edi
 804864e:	4a                   	dec    %edx
 804864f:	76 5f                	jbe    80486b0 <_init-0x5e4>
 8048651:	52                   	push   %edx
 8048652:	65 67 69 73 74 65 72 43 6c 	imul   $0x6c437265,%gs:0x74(%bp,%di),%esi
 804865b:	61                   	popa   
 804865c:	73 73                	jae    80486d1 <_init-0x5c3>
 804865e:	65                   	gs
 804865f:	73 00                	jae    8048661 <_init-0x633>
 8048661:	70 74                	jo     80486d7 <_init-0x5bd>
 8048663:	68 72 65 61 64       	push   $0x64616572
 8048668:	5f                   	pop    %edi
 8048669:	63 72 65             	arpl   %si,0x65(%edx)
 804866c:	61                   	popa   
 804866d:	74 65                	je     80486d4 <_init-0x5c0>
 804866f:	00 70 74             	add    %dh,0x74(%eax)
 8048672:	68 72 65 61 64       	push   $0x64616572
 8048677:	5f                   	pop    %edi
 8048678:	63 61 6e             	arpl   %sp,0x6e(%ecx)
 804867b:	63 65 6c             	arpl   %sp,0x6c(%ebp)
 804867e:	00 70 74             	add    %dh,0x74(%eax)
 8048681:	68 72 65 61 64       	push   $0x64616572
 8048686:	5f                   	pop    %edi
 8048687:	6a 6f                	push   $0x6f
 8048689:	69 6e 00 70 74 68 72 	imul   $0x72687470,0x0(%esi),%ebp
 8048690:	65                   	gs
 8048691:	61                   	popa   
 8048692:	64                   	fs
 8048693:	5f                   	pop    %edi
 8048694:	63 6f 6e             	arpl   %bp,0x6e(%edi)
 8048697:	64                   	fs
 8048698:	5f                   	pop    %edi
 8048699:	77 61                	ja     80486fc <_init-0x598>
 804869b:	69 74 00 70 74 68 72 65 	imul   $0x65726874,0x70(%eax,%eax,1),%esi
 80486a3:	61                   	popa   
 80486a4:	64                   	fs
 80486a5:	5f                   	pop    %edi
 80486a6:	6d                   	insl   (%dx),%es:(%edi)
 80486a7:	75 74                	jne    804871d <_init-0x577>
 80486a9:	65                   	gs
 80486aa:	78 5f                	js     804870b <_init-0x589>
 80486ac:	75 6e                	jne    804871c <_init-0x578>
 80486ae:	6c                   	insb   (%dx),%es:(%edi)
 80486af:	6f                   	outsl  %ds:(%esi),(%dx)
 80486b0:	63 6b 00             	arpl   %bp,0x0(%ebx)
 80486b3:	70 74                	jo     8048729 <_init-0x56b>
 80486b5:	68 72 65 61 64       	push   $0x64616572
 80486ba:	5f                   	pop    %edi
 80486bb:	63 6f 6e             	arpl   %bp,0x6e(%edi)
 80486be:	64                   	fs
 80486bf:	5f                   	pop    %edi
 80486c0:	73 69                	jae    804872b <_init-0x569>
 80486c2:	67 6e                	outsb  %ds:(%si),(%dx)
 80486c4:	61                   	popa   
 80486c5:	6c                   	insb   (%dx),%es:(%edi)
 80486c6:	00 72 65             	add    %dh,0x65(%edx)
 80486c9:	61                   	popa   
 80486ca:	64 00 70 74          	add    %dh,%fs:0x74(%eax)
 80486ce:	68 72 65 61 64       	push   $0x64616572
 80486d3:	5f                   	pop    %edi
 80486d4:	6d                   	insl   (%dx),%es:(%edi)
 80486d5:	75 74                	jne    804874b <_init-0x549>
 80486d7:	65                   	gs
 80486d8:	78 5f                	js     8048739 <_init-0x55b>
 80486da:	6c                   	insb   (%dx),%es:(%edi)
 80486db:	6f                   	outsl  %ds:(%esi),(%dx)
 80486dc:	63 6b 00             	arpl   %bp,0x0(%ebx)
 80486df:	61                   	popa   
 80486e0:	63 63 65             	arpl   %sp,0x65(%ebx)
 80486e3:	70 74                	jo     8048759 <_init-0x53b>
 80486e5:	00 70 74             	add    %dh,0x74(%eax)
 80486e8:	68 72 65 61 64       	push   $0x64616572
 80486ed:	5f                   	pop    %edi
 80486ee:	65                   	gs
 80486ef:	78 69                	js     804875a <_init-0x53a>
 80486f1:	74 00                	je     80486f3 <_init-0x5a1>
 80486f3:	73 69                	jae    804875e <_init-0x536>
 80486f5:	67 61                	addr16 popa 
 80486f7:	63 74 69 6f          	arpl   %si,0x6f(%ecx,%ebp,2)
 80486fb:	6e                   	outsb  %ds:(%esi),(%dx)
 80486fc:	00 5f 5f             	add    %bl,0x5f(%edi)
 80486ff:	67 6d                	insl   (%dx),%es:(%di)
 8048701:	6f                   	outsl  %ds:(%esi),(%dx)
 8048702:	6e                   	outsb  %ds:(%esi),(%dx)
 8048703:	5f                   	pop    %edi
 8048704:	73 74                	jae    804877a <_init-0x51a>
 8048706:	61                   	popa   
 8048707:	72 74                	jb     804877d <_init-0x517>
 8048709:	5f                   	pop    %edi
 804870a:	5f                   	pop    %edi
 804870b:	00 6c 69 62          	add    %ch,0x62(%ecx,%ebp,2)
 804870f:	63 2e                	arpl   %bp,(%esi)
 8048711:	73 6f                	jae    8048782 <_init-0x512>
 8048713:	2e 36 00 5f 49       	cs add %bl,%cs:%ss:0x49(%edi)
 8048718:	4f                   	dec    %edi
 8048719:	5f                   	pop    %edi
 804871a:	73 74                	jae    8048790 <_init-0x504>
 804871c:	64 69 6e 5f 75 73 65 64 	imul   $0x64657375,%fs:0x5f(%esi),%ebp
 8048724:	00 73 6f             	add    %dh,0x6f(%ebx)
 8048727:	63 6b 65             	arpl   %bp,0x65(%ebx)
 804872a:	74 00                	je     804872c <_init-0x568>
 804872c:	66                   	data16
 804872d:	66                   	data16
 804872e:	6c                   	insb   (%dx),%es:(%edi)
 804872f:	75 73                	jne    80487a4 <_init-0x4f0>
 8048731:	68 00 5f 5f 70       	push   $0x705f5f00
 8048736:	72 69                	jb     80487a1 <_init-0x4f3>
 8048738:	6e                   	outsb  %ds:(%esi),(%dx)
 8048739:	74 66                	je     80487a1 <_init-0x4f3>
 804873b:	5f                   	pop    %edi
 804873c:	63 68 6b             	arpl   %bp,0x6b(%eax)
 804873f:	00 66 6f             	add    %ah,0x6f(%esi)
 8048742:	70 65                	jo     80487a9 <_init-0x4eb>
 8048744:	6e                   	outsb  %ds:(%esi),(%dx)
 8048745:	00 73 74             	add    %dh,0x74(%ebx)
 8048748:	72 72                	jb     80487bc <_init-0x4d8>
 804874a:	63 68 72             	arpl   %bp,0x72(%eax)
 804874d:	00 70 65             	add    %dh,0x65(%eax)
 8048750:	72 72                	jb     80487c4 <_init-0x4d0>
 8048752:	6f                   	outsl  %ds:(%esi),(%dx)
 8048753:	72 00                	jb     8048755 <_init-0x53f>
 8048755:	5f                   	pop    %edi
 8048756:	5f                   	pop    %edi
 8048757:	69 73 6f 63 39 39 5f 	imul   $0x5f393963,0x6f(%ebx),%esi
 804875e:	73 73                	jae    80487d3 <_init-0x4c1>
 8048760:	63 61 6e             	arpl   %sp,0x6e(%ecx)
 8048763:	66                   	data16
 8048764:	00 5f 5f             	add    %bl,0x5f(%edi)
 8048767:	66                   	data16
 8048768:	64                   	fs
 8048769:	65                   	gs
 804876a:	6c                   	insb   (%dx),%es:(%edi)
 804876b:	74 5f                	je     80487cc <_init-0x4c8>
 804876d:	63 68 6b             	arpl   %bp,0x6b(%eax)
 8048770:	00 69 6e             	add    %ch,0x6e(%ecx)
 8048773:	65                   	gs
 8048774:	74 5f                	je     80487d5 <_init-0x4bf>
 8048776:	6e                   	outsb  %ds:(%esi),(%dx)
 8048777:	74 6f                	je     80487e8 <_init-0x4ac>
 8048779:	70 00                	jo     804877b <_init-0x519>
 804877b:	73 74                	jae    80487f1 <_init-0x4a3>
 804877d:	72 6e                	jb     80487ed <_init-0x4a7>
 804877f:	63 70 79             	arpl   %si,0x79(%eax)
 8048782:	00 73 69             	add    %dh,0x69(%ebx)
 8048785:	67 70 72             	addr16 jo 80487fa <_init-0x49a>
 8048788:	6f                   	outsl  %ds:(%esi),(%dx)
 8048789:	63 6d 61             	arpl   %bp,0x61(%ebp)
 804878c:	73 6b                	jae    80487f9 <_init-0x49b>
 804878e:	00 5f 5f             	add    %bl,0x5f(%edi)
 8048791:	73 74                	jae    8048807 <_init-0x48d>
 8048793:	61                   	popa   
 8048794:	63 6b 5f             	arpl   %bp,0x5f(%ebx)
 8048797:	63 68 6b             	arpl   %bp,0x6b(%eax)
 804879a:	5f                   	pop    %edi
 804879b:	66 61                	popaw  
 804879d:	69 6c 00 75 6e 6c 69 6e 	imul   $0x6e696c6e,0x75(%eax,%eax,1),%ebp
 80487a5:	6b 00 70             	imul   $0x70,(%eax),%eax
 80487a8:	75 74                	jne    804881e <_init-0x476>
 80487aa:	63 68 61             	arpl   %bp,0x61(%eax)
 80487ad:	72 00                	jb     80487af <_init-0x4e5>
 80487af:	6c                   	insb   (%dx),%es:(%edi)
 80487b0:	69 73 74 65 6e 00 73 	imul   $0x73006e65,0x74(%ebx),%esi
 80487b7:	65                   	gs
 80487b8:	6c                   	insb   (%dx),%es:(%edi)
 80487b9:	65 63 74 00 67       	arpl   %si,%gs:0x67(%eax,%eax,1)
 80487be:	65                   	gs
 80487bf:	74 70                	je     8048831 <_init-0x463>
 80487c1:	69 64 00 6b 69 6c 6c 00 	imul   $0x6c6c69,0x6b(%eax,%eax,1),%esp
 80487c9:	73 74                	jae    804883f <_init-0x455>
 80487cb:	72 66                	jb     8048833 <_init-0x461>
 80487cd:	74 69                	je     8048838 <_init-0x45c>
 80487cf:	6d                   	insl   (%dx),%es:(%edi)
 80487d0:	65 00 73 74          	add    %dh,%gs:0x74(%ebx)
 80487d4:	72 74                	jb     804884a <_init-0x44a>
 80487d6:	6f                   	outsl  %ds:(%esi),(%dx)
 80487d7:	6c                   	insb   (%dx),%es:(%edi)
 80487d8:	00 66 67             	add    %ah,0x67(%esi)
 80487db:	65                   	gs
 80487dc:	74 73                	je     8048851 <_init-0x443>
 80487de:	00 67 65             	add    %ah,0x65(%edi)
 80487e1:	74 70                	je     8048853 <_init-0x441>
 80487e3:	70 69                	jo     804884e <_init-0x446>
 80487e5:	64 00 73 69          	add    %dh,%fs:0x69(%ebx)
 80487e9:	67                   	addr16
 80487ea:	65                   	gs
 80487eb:	6d                   	insl   (%dx),%es:(%edi)
 80487ec:	70 74                	jo     8048862 <_init-0x432>
 80487ee:	79 73                	jns    8048863 <_init-0x431>
 80487f0:	65                   	gs
 80487f1:	74 00                	je     80487f3 <_init-0x4a1>
 80487f3:	62 69 6e             	bound  %ebp,0x6e(%ecx)
 80487f6:	64 00 63 68          	add    %ah,%fs:0x68(%ebx)
 80487fa:	64 69 72 00 67 65 74 6f 	imul   $0x6f746567,%fs:0x0(%edx),%esi
 8048802:	70 74                	jo     8048878 <_init-0x41c>
 8048804:	00 5f 5f             	add    %bl,0x5f(%edi)
 8048807:	66                   	data16
 8048808:	70 72                	jo     804887c <_init-0x418>
 804880a:	69 6e 74 66 5f 63 68 	imul   $0x68635f66,0x74(%esi),%ebp
 8048811:	6b 00 73             	imul   $0x73,(%eax),%eax
 8048814:	69 67 61 64 64 73 65 	imul   $0x65736464,0x61(%edi),%esp
 804881b:	74 00                	je     804881d <_init-0x477>
 804881d:	73 74                	jae    8048893 <_init-0x401>
 804881f:	64 6f                	outsl  %fs:(%esi),(%dx)
 8048821:	75 74                	jne    8048897 <_init-0x3fd>
 8048823:	00 66 70             	add    %ah,0x70(%esi)
 8048826:	75 74                	jne    804889c <_init-0x3f8>
 8048828:	63 00                	arpl   %ax,(%eax)
 804882a:	66                   	data16
 804882b:	70 75                	jo     80488a2 <_init-0x3f2>
 804882d:	74 73                	je     80488a2 <_init-0x3f2>
 804882f:	00 66 63             	add    %ah,0x63(%esi)
 8048832:	6c                   	insb   (%dx),%es:(%edi)
 8048833:	6f                   	outsl  %ds:(%esi),(%dx)
 8048834:	73 65                	jae    804889b <_init-0x3f9>
 8048836:	00 73 74             	add    %dh,0x74(%ebx)
 8048839:	72 74                	jb     80488af <_init-0x3e5>
 804883b:	6f                   	outsl  %ds:(%esi),(%dx)
 804883c:	75 6c                	jne    80488aa <_init-0x3ea>
 804883e:	00 6d 61             	add    %ch,0x61(%ebp)
 8048841:	6c                   	insb   (%dx),%es:(%edi)
 8048842:	6c                   	insb   (%dx),%es:(%edi)
 8048843:	6f                   	outsl  %ds:(%esi),(%dx)
 8048844:	63 00                	arpl   %ax,(%eax)
 8048846:	75 6d                	jne    80488b5 <_init-0x3df>
 8048848:	61                   	popa   
 8048849:	73 6b                	jae    80488b6 <_init-0x3de>
 804884b:	00 5f 5f             	add    %bl,0x5f(%edi)
 804884e:	63 74 79 70          	arpl   %si,0x70(%ecx,%edi,2)
 8048852:	65                   	gs
 8048853:	5f                   	pop    %edi
 8048854:	62 5f 6c             	bound  %ebx,0x6c(%edi)
 8048857:	6f                   	outsl  %ds:(%esi),(%dx)
 8048858:	63 00                	arpl   %ax,(%eax)
 804885a:	6f                   	outsl  %ds:(%esi),(%dx)
 804885b:	70 74                	jo     80488d1 <_init-0x3c3>
 804885d:	61                   	popa   
 804885e:	72 67                	jb     80488c7 <_init-0x3cd>
 8048860:	00 73 74             	add    %dh,0x74(%ebx)
 8048863:	64                   	fs
 8048864:	65                   	gs
 8048865:	72 72                	jb     80488d9 <_init-0x3bb>
 8048867:	00 73 74             	add    %dh,0x74(%ebx)
 804886a:	72 6e                	jb     80488da <_init-0x3ba>
 804886c:	63 61 73             	arpl   %sp,0x73(%ecx)
 804886f:	65 63 6d 70          	arpl   %bp,%gs:0x70(%ebp)
 8048873:	00 66 77             	add    %ah,0x77(%esi)
 8048876:	72 69                	jb     80488e1 <_init-0x3b3>
 8048878:	74 65                	je     80488df <_init-0x3b5>
 804887a:	00 6c 6f 63          	add    %ch,0x63(%edi,%ebp,2)
 804887e:	61                   	popa   
 804887f:	6c                   	insb   (%dx),%es:(%edi)
 8048880:	74 69                	je     80488eb <_init-0x3a9>
 8048882:	6d                   	insl   (%dx),%es:(%edi)
 8048883:	65 00 73 74          	add    %dh,%gs:0x74(%ebx)
 8048887:	72 63                	jb     80488ec <_init-0x3a8>
 8048889:	68 72 00 73 6c       	push   $0x6c730072
 804888e:	65                   	gs
 804888f:	65                   	gs
 8048890:	70 00                	jo     8048892 <_init-0x402>
 8048892:	5f                   	pop    %edi
 8048893:	5f                   	pop    %edi
 8048894:	73 74                	jae    804890a <_init-0x38a>
 8048896:	72 63                	jb     80488fb <_init-0x399>
 8048898:	70 79                	jo     8048913 <_init-0x381>
 804889a:	5f                   	pop    %edi
 804889b:	63 68 6b             	arpl   %bp,0x6b(%eax)
 804889e:	00 5f 5f             	add    %bl,0x5f(%edi)
 80488a1:	73 70                	jae    8048913 <_init-0x381>
 80488a3:	72 69                	jb     804890e <_init-0x386>
 80488a5:	6e                   	outsb  %ds:(%esi),(%dx)
 80488a6:	74 66                	je     804890e <_init-0x386>
 80488a8:	5f                   	pop    %edi
 80488a9:	63 68 6b             	arpl   %bp,0x6b(%eax)
 80488ac:	00 6d 6b             	add    %ch,0x6b(%ebp)
 80488af:	66 69 66 6f 00 73    	imul   $0x7300,0x6f(%esi),%sp
 80488b5:	74 72                	je     8048929 <_init-0x36b>
 80488b7:	63 6d 70             	arpl   %bp,0x70(%ebp)
 80488ba:	00 5f 5f             	add    %bl,0x5f(%edi)
 80488bd:	6c                   	insb   (%dx),%es:(%edi)
 80488be:	69 62 63 5f 73 74 61 	imul   $0x6174735f,0x63(%edx),%esp
 80488c5:	72 74                	jb     804893b <_init-0x359>
 80488c7:	5f                   	pop    %edi
 80488c8:	6d                   	insl   (%dx),%es:(%edi)
 80488c9:	61                   	popa   
 80488ca:	69 6e 00 66 72 65 65 	imul   $0x65657266,0x0(%esi),%ebp
 80488d1:	00 47 4c             	add    %al,0x4c(%edi)
 80488d4:	49                   	dec    %ecx
 80488d5:	42                   	inc    %edx
 80488d6:	43                   	inc    %ebx
 80488d7:	5f                   	pop    %edi
 80488d8:	32 2e                	xor    (%esi),%ch
 80488da:	33 00                	xor    (%eax),%eax
 80488dc:	47                   	inc    %edi
 80488dd:	4c                   	dec    %esp
 80488de:	49                   	dec    %ecx
 80488df:	42                   	inc    %edx
 80488e0:	43                   	inc    %ebx
 80488e1:	5f                   	pop    %edi
 80488e2:	32 2e                	xor    (%esi),%ch
 80488e4:	33 2e                	xor    (%esi),%ebp
 80488e6:	34 00                	xor    $0x0,%al
 80488e8:	47                   	inc    %edi
 80488e9:	4c                   	dec    %esp
 80488ea:	49                   	dec    %ecx
 80488eb:	42                   	inc    %edx
 80488ec:	43                   	inc    %ebx
 80488ed:	5f                   	pop    %edi
 80488ee:	32 2e                	xor    (%esi),%ch
 80488f0:	37                   	aaa    
 80488f1:	00 47 4c             	add    %al,0x4c(%edi)
 80488f4:	49                   	dec    %ecx
 80488f5:	42                   	inc    %edx
 80488f6:	43                   	inc    %ebx
 80488f7:	5f                   	pop    %edi
 80488f8:	32 2e                	xor    (%esi),%ch
 80488fa:	31 35 00 47 4c 49    	xor    %esi,0x494c4700
 8048900:	42                   	inc    %edx
 8048901:	43                   	inc    %ebx
 8048902:	5f                   	pop    %edi
 8048903:	32 2e                	xor    (%esi),%ch
 8048905:	34 00                	xor    $0x0,%al
 8048907:	47                   	inc    %edi
 8048908:	4c                   	dec    %esp
 8048909:	49                   	dec    %ecx
 804890a:	42                   	inc    %edx
 804890b:	43                   	inc    %ebx
 804890c:	5f                   	pop    %edi
 804890d:	32 2e                	xor    (%esi),%ch
 804890f:	31 00                	xor    %eax,(%eax)
 8048911:	47                   	inc    %edi
 8048912:	4c                   	dec    %esp
 8048913:	49                   	dec    %ecx
 8048914:	42                   	inc    %edx
 8048915:	43                   	inc    %ebx
 8048916:	5f                   	pop    %edi
 8048917:	32 2e                	xor    (%esi),%ch
 8048919:	30 00                	xor    %al,(%eax)
 804891b:	47                   	inc    %edi
 804891c:	4c                   	dec    %esp
 804891d:	49                   	dec    %ecx
 804891e:	42                   	inc    %edx
 804891f:	43                   	inc    %ebx
 8048920:	5f                   	pop    %edi
 8048921:	32 2e                	xor    (%esi),%ch
 8048923:	33 2e                	xor    (%esi),%ebp
 8048925:	32 00                	xor    (%eax),%al

Disassembly of section .gnu.version:

08048928 <.gnu.version>:
 8048928:	00 00                	add    %al,(%eax)
 804892a:	02 00                	add    (%eax),%al
 804892c:	03 00                	add    (%eax),%eax
 804892e:	02 00                	add    (%eax),%al
 8048930:	03 00                	add    (%eax),%eax
 8048932:	03 00                	add    (%eax),%eax
 8048934:	03 00                	add    (%eax),%eax
 8048936:	03 00                	add    (%eax),%eax
 8048938:	04 00                	add    $0x0,%al
 804893a:	03 00                	add    (%eax),%eax
 804893c:	05 00 03 00 03       	add    $0x3000300,%eax
 8048941:	00 03                	add    %al,(%ebx)
 8048943:	00 06                	add    %al,(%esi)
 8048945:	00 07                	add    %al,(%edi)
 8048947:	00 02                	add    %al,(%edx)
 8048949:	00 03                	add    %al,(%ebx)
 804894b:	00 03                	add    %al,(%ebx)
 804894d:	00 02                	add    %al,(%edx)
 804894f:	00 03                	add    %al,(%ebx)
 8048951:	00 03                	add    %al,(%ebx)
 8048953:	00 05 00 03 00 03    	add    %al,0x3000300
 8048959:	00 00                	add    %al,(%eax)
 804895b:	00 03                	add    %al,(%ebx)
 804895d:	00 03                	add    %al,(%ebx)
 804895f:	00 02                	add    %al,(%edx)
 8048961:	00 03                	add    %al,(%ebx)
 8048963:	00 03                	add    %al,(%ebx)
 8048965:	00 03                	add    %al,(%ebx)
 8048967:	00 03                	add    %al,(%ebx)
 8048969:	00 03                	add    %al,(%ebx)
 804896b:	00 02                	add    %al,(%edx)
 804896d:	00 03                	add    %al,(%ebx)
 804896f:	00 03                	add    %al,(%ebx)
 8048971:	00 03                	add    %al,(%ebx)
 8048973:	00 08                	add    %cl,(%eax)
 8048975:	00 04 00             	add    %al,(%eax,%eax,1)
 8048978:	03 00                	add    (%eax),%eax
 804897a:	02 00                	add    (%eax),%al
 804897c:	03 00                	add    (%eax),%eax
 804897e:	03 00                	add    (%eax),%eax
 8048980:	09 00                	or     %eax,(%eax)
 8048982:	02 00                	add    (%eax),%al
 8048984:	09 00                	or     %eax,(%eax)
 8048986:	03 00                	add    (%eax),%eax
 8048988:	03 00                	add    (%eax),%eax
 804898a:	03 00                	add    (%eax),%eax
 804898c:	03 00                	add    (%eax),%eax
 804898e:	00 00                	add    %al,(%eax)
 8048990:	02 00                	add    (%eax),%al
 8048992:	03 00                	add    (%eax),%eax
 8048994:	03 00                	add    (%eax),%eax
 8048996:	03 00                	add    (%eax),%eax
 8048998:	09 00                	or     %eax,(%eax)
 804899a:	0a 00                	or     (%eax),%al
 804899c:	02 00                	add    (%eax),%al
 804899e:	03 00                	add    (%eax),%eax
 80489a0:	03 00                	add    (%eax),%eax
 80489a2:	03 00                	add    (%eax),%eax
 80489a4:	02 00                	add    (%eax),%al
 80489a6:	03 00                	add    (%eax),%eax
 80489a8:	0b 00                	or     (%eax),%eax
 80489aa:	09 00                	or     %eax,(%eax)
 80489ac:	03 00                	add    (%eax),%eax
 80489ae:	03 00                	add    (%eax),%eax
 80489b0:	01 00                	add    %eax,(%eax)
 80489b2:	03 00                	add    (%eax),%eax

Disassembly of section .gnu.version_r:

080489b4 <.gnu.version_r>:
 80489b4:	01 00                	add    %eax,(%eax)
 80489b6:	07                   	pop    %es
 80489b7:	00 d0                	add    %dl,%al
 80489b9:	00 00                	add    %al,(%eax)
 80489bb:	00 10                	add    %dl,(%eax)
 80489bd:	00 00                	add    %al,(%eax)
 80489bf:	00 80 00 00 00 13    	add    %al,0x13000000(%eax)
 80489c5:	69 69 0d 00 00 0b 00 	imul   $0xb0000,0xd(%ecx),%ebp
 80489cc:	96                   	xchg   %eax,%esi
 80489cd:	02 00                	add    (%eax),%al
 80489cf:	00 10                	add    %dl,(%eax)
 80489d1:	00 00                	add    %al,(%eax)
 80489d3:	00 74 19 69          	add    %dh,0x69(%ecx,%ebx,1)
 80489d7:	09 00                	or     %eax,(%eax)
 80489d9:	00 09                	add    %cl,(%ecx)
 80489db:	00 a0 02 00 00 10    	add    %ah,0x10000002(%eax)
 80489e1:	00 00                	add    %al,(%eax)
 80489e3:	00 17                	add    %dl,(%edi)
 80489e5:	69 69 0d 00 00 08 00 	imul   $0x80000,0xd(%ecx),%ebp
 80489ec:	ac                   	lods   %ds:(%esi),%al
 80489ed:	02 00                	add    (%eax),%al
 80489ef:	00 10                	add    %dl,(%eax)
 80489f1:	00 00                	add    %al,(%eax)
 80489f3:	00 95 91 96 06 00    	add    %dl,0x69691(%ebp)
 80489f9:	00 07                	add    %al,(%edi)
 80489fb:	00 b6 02 00 00 10    	add    %dh,0x10000002(%esi)
 8048a01:	00 00                	add    %al,(%eax)
 8048a03:	00 14 69             	add    %dl,(%ecx,%ebp,2)
 8048a06:	69 0d 00 00 06 00 c1 02 00 00 	imul   $0x2c1,0x60000,%ecx
 8048a10:	10 00                	adc    %al,(%eax)
 8048a12:	00 00                	add    %al,(%eax)
 8048a14:	11 69 69             	adc    %ebp,0x69(%ecx)
 8048a17:	0d 00 00 04 00       	or     $0x40000,%eax
 8048a1c:	cb                   	lret   
 8048a1d:	02 00                	add    (%eax),%al
 8048a1f:	00 10                	add    %dl,(%eax)
 8048a21:	00 00                	add    %al,(%eax)
 8048a23:	00 10                	add    %dl,(%eax)
 8048a25:	69 69 0d 00 00 03 00 	imul   $0x30000,0xd(%ecx),%ebp
 8048a2c:	d5 02                	aad    $0x2
 8048a2e:	00 00                	add    %al,(%eax)
 8048a30:	00 00                	add    %al,(%eax)
 8048a32:	00 00                	add    %al,(%eax)
 8048a34:	01 00                	add    %eax,(%eax)
 8048a36:	03 00                	add    (%eax),%eax
 8048a38:	01 00                	add    %eax,(%eax)
 8048a3a:	00 00                	add    %al,(%eax)
 8048a3c:	10 00                	adc    %al,(%eax)
 8048a3e:	00 00                	add    %al,(%eax)
 8048a40:	00 00                	add    %al,(%eax)
 8048a42:	00 00                	add    %al,(%eax)
 8048a44:	11 69 69             	adc    %ebp,0x69(%ecx)
 8048a47:	0d 00 00 0a 00       	or     $0xa0000,%eax
 8048a4c:	cb                   	lret   
 8048a4d:	02 00                	add    (%eax),%al
 8048a4f:	00 10                	add    %dl,(%eax)
 8048a51:	00 00                	add    %al,(%eax)
 8048a53:	00 72 19             	add    %dh,0x19(%edx)
 8048a56:	69 09 00 00 05 00    	imul   $0x50000,(%ecx),%ecx
 8048a5c:	df 02                	fild   (%edx)
 8048a5e:	00 00                	add    %al,(%eax)
 8048a60:	10 00                	adc    %al,(%eax)
 8048a62:	00 00                	add    %al,(%eax)
 8048a64:	10 69 69             	adc    %ch,0x69(%ecx)
 8048a67:	0d 00 00 02 00       	or     $0x20000,%eax
 8048a6c:	d5 02                	aad    $0x2
 8048a6e:	00 00                	add    %al,(%eax)
 8048a70:	00 00                	add    %al,(%eax)
 8048a72:	00 00                	add    %al,(%eax)

Disassembly of section .rel.dyn:

08048a74 <.rel.dyn>:
 8048a74:	f0 0f 05             	lock syscall 
 8048a77:	08 06                	or     %al,(%esi)
 8048a79:	19 00                	sbb    %eax,(%eax)
 8048a7b:	00 40 13             	add    %al,0x13(%eax)
 8048a7e:	05 08 05 43 00       	add    $0x430508,%eax
 8048a83:	00 60 13             	add    %ah,0x13(%eax)
 8048a86:	05 08 05 42 00       	add    $0x420508,%eax
 8048a8b:	00 64 13 05          	add    %ah,0x5(%ebx,%edx,1)
 8048a8f:	08                   	.byte 0x8
 8048a90:	05                   	.byte 0x5
 8048a91:	45                   	inc    %ebp
 8048a92:	00 00                	add    %al,(%eax)

Disassembly of section .rel.plt:

08048a94 <.rel.plt>:
 8048a94:	00 10                	add    %dl,(%eax)
 8048a96:	05 08 07 01 00       	add    $0x10708,%eax
 8048a9b:	00 04 10             	add    %al,(%eax,%edx,1)
 8048a9e:	05 08 07 02 00       	add    $0x20708,%eax
 8048aa3:	00 08                	add    %cl,(%eax)
 8048aa5:	10 05 08 07 03 00    	adc    %al,0x30708
 8048aab:	00 0c 10             	add    %cl,(%eax,%edx,1)
 8048aae:	05 08 07 04 00       	add    $0x40708,%eax
 8048ab3:	00 10                	add    %dl,(%eax)
 8048ab5:	10 05 08 07 05 00    	adc    %al,0x50708
 8048abb:	00 14 10             	add    %dl,(%eax,%edx,1)
 8048abe:	05 08 07 06 00       	add    $0x60708,%eax
 8048ac3:	00 18                	add    %bl,(%eax)
 8048ac5:	10 05 08 07 07 00    	adc    %al,0x70708
 8048acb:	00 1c 10             	add    %bl,(%eax,%edx,1)
 8048ace:	05 08 07 08 00       	add    $0x80708,%eax
 8048ad3:	00 20                	add    %ah,(%eax)
 8048ad5:	10 05 08 07 09 00    	adc    %al,0x90708
 8048adb:	00 24 10             	add    %ah,(%eax,%edx,1)
 8048ade:	05 08 07 0a 00       	add    $0xa0708,%eax
 8048ae3:	00 28                	add    %ch,(%eax)
 8048ae5:	10 05 08 07 0b 00    	adc    %al,0xb0708
 8048aeb:	00 2c 10             	add    %ch,(%eax,%edx,1)
 8048aee:	05 08 07 0c 00       	add    $0xc0708,%eax
 8048af3:	00 30                	add    %dh,(%eax)
 8048af5:	10 05 08 07 0d 00    	adc    %al,0xd0708
 8048afb:	00 34 10             	add    %dh,(%eax,%edx,1)
 8048afe:	05 08 07 0e 00       	add    $0xe0708,%eax
 8048b03:	00 38                	add    %bh,(%eax)
 8048b05:	10 05 08 07 0f 00    	adc    %al,0xf0708
 8048b0b:	00 3c 10             	add    %bh,(%eax,%edx,1)
 8048b0e:	05 08 07 10 00       	add    $0x100708,%eax
 8048b13:	00 40 10             	add    %al,0x10(%eax)
 8048b16:	05 08 07 11 00       	add    $0x110708,%eax
 8048b1b:	00 44 10 05          	add    %al,0x5(%eax,%edx,1)
 8048b1f:	08 07                	or     %al,(%edi)
 8048b21:	12 00                	adc    (%eax),%al
 8048b23:	00 48 10             	add    %cl,0x10(%eax)
 8048b26:	05 08 07 13 00       	add    $0x130708,%eax
 8048b2b:	00 4c 10 05          	add    %cl,0x5(%eax,%edx,1)
 8048b2f:	08 07                	or     %al,(%edi)
 8048b31:	14 00                	adc    $0x0,%al
 8048b33:	00 50 10             	add    %dl,0x10(%eax)
 8048b36:	05 08 07 15 00       	add    $0x150708,%eax
 8048b3b:	00 54 10 05          	add    %dl,0x5(%eax,%edx,1)
 8048b3f:	08 07                	or     %al,(%edi)
 8048b41:	16                   	push   %ss
 8048b42:	00 00                	add    %al,(%eax)
 8048b44:	58                   	pop    %eax
 8048b45:	10 05 08 07 17 00    	adc    %al,0x170708
 8048b4b:	00 5c 10 05          	add    %bl,0x5(%eax,%edx,1)
 8048b4f:	08 07                	or     %al,(%edi)
 8048b51:	18 00                	sbb    %al,(%eax)
 8048b53:	00 60 10             	add    %ah,0x10(%eax)
 8048b56:	05 08 07 19 00       	add    $0x190708,%eax
 8048b5b:	00 64 10 05          	add    %ah,0x5(%eax,%edx,1)
 8048b5f:	08 07                	or     %al,(%edi)
 8048b61:	1a 00                	sbb    (%eax),%al
 8048b63:	00 68 10             	add    %ch,0x10(%eax)
 8048b66:	05 08 07 1b 00       	add    $0x1b0708,%eax
 8048b6b:	00 6c 10 05          	add    %ch,0x5(%eax,%edx,1)
 8048b6f:	08 07                	or     %al,(%edi)
 8048b71:	1c 00                	sbb    $0x0,%al
 8048b73:	00 70 10             	add    %dh,0x10(%eax)
 8048b76:	05 08 07 1d 00       	add    $0x1d0708,%eax
 8048b7b:	00 74 10 05          	add    %dh,0x5(%eax,%edx,1)
 8048b7f:	08 07                	or     %al,(%edi)
 8048b81:	1e                   	push   %ds
 8048b82:	00 00                	add    %al,(%eax)
 8048b84:	78 10                	js     8048b96 <_init-0xfe>
 8048b86:	05 08 07 1f 00       	add    $0x1f0708,%eax
 8048b8b:	00 7c 10 05          	add    %bh,0x5(%eax,%edx,1)
 8048b8f:	08 07                	or     %al,(%edi)
 8048b91:	20 00                	and    %al,(%eax)
 8048b93:	00 80 10 05 08 07    	add    %al,0x7080510(%eax)
 8048b99:	21 00                	and    %eax,(%eax)
 8048b9b:	00 84 10 05 08 07 22 	add    %al,0x22070805(%eax,%edx,1)
 8048ba2:	00 00                	add    %al,(%eax)
 8048ba4:	88 10                	mov    %dl,(%eax)
 8048ba6:	05 08 07 23 00       	add    $0x230708,%eax
 8048bab:	00 8c 10 05 08 07 24 	add    %cl,0x24070805(%eax,%edx,1)
 8048bb2:	00 00                	add    %al,(%eax)
 8048bb4:	90                   	nop
 8048bb5:	10 05 08 07 25 00    	adc    %al,0x250708
 8048bbb:	00 94 10 05 08 07 26 	add    %dl,0x26070805(%eax,%edx,1)
 8048bc2:	00 00                	add    %al,(%eax)
 8048bc4:	98                   	cwtl   
 8048bc5:	10 05 08 07 27 00    	adc    %al,0x270708
 8048bcb:	00 9c 10 05 08 07 28 	add    %bl,0x28070805(%eax,%edx,1)
 8048bd2:	00 00                	add    %al,(%eax)
 8048bd4:	a0 10 05 08 07       	mov    0x7080510,%al
 8048bd9:	29 00                	sub    %eax,(%eax)
 8048bdb:	00 a4 10 05 08 07 2a 	add    %ah,0x2a070805(%eax,%edx,1)
 8048be2:	00 00                	add    %al,(%eax)
 8048be4:	a8 10                	test   $0x10,%al
 8048be6:	05 08 07 2b 00       	add    $0x2b0708,%eax
 8048beb:	00 ac 10 05 08 07 2c 	add    %ch,0x2c070805(%eax,%edx,1)
 8048bf2:	00 00                	add    %al,(%eax)
 8048bf4:	b0 10                	mov    $0x10,%al
 8048bf6:	05 08 07 2d 00       	add    $0x2d0708,%eax
 8048bfb:	00 b4 10 05 08 07 2e 	add    %dh,0x2e070805(%eax,%edx,1)
 8048c02:	00 00                	add    %al,(%eax)
 8048c04:	b8 10 05 08 07       	mov    $0x7080510,%eax
 8048c09:	2f                   	das    
 8048c0a:	00 00                	add    %al,(%eax)
 8048c0c:	bc 10 05 08 07       	mov    $0x7080510,%esp
 8048c11:	30 00                	xor    %al,(%eax)
 8048c13:	00 c0                	add    %al,%al
 8048c15:	10 05 08 07 31 00    	adc    %al,0x310708
 8048c1b:	00 c4                	add    %al,%ah
 8048c1d:	10 05 08 07 32 00    	adc    %al,0x320708
 8048c23:	00 c8                	add    %cl,%al
 8048c25:	10 05 08 07 34 00    	adc    %al,0x340708
 8048c2b:	00 cc                	add    %cl,%ah
 8048c2d:	10 05 08 07 35 00    	adc    %al,0x350708
 8048c33:	00 d0                	add    %dl,%al
 8048c35:	10 05 08 07 36 00    	adc    %al,0x360708
 8048c3b:	00 d4                	add    %dl,%ah
 8048c3d:	10 05 08 07 37 00    	adc    %al,0x370708
 8048c43:	00 d8                	add    %bl,%al
 8048c45:	10 05 08 07 38 00    	adc    %al,0x380708
 8048c4b:	00 dc                	add    %bl,%ah
 8048c4d:	10 05 08 07 39 00    	adc    %al,0x390708
 8048c53:	00 e0                	add    %ah,%al
 8048c55:	10 05 08 07 3a 00    	adc    %al,0x3a0708
 8048c5b:	00 e4                	add    %ah,%ah
 8048c5d:	10 05 08 07 3b 00    	adc    %al,0x3b0708
 8048c63:	00 e8                	add    %ch,%al
 8048c65:	10 05 08 07 3c 00    	adc    %al,0x3c0708
 8048c6b:	00 ec                	add    %ch,%ah
 8048c6d:	10 05 08 07 3d 00    	adc    %al,0x3d0708
 8048c73:	00 f0                	add    %dh,%al
 8048c75:	10 05 08 07 3e 00    	adc    %al,0x3e0708
 8048c7b:	00 f4                	add    %dh,%ah
 8048c7d:	10 05 08 07 3f 00    	adc    %al,0x3f0708
 8048c83:	00 f8                	add    %bh,%al
 8048c85:	10 05 08 07 40 00    	adc    %al,0x400708
 8048c8b:	00 fc                	add    %bh,%ah
 8048c8d:	10 05 08 07 41 00    	adc    %al,0x410708
 8048c93:	00                   	.byte 0x0

Disassembly of section .init:

08048c94 <_init>:
 8048c94:	53                   	push   %ebx
 8048c95:	83 ec 08             	sub    $0x8,%esp
 8048c98:	e8 00 00 00 00       	call   8048c9d <_init+0x9>
 8048c9d:	5b                   	pop    %ebx
 8048c9e:	81 c3 57 83 00 00    	add    $0x8357,%ebx
 8048ca4:	8b 83 fc ff ff ff    	mov    -0x4(%ebx),%eax
 8048caa:	85 c0                	test   %eax,%eax
 8048cac:	74 05                	je     8048cb3 <_init+0x1f>
 8048cae:	e8 ad 01 00 00       	call   8048e60 <__gmon_start__@plt>
 8048cb3:	e8 b8 04 00 00       	call   8049170 <frame_dummy>
 8048cb8:	e8 83 4c 00 00       	call   804d940 <__do_global_ctors_aux>
 8048cbd:	83 c4 08             	add    $0x8,%esp
 8048cc0:	5b                   	pop    %ebx
 8048cc1:	c3                   	ret    

Disassembly of section .plt:

08048cd0 <pthread_mutex_unlock@plt-0x10>:
 8048cd0:	ff 35 f8 0f 05 08    	pushl  0x8050ff8
 8048cd6:	ff 25 fc 0f 05 08    	jmp    *0x8050ffc
 8048cdc:	00 00                	add    %al,(%eax)
 8048cde:	00 00                	add    %al,(%eax)

08048ce0 <pthread_mutex_unlock@plt>:
 8048ce0:	ff 25 00 10 05 08    	jmp    *0x8051000
 8048ce6:	68 00 00 00 00       	push   $0x0
 8048ceb:	e9 e0 ff ff ff       	jmp    8048cd0 <_init+0x3c>

08048cf0 <strcmp@plt>:
 8048cf0:	ff 25 04 10 05 08    	jmp    *0x8051004
 8048cf6:	68 08 00 00 00       	push   $0x8
 8048cfb:	e9 d0 ff ff ff       	jmp    8048cd0 <_init+0x3c>

08048d00 <read@plt>:
 8048d00:	ff 25 08 10 05 08    	jmp    *0x8051008
 8048d06:	68 10 00 00 00       	push   $0x10
 8048d0b:	e9 c0 ff ff ff       	jmp    8048cd0 <_init+0x3c>

08048d10 <fflush@plt>:
 8048d10:	ff 25 0c 10 05 08    	jmp    *0x805100c
 8048d16:	68 18 00 00 00       	push   $0x18
 8048d1b:	e9 b0 ff ff ff       	jmp    8048cd0 <_init+0x3c>

08048d20 <sigprocmask@plt>:
 8048d20:	ff 25 10 10 05 08    	jmp    *0x8051010
 8048d26:	68 20 00 00 00       	push   $0x20
 8048d2b:	e9 a0 ff ff ff       	jmp    8048cd0 <_init+0x3c>

08048d30 <free@plt>:
 8048d30:	ff 25 14 10 05 08    	jmp    *0x8051014
 8048d36:	68 28 00 00 00       	push   $0x28
 8048d3b:	e9 90 ff ff ff       	jmp    8048cd0 <_init+0x3c>

08048d40 <fgets@plt>:
 8048d40:	ff 25 18 10 05 08    	jmp    *0x8051018
 8048d46:	68 30 00 00 00       	push   $0x30
 8048d4b:	e9 80 ff ff ff       	jmp    8048cd0 <_init+0x3c>

08048d50 <fclose@plt>:
 8048d50:	ff 25 1c 10 05 08    	jmp    *0x805101c
 8048d56:	68 38 00 00 00       	push   $0x38
 8048d5b:	e9 70 ff ff ff       	jmp    8048cd0 <_init+0x3c>

08048d60 <time@plt>:
 8048d60:	ff 25 20 10 05 08    	jmp    *0x8051020
 8048d66:	68 40 00 00 00       	push   $0x40
 8048d6b:	e9 60 ff ff ff       	jmp    8048cd0 <_init+0x3c>

08048d70 <pthread_cond_wait@plt>:
 8048d70:	ff 25 24 10 05 08    	jmp    *0x8051024
 8048d76:	68 48 00 00 00       	push   $0x48
 8048d7b:	e9 50 ff ff ff       	jmp    8048cd0 <_init+0x3c>

08048d80 <sleep@plt>:
 8048d80:	ff 25 28 10 05 08    	jmp    *0x8051028
 8048d86:	68 50 00 00 00       	push   $0x50
 8048d8b:	e9 40 ff ff ff       	jmp    8048cd0 <_init+0x3c>

08048d90 <select@plt>:
 8048d90:	ff 25 2c 10 05 08    	jmp    *0x805102c
 8048d96:	68 58 00 00 00       	push   $0x58
 8048d9b:	e9 30 ff ff ff       	jmp    8048cd0 <_init+0x3c>

08048da0 <chdir@plt>:
 8048da0:	ff 25 30 10 05 08    	jmp    *0x8051030
 8048da6:	68 60 00 00 00       	push   $0x60
 8048dab:	e9 20 ff ff ff       	jmp    8048cd0 <_init+0x3c>

08048db0 <__stack_chk_fail@plt>:
 8048db0:	ff 25 34 10 05 08    	jmp    *0x8051034
 8048db6:	68 68 00 00 00       	push   $0x68
 8048dbb:	e9 10 ff ff ff       	jmp    8048cd0 <_init+0x3c>

08048dc0 <__fdelt_chk@plt>:
 8048dc0:	ff 25 38 10 05 08    	jmp    *0x8051038
 8048dc6:	68 70 00 00 00       	push   $0x70
 8048dcb:	e9 00 ff ff ff       	jmp    8048cd0 <_init+0x3c>

08048dd0 <pthread_mutex_lock@plt>:
 8048dd0:	ff 25 3c 10 05 08    	jmp    *0x805103c
 8048dd6:	68 78 00 00 00       	push   $0x78
 8048ddb:	e9 f0 fe ff ff       	jmp    8048cd0 <_init+0x3c>

08048de0 <unlink@plt>:
 8048de0:	ff 25 40 10 05 08    	jmp    *0x8051040
 8048de6:	68 80 00 00 00       	push   $0x80
 8048deb:	e9 e0 fe ff ff       	jmp    8048cd0 <_init+0x3c>

08048df0 <perror@plt>:
 8048df0:	ff 25 44 10 05 08    	jmp    *0x8051044
 8048df6:	68 88 00 00 00       	push   $0x88
 8048dfb:	e9 d0 fe ff ff       	jmp    8048cd0 <_init+0x3c>

08048e00 <accept@plt>:
 8048e00:	ff 25 48 10 05 08    	jmp    *0x8051048
 8048e06:	68 90 00 00 00       	push   $0x90
 8048e0b:	e9 c0 fe ff ff       	jmp    8048cd0 <_init+0x3c>

08048e10 <fwrite@plt>:
 8048e10:	ff 25 4c 10 05 08    	jmp    *0x805104c
 8048e16:	68 98 00 00 00       	push   $0x98
 8048e1b:	e9 b0 fe ff ff       	jmp    8048cd0 <_init+0x3c>

08048e20 <getpid@plt>:
 8048e20:	ff 25 50 10 05 08    	jmp    *0x8051050
 8048e26:	68 a0 00 00 00       	push   $0xa0
 8048e2b:	e9 a0 fe ff ff       	jmp    8048cd0 <_init+0x3c>

08048e30 <pthread_cond_signal@plt>:
 8048e30:	ff 25 54 10 05 08    	jmp    *0x8051054
 8048e36:	68 a8 00 00 00       	push   $0xa8
 8048e3b:	e9 90 fe ff ff       	jmp    8048cd0 <_init+0x3c>

08048e40 <malloc@plt>:
 8048e40:	ff 25 58 10 05 08    	jmp    *0x8051058
 8048e46:	68 b0 00 00 00       	push   $0xb0
 8048e4b:	e9 80 fe ff ff       	jmp    8048cd0 <_init+0x3c>

08048e50 <puts@plt>:
 8048e50:	ff 25 5c 10 05 08    	jmp    *0x805105c
 8048e56:	68 b8 00 00 00       	push   $0xb8
 8048e5b:	e9 70 fe ff ff       	jmp    8048cd0 <_init+0x3c>

08048e60 <__gmon_start__@plt>:
 8048e60:	ff 25 60 10 05 08    	jmp    *0x8051060
 8048e66:	68 c0 00 00 00       	push   $0xc0
 8048e6b:	e9 60 fe ff ff       	jmp    8048cd0 <_init+0x3c>

08048e70 <exit@plt>:
 8048e70:	ff 25 64 10 05 08    	jmp    *0x8051064
 8048e76:	68 c8 00 00 00       	push   $0xc8
 8048e7b:	e9 50 fe ff ff       	jmp    8048cd0 <_init+0x3c>

08048e80 <kill@plt>:
 8048e80:	ff 25 68 10 05 08    	jmp    *0x8051068
 8048e86:	68 d0 00 00 00       	push   $0xd0
 8048e8b:	e9 40 fe ff ff       	jmp    8048cd0 <_init+0x3c>

08048e90 <open@plt>:
 8048e90:	ff 25 6c 10 05 08    	jmp    *0x805106c
 8048e96:	68 d8 00 00 00       	push   $0xd8
 8048e9b:	e9 30 fe ff ff       	jmp    8048cd0 <_init+0x3c>

08048ea0 <strftime@plt>:
 8048ea0:	ff 25 70 10 05 08    	jmp    *0x8051070
 8048ea6:	68 e0 00 00 00       	push   $0xe0
 8048eab:	e9 20 fe ff ff       	jmp    8048cd0 <_init+0x3c>

08048eb0 <localtime@plt>:
 8048eb0:	ff 25 74 10 05 08    	jmp    *0x8051074
 8048eb6:	68 e8 00 00 00       	push   $0xe8
 8048ebb:	e9 10 fe ff ff       	jmp    8048cd0 <_init+0x3c>

08048ec0 <strtoul@plt>:
 8048ec0:	ff 25 78 10 05 08    	jmp    *0x8051078
 8048ec6:	68 f0 00 00 00       	push   $0xf0
 8048ecb:	e9 00 fe ff ff       	jmp    8048cd0 <_init+0x3c>

08048ed0 <strchr@plt>:
 8048ed0:	ff 25 7c 10 05 08    	jmp    *0x805107c
 8048ed6:	68 f8 00 00 00       	push   $0xf8
 8048edb:	e9 f0 fd ff ff       	jmp    8048cd0 <_init+0x3c>

08048ee0 <__libc_start_main@plt>:
 8048ee0:	ff 25 80 10 05 08    	jmp    *0x8051080
 8048ee6:	68 00 01 00 00       	push   $0x100
 8048eeb:	e9 e0 fd ff ff       	jmp    8048cd0 <_init+0x3c>

08048ef0 <write@plt>:
 8048ef0:	ff 25 84 10 05 08    	jmp    *0x8051084
 8048ef6:	68 08 01 00 00       	push   $0x108
 8048efb:	e9 d0 fd ff ff       	jmp    8048cd0 <_init+0x3c>

08048f00 <getopt@plt>:
 8048f00:	ff 25 88 10 05 08    	jmp    *0x8051088
 8048f06:	68 10 01 00 00       	push   $0x110
 8048f0b:	e9 c0 fd ff ff       	jmp    8048cd0 <_init+0x3c>

08048f10 <sigaddset@plt>:
 8048f10:	ff 25 8c 10 05 08    	jmp    *0x805108c
 8048f16:	68 18 01 00 00       	push   $0x118
 8048f1b:	e9 b0 fd ff ff       	jmp    8048cd0 <_init+0x3c>

08048f20 <bind@plt>:
 8048f20:	ff 25 90 10 05 08    	jmp    *0x8051090
 8048f26:	68 20 01 00 00       	push   $0x120
 8048f2b:	e9 a0 fd ff ff       	jmp    8048cd0 <_init+0x3c>

08048f30 <__isoc99_sscanf@plt>:
 8048f30:	ff 25 94 10 05 08    	jmp    *0x8051094
 8048f36:	68 28 01 00 00       	push   $0x128
 8048f3b:	e9 90 fd ff ff       	jmp    8048cd0 <_init+0x3c>

08048f40 <fopen@plt>:
 8048f40:	ff 25 98 10 05 08    	jmp    *0x8051098
 8048f46:	68 30 01 00 00       	push   $0x130
 8048f4b:	e9 80 fd ff ff       	jmp    8048cd0 <_init+0x3c>

08048f50 <putchar@plt>:
 8048f50:	ff 25 9c 10 05 08    	jmp    *0x805109c
 8048f56:	68 38 01 00 00       	push   $0x138
 8048f5b:	e9 70 fd ff ff       	jmp    8048cd0 <_init+0x3c>

08048f60 <pthread_cancel@plt>:
 8048f60:	ff 25 a0 10 05 08    	jmp    *0x80510a0
 8048f66:	68 40 01 00 00       	push   $0x140
 8048f6b:	e9 60 fd ff ff       	jmp    8048cd0 <_init+0x3c>

08048f70 <strncpy@plt>:
 8048f70:	ff 25 a4 10 05 08    	jmp    *0x80510a4
 8048f76:	68 48 01 00 00       	push   $0x148
 8048f7b:	e9 50 fd ff ff       	jmp    8048cd0 <_init+0x3c>

08048f80 <strncasecmp@plt>:
 8048f80:	ff 25 a8 10 05 08    	jmp    *0x80510a8
 8048f86:	68 50 01 00 00       	push   $0x150
 8048f8b:	e9 40 fd ff ff       	jmp    8048cd0 <_init+0x3c>

08048f90 <__strcpy_chk@plt>:
 8048f90:	ff 25 ac 10 05 08    	jmp    *0x80510ac
 8048f96:	68 58 01 00 00       	push   $0x158
 8048f9b:	e9 30 fd ff ff       	jmp    8048cd0 <_init+0x3c>

08048fa0 <pthread_exit@plt>:
 8048fa0:	ff 25 b0 10 05 08    	jmp    *0x80510b0
 8048fa6:	68 60 01 00 00       	push   $0x160
 8048fab:	e9 20 fd ff ff       	jmp    8048cd0 <_init+0x3c>

08048fb0 <__printf_chk@plt>:
 8048fb0:	ff 25 b4 10 05 08    	jmp    *0x80510b4
 8048fb6:	68 68 01 00 00       	push   $0x168
 8048fbb:	e9 10 fd ff ff       	jmp    8048cd0 <_init+0x3c>

08048fc0 <sigemptyset@plt>:
 8048fc0:	ff 25 b8 10 05 08    	jmp    *0x80510b8
 8048fc6:	68 70 01 00 00       	push   $0x170
 8048fcb:	e9 00 fd ff ff       	jmp    8048cd0 <_init+0x3c>

08048fd0 <listen@plt>:
 8048fd0:	ff 25 bc 10 05 08    	jmp    *0x80510bc
 8048fd6:	68 78 01 00 00       	push   $0x178
 8048fdb:	e9 f0 fc ff ff       	jmp    8048cd0 <_init+0x3c>

08048fe0 <strrchr@plt>:
 8048fe0:	ff 25 c0 10 05 08    	jmp    *0x80510c0
 8048fe6:	68 80 01 00 00       	push   $0x180
 8048feb:	e9 e0 fc ff ff       	jmp    8048cd0 <_init+0x3c>

08048ff0 <fputc@plt>:
 8048ff0:	ff 25 c4 10 05 08    	jmp    *0x80510c4
 8048ff6:	68 88 01 00 00       	push   $0x188
 8048ffb:	e9 d0 fc ff ff       	jmp    8048cd0 <_init+0x3c>

08049000 <pthread_join@plt>:
 8049000:	ff 25 c8 10 05 08    	jmp    *0x80510c8
 8049006:	68 90 01 00 00       	push   $0x190
 804900b:	e9 c0 fc ff ff       	jmp    8048cd0 <_init+0x3c>

08049010 <getppid@plt>:
 8049010:	ff 25 cc 10 05 08    	jmp    *0x80510cc
 8049016:	68 98 01 00 00       	push   $0x198
 804901b:	e9 b0 fc ff ff       	jmp    8048cd0 <_init+0x3c>

08049020 <inet_ntop@plt>:
 8049020:	ff 25 d0 10 05 08    	jmp    *0x80510d0
 8049026:	68 a0 01 00 00       	push   $0x1a0
 804902b:	e9 a0 fc ff ff       	jmp    8048cd0 <_init+0x3c>

08049030 <socket@plt>:
 8049030:	ff 25 d4 10 05 08    	jmp    *0x80510d4
 8049036:	68 a8 01 00 00       	push   $0x1a8
 804903b:	e9 90 fc ff ff       	jmp    8048cd0 <_init+0x3c>

08049040 <__fprintf_chk@plt>:
 8049040:	ff 25 d8 10 05 08    	jmp    *0x80510d8
 8049046:	68 b0 01 00 00       	push   $0x1b0
 804904b:	e9 80 fc ff ff       	jmp    8048cd0 <_init+0x3c>

08049050 <pthread_create@plt>:
 8049050:	ff 25 dc 10 05 08    	jmp    *0x80510dc
 8049056:	68 b8 01 00 00       	push   $0x1b8
 804905b:	e9 70 fc ff ff       	jmp    8048cd0 <_init+0x3c>

08049060 <sigaction@plt>:
 8049060:	ff 25 e0 10 05 08    	jmp    *0x80510e0
 8049066:	68 c0 01 00 00       	push   $0x1c0
 804906b:	e9 60 fc ff ff       	jmp    8048cd0 <_init+0x3c>

08049070 <umask@plt>:
 8049070:	ff 25 e4 10 05 08    	jmp    *0x80510e4
 8049076:	68 c8 01 00 00       	push   $0x1c8
 804907b:	e9 50 fc ff ff       	jmp    8048cd0 <_init+0x3c>

08049080 <strtol@plt>:
 8049080:	ff 25 e8 10 05 08    	jmp    *0x80510e8
 8049086:	68 d0 01 00 00       	push   $0x1d0
 804908b:	e9 40 fc ff ff       	jmp    8048cd0 <_init+0x3c>

08049090 <fputs@plt>:
 8049090:	ff 25 ec 10 05 08    	jmp    *0x80510ec
 8049096:	68 d8 01 00 00       	push   $0x1d8
 804909b:	e9 30 fc ff ff       	jmp    8048cd0 <_init+0x3c>

080490a0 <close@plt>:
 80490a0:	ff 25 f0 10 05 08    	jmp    *0x80510f0
 80490a6:	68 e0 01 00 00       	push   $0x1e0
 80490ab:	e9 20 fc ff ff       	jmp    8048cd0 <_init+0x3c>

080490b0 <mkfifo@plt>:
 80490b0:	ff 25 f4 10 05 08    	jmp    *0x80510f4
 80490b6:	68 e8 01 00 00       	push   $0x1e8
 80490bb:	e9 10 fc ff ff       	jmp    8048cd0 <_init+0x3c>

080490c0 <__ctype_b_loc@plt>:
 80490c0:	ff 25 f8 10 05 08    	jmp    *0x80510f8
 80490c6:	68 f0 01 00 00       	push   $0x1f0
 80490cb:	e9 00 fc ff ff       	jmp    8048cd0 <_init+0x3c>

080490d0 <__sprintf_chk@plt>:
 80490d0:	ff 25 fc 10 05 08    	jmp    *0x80510fc
 80490d6:	68 f8 01 00 00       	push   $0x1f8
 80490db:	e9 f0 fb ff ff       	jmp    8048cd0 <_init+0x3c>

Disassembly of section .text:

080490e0 <_start>:
 80490e0:	31 ed                	xor    %ebp,%ebp
 80490e2:	5e                   	pop    %esi
 80490e3:	89 e1                	mov    %esp,%ecx
 80490e5:	83 e4 f0             	and    $0xfffffff0,%esp
 80490e8:	50                   	push   %eax
 80490e9:	54                   	push   %esp
 80490ea:	52                   	push   %edx
 80490eb:	68 30 d9 04 08       	push   $0x804d930
 80490f0:	68 c0 d8 04 08       	push   $0x804d8c0
 80490f5:	51                   	push   %ecx
 80490f6:	56                   	push   %esi
 80490f7:	68 8d 95 04 08       	push   $0x804958d
 80490fc:	e8 df fd ff ff       	call   8048ee0 <__libc_start_main@plt>
 8049101:	f4                   	hlt    
 8049102:	90                   	nop
 8049103:	90                   	nop
 8049104:	90                   	nop
 8049105:	90                   	nop
 8049106:	90                   	nop
 8049107:	90                   	nop
 8049108:	90                   	nop
 8049109:	90                   	nop
 804910a:	90                   	nop
 804910b:	90                   	nop
 804910c:	90                   	nop
 804910d:	90                   	nop
 804910e:	90                   	nop
 804910f:	90                   	nop

08049110 <__do_global_dtors_aux>:
 8049110:	55                   	push   %ebp
 8049111:	89 e5                	mov    %esp,%ebp
 8049113:	53                   	push   %ebx
 8049114:	83 ec 04             	sub    $0x4,%esp
 8049117:	80 3d 68 13 05 08 00 	cmpb   $0x0,0x8051368
 804911e:	75 3f                	jne    804915f <__do_global_dtors_aux+0x4f>
 8049120:	a1 6c 13 05 08       	mov    0x805136c,%eax
 8049125:	bb 18 0f 05 08       	mov    $0x8050f18,%ebx
 804912a:	81 eb 14 0f 05 08    	sub    $0x8050f14,%ebx
 8049130:	c1 fb 02             	sar    $0x2,%ebx
 8049133:	83 eb 01             	sub    $0x1,%ebx
 8049136:	39 d8                	cmp    %ebx,%eax
 8049138:	73 1e                	jae    8049158 <__do_global_dtors_aux+0x48>
 804913a:	8d b6 00 00 00 00    	lea    0x0(%esi),%esi
 8049140:	83 c0 01             	add    $0x1,%eax
 8049143:	a3 6c 13 05 08       	mov    %eax,0x805136c
 8049148:	ff 14 85 14 0f 05 08 	call   *0x8050f14(,%eax,4)
 804914f:	a1 6c 13 05 08       	mov    0x805136c,%eax
 8049154:	39 d8                	cmp    %ebx,%eax
 8049156:	72 e8                	jb     8049140 <__do_global_dtors_aux+0x30>
 8049158:	c6 05 68 13 05 08 01 	movb   $0x1,0x8051368
 804915f:	83 c4 04             	add    $0x4,%esp
 8049162:	5b                   	pop    %ebx
 8049163:	5d                   	pop    %ebp
 8049164:	c3                   	ret    
 8049165:	8d 74 26 00          	lea    0x0(%esi,%eiz,1),%esi
 8049169:	8d bc 27 00 00 00 00 	lea    0x0(%edi,%eiz,1),%edi

08049170 <frame_dummy>:
 8049170:	55                   	push   %ebp
 8049171:	89 e5                	mov    %esp,%ebp
 8049173:	83 ec 18             	sub    $0x18,%esp
 8049176:	a1 1c 0f 05 08       	mov    0x8050f1c,%eax
 804917b:	85 c0                	test   %eax,%eax
 804917d:	74 12                	je     8049191 <frame_dummy+0x21>
 804917f:	b8 00 00 00 00       	mov    $0x0,%eax
 8049184:	85 c0                	test   %eax,%eax
 8049186:	74 09                	je     8049191 <frame_dummy+0x21>
 8049188:	c7 04 24 1c 0f 05 08 	movl   $0x8050f1c,(%esp)
 804918f:	ff d0                	call   *%eax
 8049191:	c9                   	leave  
 8049192:	c3                   	ret    
 8049193:	90                   	nop
 8049194:	90                   	nop
 8049195:	90                   	nop
 8049196:	90                   	nop
 8049197:	90                   	nop
 8049198:	90                   	nop
 8049199:	90                   	nop
 804919a:	90                   	nop
 804919b:	90                   	nop
 804919c:	90                   	nop
 804919d:	90                   	nop
 804919e:	90                   	nop
 804919f:	90                   	nop

080491a0 <app_extract_fname>:
 80491a0:	53                   	push   %ebx
 80491a1:	83 ec 18             	sub    $0x18,%esp
 80491a4:	8b 5c 24 20          	mov    0x20(%esp),%ebx
 80491a8:	c7 44 24 04 2f 00 00 00 	movl   $0x2f,0x4(%esp)
 80491b0:	89 1c 24             	mov    %ebx,(%esp)
 80491b3:	e8 28 fe ff ff       	call   8048fe0 <strrchr@plt>
 80491b8:	8d 50 01             	lea    0x1(%eax),%edx
 80491bb:	85 c0                	test   %eax,%eax
 80491bd:	89 d0                	mov    %edx,%eax
 80491bf:	0f 44 c3             	cmove  %ebx,%eax
 80491c2:	83 c4 18             	add    $0x18,%esp
 80491c5:	5b                   	pop    %ebx
 80491c6:	c3                   	ret    

080491c7 <app_cleanup>:
 80491c7:	83 ec 1c             	sub    $0x1c,%esp
 80491ca:	c7 04 24 a8 d9 04 08 	movl   $0x804d9a8,(%esp)
 80491d1:	e8 7a fc ff ff       	call   8048e50 <puts@plt>
 80491d6:	e8 63 27 00 00       	call   804b93e <server_stop>
 80491db:	e8 ee 32 00 00       	call   804c4ce <tasks_stop>
 80491e0:	e8 a1 14 00 00       	call   804a686 <ctrl_stop>
 80491e5:	a1 68 11 05 08       	mov    0x8051168,%eax
 80491ea:	89 04 24             	mov    %eax,(%esp)
 80491ed:	e8 ee fb ff ff       	call   8048de0 <unlink@plt>
 80491f2:	83 c4 1c             	add    $0x1c,%esp
 80491f5:	c3                   	ret    

080491f6 <app_termination_handler>:
 80491f6:	83 ec 1c             	sub    $0x1c,%esp
 80491f9:	8b 44 24 20          	mov    0x20(%esp),%eax
 80491fd:	89 44 24 08          	mov    %eax,0x8(%esp)
 8049201:	c7 44 24 04 b2 d9 04 08 	movl   $0x804d9b2,0x4(%esp)
 8049209:	c7 04 24 01 00 00 00 	movl   $0x1,(%esp)
 8049210:	e8 9b fd ff ff       	call   8048fb0 <__printf_chk@plt>
 8049215:	e8 ad ff ff ff       	call   80491c7 <app_cleanup>
 804921a:	c7 04 24 03 00 00 00 	movl   $0x3,(%esp)
 8049221:	e8 4a fc ff ff       	call   8048e70 <exit@plt>

08049226 <app_system_init>:
 8049226:	56                   	push   %esi
 8049227:	53                   	push   %ebx
 8049228:	81 ec f4 00 00 00    	sub    $0xf4,%esp
 804922e:	65 a1 14 00 00 00    	mov    %gs:0x14,%eax
 8049234:	89 84 24 ec 00 00 00 	mov    %eax,0xec(%esp)
 804923b:	31 c0                	xor    %eax,%eax
 804923d:	c7 04 24 c0 d9 04 08 	movl   $0x804d9c0,(%esp)
 8049244:	e8 57 fb ff ff       	call   8048da0 <chdir@plt>
 8049249:	c7 04 24 00 00 00 00 	movl   $0x0,(%esp)
 8049250:	e8 1b fe ff ff       	call   8049070 <umask@plt>
 8049255:	e8 c6 fb ff ff       	call   8048e20 <getpid@plt>
 804925a:	a3 00 15 05 08       	mov    %eax,0x8051500
 804925f:	c7 44 24 0c ef db 04 08 	movl   $0x804dbef,0xc(%esp)
 8049267:	c7 44 24 08 c5 d9 04 08 	movl   $0x804d9c5,0x8(%esp)
 804926f:	c7 44 24 04 01 00 00 00 	movl   $0x1,0x4(%esp)
 8049277:	a1 40 13 05 08       	mov    0x8051340,%eax
 804927c:	89 04 24             	mov    %eax,(%esp)
 804927f:	e8 bc fd ff ff       	call   8049040 <__fprintf_chk@plt>
 8049284:	a1 40 13 05 08       	mov    0x8051340,%eax
 8049289:	89 44 24 0c          	mov    %eax,0xc(%esp)
 804928d:	c7 44 24 08 07 00 00 00 	movl   $0x7,0x8(%esp)
 8049295:	c7 44 24 04 01 00 00 00 	movl   $0x1,0x4(%esp)
 804929d:	c7 04 24 ca d9 04 08 	movl   $0x804d9ca,(%esp)
 80492a4:	e8 67 fb ff ff       	call   8048e10 <fwrite@plt>
 80492a9:	a1 00 15 05 08       	mov    0x8051500,%eax
 80492ae:	89 44 24 0c          	mov    %eax,0xc(%esp)
 80492b2:	c7 44 24 08 3a dd 04 08 	movl   $0x804dd3a,0x8(%esp)
 80492ba:	c7 44 24 04 01 00 00 00 	movl   $0x1,0x4(%esp)
 80492c2:	a1 40 13 05 08       	mov    0x8051340,%eax
 80492c7:	89 04 24             	mov    %eax,(%esp)
 80492ca:	e8 71 fd ff ff       	call   8049040 <__fprintf_chk@plt>
 80492cf:	a1 40 13 05 08       	mov    0x8051340,%eax
 80492d4:	89 44 24 04          	mov    %eax,0x4(%esp)
 80492d8:	c7 04 24 0a 00 00 00 	movl   $0xa,(%esp)
 80492df:	e8 0c fd ff ff       	call   8048ff0 <fputc@plt>
 80492e4:	c7 44 24 08 a4 01 00 00 	movl   $0x1a4,0x8(%esp)
 80492ec:	c7 44 24 04 41 00 00 00 	movl   $0x41,0x4(%esp)
 80492f4:	a1 68 11 05 08       	mov    0x8051168,%eax
 80492f9:	89 04 24             	mov    %eax,(%esp)
 80492fc:	e8 8f fb ff ff       	call   8048e90 <open@plt>
 8049301:	89 c3                	mov    %eax,%ebx
 8049303:	85 c0                	test   %eax,%eax
 8049305:	0f 89 8f 00 00 00    	jns    804939a <app_system_init+0x174>
 804930b:	c7 44 24 0c ef db 04 08 	movl   $0x804dbef,0xc(%esp)
 8049313:	c7 44 24 08 c5 d9 04 08 	movl   $0x804d9c5,0x8(%esp)
 804931b:	c7 44 24 04 01 00 00 00 	movl   $0x1,0x4(%esp)
 8049323:	a1 40 13 05 08       	mov    0x8051340,%eax
 8049328:	89 04 24             	mov    %eax,(%esp)
 804932b:	e8 10 fd ff ff       	call   8049040 <__fprintf_chk@plt>
 8049330:	a1 40 13 05 08       	mov    0x8051340,%eax
 8049335:	89 44 24 0c          	mov    %eax,0xc(%esp)
 8049339:	c7 44 24 08 09 00 00 00 	movl   $0x9,0x8(%esp)
 8049341:	c7 44 24 04 01 00 00 00 	movl   $0x1,0x4(%esp)
 8049349:	c7 04 24 d2 d9 04 08 	movl   $0x804d9d2,(%esp)
 8049350:	e8 bb fa ff ff       	call   8048e10 <fwrite@plt>
 8049355:	a1 68 11 05 08       	mov    0x8051168,%eax
 804935a:	89 44 24 0c          	mov    %eax,0xc(%esp)
 804935e:	c7 44 24 08 dc d9 04 08 	movl   $0x804d9dc,0x8(%esp)
 8049366:	c7 44 24 04 01 00 00 00 	movl   $0x1,0x4(%esp)
 804936e:	a1 40 13 05 08       	mov    0x8051340,%eax
 8049373:	89 04 24             	mov    %eax,(%esp)
 8049376:	e8 c5 fc ff ff       	call   8049040 <__fprintf_chk@plt>
 804937b:	a1 40 13 05 08       	mov    0x8051340,%eax
 8049380:	89 44 24 04          	mov    %eax,0x4(%esp)
 8049384:	c7 04 24 0a 00 00 00 	movl   $0xa,(%esp)
 804938b:	e8 60 fc ff ff       	call   8048ff0 <fputc@plt>
 8049390:	b8 fe ff ff ff       	mov    $0xfffffffe,%eax
 8049395:	e9 fe 00 00 00       	jmp    8049498 <app_system_init+0x272>
 804939a:	a1 00 15 05 08       	mov    0x8051500,%eax
 804939f:	89 44 24 10          	mov    %eax,0x10(%esp)
 80493a3:	c7 44 24 0c 3f dd 04 08 	movl   $0x804dd3f,0xc(%esp)
 80493ab:	c7 44 24 08 40 00 00 00 	movl   $0x40,0x8(%esp)
 80493b3:	c7 44 24 04 01 00 00 00 	movl   $0x1,0x4(%esp)
 80493bb:	8d b4 24 ac 00 00 00 	lea    0xac(%esp),%esi
 80493c2:	89 34 24             	mov    %esi,(%esp)
 80493c5:	e8 06 fd ff ff       	call   80490d0 <__sprintf_chk@plt>
 80493ca:	89 44 24 08          	mov    %eax,0x8(%esp)
 80493ce:	89 74 24 04          	mov    %esi,0x4(%esp)
 80493d2:	89 1c 24             	mov    %ebx,(%esp)
 80493d5:	e8 16 fb ff ff       	call   8048ef0 <write@plt>
 80493da:	85 c0                	test   %eax,%eax
 80493dc:	7f 12                	jg     80493f0 <app_system_init+0x1ca>
 80493de:	89 1c 24             	mov    %ebx,(%esp)
 80493e1:	e8 ba fc ff ff       	call   80490a0 <close@plt>
 80493e6:	b8 fd ff ff ff       	mov    $0xfffffffd,%eax
 80493eb:	e9 a8 00 00 00       	jmp    8049498 <app_system_init+0x272>
 80493f0:	89 1c 24             	mov    %ebx,(%esp)
 80493f3:	e8 a8 fc ff ff       	call   80490a0 <close@plt>
 80493f8:	c7 44 24 20 f6 91 04 08 	movl   $0x80491f6,0x20(%esp)
 8049400:	8d 5c 24 20          	lea    0x20(%esp),%ebx
 8049404:	8d 44 24 24          	lea    0x24(%esp),%eax
 8049408:	89 04 24             	mov    %eax,(%esp)
 804940b:	e8 b0 fb ff ff       	call   8048fc0 <sigemptyset@plt>
 8049410:	c7 84 24 a4 00 00 00 00 00 00 00 	movl   $0x0,0xa4(%esp)
 804941b:	c7 44 24 08 00 00 00 00 	movl   $0x0,0x8(%esp)
 8049423:	89 5c 24 04          	mov    %ebx,0x4(%esp)
 8049427:	c7 04 24 02 00 00 00 	movl   $0x2,(%esp)
 804942e:	e8 2d fc ff ff       	call   8049060 <sigaction@plt>
 8049433:	c7 44 24 08 00 00 00 00 	movl   $0x0,0x8(%esp)
 804943b:	89 5c 24 04          	mov    %ebx,0x4(%esp)
 804943f:	c7 04 24 0f 00 00 00 	movl   $0xf,(%esp)
 8049446:	e8 15 fc ff ff       	call   8049060 <sigaction@plt>
 804944b:	c7 44 24 08 00 00 00 00 	movl   $0x0,0x8(%esp)
 8049453:	89 5c 24 04          	mov    %ebx,0x4(%esp)
 8049457:	c7 04 24 03 00 00 00 	movl   $0x3,(%esp)
 804945e:	e8 fd fb ff ff       	call   8049060 <sigaction@plt>
 8049463:	c7 44 24 08 00 00 00 00 	movl   $0x0,0x8(%esp)
 804946b:	89 5c 24 04          	mov    %ebx,0x4(%esp)
 804946f:	c7 04 24 06 00 00 00 	movl   $0x6,(%esp)
 8049476:	e8 e5 fb ff ff       	call   8049060 <sigaction@plt>
 804947b:	c7 44 24 08 00 00 00 00 	movl   $0x0,0x8(%esp)
 8049483:	89 5c 24 04          	mov    %ebx,0x4(%esp)
 8049487:	c7 04 24 01 00 00 00 	movl   $0x1,(%esp)
 804948e:	e8 cd fb ff ff       	call   8049060 <sigaction@plt>
 8049493:	b8 00 00 00 00       	mov    $0x0,%eax
 8049498:	8b 94 24 ec 00 00 00 	mov    0xec(%esp),%edx
 804949f:	65 33 15 14 00 00 00 	xor    %gs:0x14,%edx
 80494a6:	74 05                	je     80494ad <app_system_init+0x287>
 80494a8:	e8 03 f9 ff ff       	call   8048db0 <__stack_chk_fail@plt>
 80494ad:	81 c4 f4 00 00 00    	add    $0xf4,%esp
 80494b3:	5b                   	pop    %ebx
 80494b4:	5e                   	pop    %esi
 80494b5:	c3                   	ret    

080494b6 <app_system_load_config>:
 80494b6:	83 ec 1c             	sub    $0x1c,%esp
 80494b9:	c7 44 24 0c ff db 04 08 	movl   $0x804dbff,0xc(%esp)
 80494c1:	c7 44 24 08 c5 d9 04 08 	movl   $0x804d9c5,0x8(%esp)
 80494c9:	c7 44 24 04 01 00 00 00 	movl   $0x1,0x4(%esp)
 80494d1:	a1 40 13 05 08       	mov    0x8051340,%eax
 80494d6:	89 04 24             	mov    %eax,(%esp)
 80494d9:	e8 62 fb ff ff       	call   8049040 <__fprintf_chk@plt>
 80494de:	a1 40 13 05 08       	mov    0x8051340,%eax
 80494e3:	89 44 24 0c          	mov    %eax,0xc(%esp)
 80494e7:	c7 44 24 08 07 00 00 00 	movl   $0x7,0x8(%esp)
 80494ef:	c7 44 24 04 01 00 00 00 	movl   $0x1,0x4(%esp)
 80494f7:	c7 04 24 ca d9 04 08 	movl   $0x804d9ca,(%esp)
 80494fe:	e8 0d f9 ff ff       	call   8048e10 <fwrite@plt>
 8049503:	a1 60 11 05 08       	mov    0x8051160,%eax
 8049508:	89 44 24 0c          	mov    %eax,0xc(%esp)
 804950c:	c7 44 24 08 e5 d9 04 08 	movl   $0x804d9e5,0x8(%esp)
 8049514:	c7 44 24 04 01 00 00 00 	movl   $0x1,0x4(%esp)
 804951c:	a1 40 13 05 08       	mov    0x8051340,%eax
 8049521:	89 04 24             	mov    %eax,(%esp)
 8049524:	e8 17 fb ff ff       	call   8049040 <__fprintf_chk@plt>
 8049529:	a1 40 13 05 08       	mov    0x8051340,%eax
 804952e:	89 44 24 04          	mov    %eax,0x4(%esp)
 8049532:	c7 04 24 0a 00 00 00 	movl   $0xa,(%esp)
 8049539:	e8 b2 fa ff ff       	call   8048ff0 <fputc@plt>
 804953e:	c7 44 24 04 20 11 05 08 	movl   $0x8051120,0x4(%esp)
 8049546:	a1 60 11 05 08       	mov    0x8051160,%eax
 804954b:	89 04 24             	mov    %eax,(%esp)
 804954e:	e8 3b 3e 00 00       	call   804d38e <conf_load>
 8049553:	c7 44 24 04 20 11 05 08 	movl   $0x8051120,0x4(%esp)
 804955b:	a1 60 11 05 08       	mov    0x8051160,%eax
 8049560:	89 04 24             	mov    %eax,(%esp)
 8049563:	e8 8c 42 00 00       	call   804d7f4 <conf_save>
 8049568:	b8 00 00 00 00       	mov    $0x0,%eax
 804956d:	83 c4 1c             	add    $0x1c,%esp
 8049570:	c3                   	ret    

08049571 <app_system_save_config>:
 8049571:	83 ec 1c             	sub    $0x1c,%esp
 8049574:	c7 44 24 04 20 11 05 08 	movl   $0x8051120,0x4(%esp)
 804957c:	a1 60 11 05 08       	mov    0x8051160,%eax
 8049581:	89 04 24             	mov    %eax,(%esp)
 8049584:	e8 6b 42 00 00       	call   804d7f4 <conf_save>
 8049589:	83 c4 1c             	add    $0x1c,%esp
 804958c:	c3                   	ret    

0804958d <main>:
 804958d:	55                   	push   %ebp
 804958e:	89 e5                	mov    %esp,%ebp
 8049590:	56                   	push   %esi
 8049591:	53                   	push   %ebx
 8049592:	83 e4 f0             	and    $0xfffffff0,%esp
 8049595:	83 ec 20             	sub    $0x20,%esp
 8049598:	8b 75 08             	mov    0x8(%ebp),%esi
 804959b:	8b 5d 0c             	mov    0xc(%ebp),%ebx
 804959e:	c7 44 24 04 2f 00 00 00 	movl   $0x2f,0x4(%esp)
 80495a6:	8b 03                	mov    (%ebx),%eax
 80495a8:	89 04 24             	mov    %eax,(%esp)
 80495ab:	e8 30 fa ff ff       	call   8048fe0 <strrchr@plt>
 80495b0:	a3 04 15 05 08       	mov    %eax,0x8051504
 80495b5:	85 c0                	test   %eax,%eax
 80495b7:	75 0c                	jne    80495c5 <main+0x38>
 80495b9:	8b 03                	mov    (%ebx),%eax
 80495bb:	a3 04 15 05 08       	mov    %eax,0x8051504
 80495c0:	e9 78 01 00 00       	jmp    804973d <main+0x1b0>
 80495c5:	83 c0 01             	add    $0x1,%eax
 80495c8:	a3 04 15 05 08       	mov    %eax,0x8051504
 80495cd:	e9 6b 01 00 00       	jmp    804973d <main+0x1b0>
 80495d2:	83 f8 68             	cmp    $0x68,%eax
 80495d5:	74 67                	je     804963e <main+0xb1>
 80495d7:	83 f8 68             	cmp    $0x68,%eax
 80495da:	7f 0f                	jg     80495eb <main+0x5e>
 80495dc:	83 f8 64             	cmp    $0x64,%eax
 80495df:	90                   	nop
 80495e0:	0f 85 1e 01 00 00    	jne    8049704 <main+0x177>
 80495e6:	e9 07 01 00 00       	jmp    80496f2 <main+0x165>
 80495eb:	83 f8 6e             	cmp    $0x6e,%eax
 80495ee:	66 90                	xchg   %ax,%ax
 80495f0:	0f 84 05 01 00 00    	je     80496fb <main+0x16e>
 80495f6:	83 f8 76             	cmp    $0x76,%eax
 80495f9:	0f 85 05 01 00 00    	jne    8049704 <main+0x177>
 80495ff:	c7 44 24 14 01 00 00 00 	movl   $0x1,0x14(%esp)
 8049607:	c7 44 24 10 00 00 00 00 	movl   $0x0,0x10(%esp)
 804960f:	c7 44 24 0c f9 d9 04 08 	movl   $0x804d9f9,0xc(%esp)
 8049617:	c7 44 24 08 04 db 04 08 	movl   $0x804db04,0x8(%esp)
 804961f:	c7 44 24 04 01 00 00 00 	movl   $0x1,0x4(%esp)
 8049627:	a1 40 13 05 08       	mov    0x8051340,%eax
 804962c:	89 04 24             	mov    %eax,(%esp)
 804962f:	e8 0c fa ff ff       	call   8049040 <__fprintf_chk@plt>
 8049634:	b8 00 00 00 00       	mov    $0x0,%eax
 8049639:	e9 db 05 00 00       	jmp    8049c19 <main+0x68c>
 804963e:	a1 04 15 05 08       	mov    0x8051504,%eax
 8049643:	89 44 24 0c          	mov    %eax,0xc(%esp)
 8049647:	c7 44 24 08 05 da 04 08 	movl   $0x804da05,0x8(%esp)
 804964f:	c7 44 24 04 01 00 00 00 	movl   $0x1,0x4(%esp)
 8049657:	a1 40 13 05 08       	mov    0x8051340,%eax
 804965c:	89 04 24             	mov    %eax,(%esp)
 804965f:	e8 dc f9 ff ff       	call   8049040 <__fprintf_chk@plt>
 8049664:	a1 40 13 05 08       	mov    0x8051340,%eax
 8049669:	89 44 24 0c          	mov    %eax,0xc(%esp)
 804966d:	c7 44 24 08 1e 00 00 00 	movl   $0x1e,0x8(%esp)
 8049675:	c7 44 24 04 01 00 00 00 	movl   $0x1,0x4(%esp)
 804967d:	c7 04 24 30 db 04 08 	movl   $0x804db30,(%esp)
 8049684:	e8 87 f7 ff ff       	call   8048e10 <fwrite@plt>
 8049689:	a1 40 13 05 08       	mov    0x8051340,%eax
 804968e:	89 44 24 0c          	mov    %eax,0xc(%esp)
 8049692:	c7 44 24 08 14 00 00 00 	movl   $0x14,0x8(%esp)
 804969a:	c7 44 24 04 01 00 00 00 	movl   $0x1,0x4(%esp)
 80496a2:	c7 04 24 1c da 04 08 	movl   $0x804da1c,(%esp)
 80496a9:	e8 62 f7 ff ff       	call   8048e10 <fwrite@plt>
 80496ae:	a1 40 13 05 08       	mov    0x8051340,%eax
 80496b3:	89 44 24 0c          	mov    %eax,0xc(%esp)
 80496b7:	c7 44 24 08 34 00 00 00 	movl   $0x34,0x8(%esp)
 80496bf:	c7 44 24 04 01 00 00 00 	movl   $0x1,0x4(%esp)
 80496c7:	c7 04 24 50 db 04 08 	movl   $0x804db50,(%esp)
 80496ce:	e8 3d f7 ff ff       	call   8048e10 <fwrite@plt>
 80496d3:	a1 40 13 05 08       	mov    0x8051340,%eax
 80496d8:	89 44 24 04          	mov    %eax,0x4(%esp)
 80496dc:	c7 04 24 0a 00 00 00 	movl   $0xa,(%esp)
 80496e3:	e8 08 f9 ff ff       	call   8048ff0 <fputc@plt>
 80496e8:	b8 01 00 00 00       	mov    $0x1,%eax
 80496ed:	e9 27 05 00 00       	jmp    8049c19 <main+0x68c>
 80496f2:	83 05 74 13 05 08 01 	addl   $0x1,0x8051374
 80496f9:	eb 42                	jmp    804973d <main+0x1b0>
 80496fb:	83 05 70 13 05 08 01 	addl   $0x1,0x8051370
 8049702:	eb 39                	jmp    804973d <main+0x1b0>
 8049704:	a1 64 13 05 08       	mov    0x8051364,%eax
 8049709:	89 44 24 10          	mov    %eax,0x10(%esp)
 804970d:	a1 04 15 05 08       	mov    0x8051504,%eax
 8049712:	89 44 24 0c          	mov    %eax,0xc(%esp)
 8049716:	c7 44 24 08 31 da 04 08 	movl   $0x804da31,0x8(%esp)
 804971e:	c7 44 24 04 01 00 00 00 	movl   $0x1,0x4(%esp)
 8049726:	a1 40 13 05 08       	mov    0x8051340,%eax
 804972b:	89 04 24             	mov    %eax,(%esp)
 804972e:	e8 0d f9 ff ff       	call   8049040 <__fprintf_chk@plt>
 8049733:	b8 02 00 00 00       	mov    $0x2,%eax
 8049738:	e9 dc 04 00 00       	jmp    8049c19 <main+0x68c>
 804973d:	c7 44 24 08 4a da 04 08 	movl   $0x804da4a,0x8(%esp)
 8049745:	89 5c 24 04          	mov    %ebx,0x4(%esp)
 8049749:	89 34 24             	mov    %esi,(%esp)
 804974c:	e8 af f7 ff ff       	call   8048f00 <getopt@plt>
 8049751:	85 c0                	test   %eax,%eax
 8049753:	0f 8f 79 fe ff ff    	jg     80495d2 <main+0x45>
 8049759:	e8 c8 fa ff ff       	call   8049226 <app_system_init>
 804975e:	85 c0                	test   %eax,%eax
 8049760:	0f 89 8e 00 00 00    	jns    80497f4 <main+0x267>
 8049766:	c7 44 24 0c 16 dc 04 08 	movl   $0x804dc16,0xc(%esp)
 804976e:	c7 44 24 08 c5 d9 04 08 	movl   $0x804d9c5,0x8(%esp)
 8049776:	c7 44 24 04 01 00 00 00 	movl   $0x1,0x4(%esp)
 804977e:	a1 40 13 05 08       	mov    0x8051340,%eax
 8049783:	89 04 24             	mov    %eax,(%esp)
 8049786:	e8 b5 f8 ff ff       	call   8049040 <__fprintf_chk@plt>
 804978b:	a1 40 13 05 08       	mov    0x8051340,%eax
 8049790:	89 44 24 0c          	mov    %eax,0xc(%esp)
 8049794:	c7 44 24 08 09 00 00 00 	movl   $0x9,0x8(%esp)
 804979c:	c7 44 24 04 01 00 00 00 	movl   $0x1,0x4(%esp)
 80497a4:	c7 04 24 d2 d9 04 08 	movl   $0x804d9d2,(%esp)
 80497ab:	e8 60 f6 ff ff       	call   8048e10 <fwrite@plt>
 80497b0:	a1 40 13 05 08       	mov    0x8051340,%eax
 80497b5:	89 44 24 0c          	mov    %eax,0xc(%esp)
 80497b9:	c7 44 24 08 13 00 00 00 	movl   $0x13,0x8(%esp)
 80497c1:	c7 44 24 04 01 00 00 00 	movl   $0x1,0x4(%esp)
 80497c9:	c7 04 24 4f da 04 08 	movl   $0x804da4f,(%esp)
 80497d0:	e8 3b f6 ff ff       	call   8048e10 <fwrite@plt>
 80497d5:	a1 40 13 05 08       	mov    0x8051340,%eax
 80497da:	89 44 24 04          	mov    %eax,0x4(%esp)
 80497de:	c7 04 24 0a 00 00 00 	movl   $0xa,(%esp)
 80497e5:	e8 06 f8 ff ff       	call   8048ff0 <fputc@plt>
 80497ea:	b8 03 00 00 00       	mov    $0x3,%eax
 80497ef:	e9 25 04 00 00       	jmp    8049c19 <main+0x68c>
 80497f4:	e8 bd fc ff ff       	call   80494b6 <app_system_load_config>
 80497f9:	85 c0                	test   %eax,%eax
 80497fb:	0f 89 8e 00 00 00    	jns    804988f <main+0x302>
 8049801:	c7 44 24 0c 16 dc 04 08 	movl   $0x804dc16,0xc(%esp)
 8049809:	c7 44 24 08 c5 d9 04 08 	movl   $0x804d9c5,0x8(%esp)
 8049811:	c7 44 24 04 01 00 00 00 	movl   $0x1,0x4(%esp)
 8049819:	a1 40 13 05 08       	mov    0x8051340,%eax
 804981e:	89 04 24             	mov    %eax,(%esp)
 8049821:	e8 1a f8 ff ff       	call   8049040 <__fprintf_chk@plt>
 8049826:	a1 40 13 05 08       	mov    0x8051340,%eax
 804982b:	89 44 24 0c          	mov    %eax,0xc(%esp)
 804982f:	c7 44 24 08 09 00 00 00 	movl   $0x9,0x8(%esp)
 8049837:	c7 44 24 04 01 00 00 00 	movl   $0x1,0x4(%esp)
 804983f:	c7 04 24 d2 d9 04 08 	movl   $0x804d9d2,(%esp)
 8049846:	e8 c5 f5 ff ff       	call   8048e10 <fwrite@plt>
 804984b:	a1 40 13 05 08       	mov    0x8051340,%eax
 8049850:	89 44 24 0c          	mov    %eax,0xc(%esp)
 8049854:	c7 44 24 08 1a 00 00 00 	movl   $0x1a,0x8(%esp)
 804985c:	c7 44 24 04 01 00 00 00 	movl   $0x1,0x4(%esp)
 8049864:	c7 04 24 63 da 04 08 	movl   $0x804da63,(%esp)
 804986b:	e8 a0 f5 ff ff       	call   8048e10 <fwrite@plt>
 8049870:	a1 40 13 05 08       	mov    0x8051340,%eax
 8049875:	89 44 24 04          	mov    %eax,0x4(%esp)
 8049879:	c7 04 24 0a 00 00 00 	movl   $0xa,(%esp)
 8049880:	e8 6b f7 ff ff       	call   8048ff0 <fputc@plt>
 8049885:	b8 04 00 00 00       	mov    $0x4,%eax
 804988a:	e9 8a 03 00 00       	jmp    8049c19 <main+0x68c>
 804988f:	a1 64 11 05 08       	mov    0x8051164,%eax
 8049894:	89 04 24             	mov    %eax,(%esp)
 8049897:	e8 e4 0b 00 00       	call   804a480 <ctrl_start>
 804989c:	85 c0                	test   %eax,%eax
 804989e:	0f 89 94 00 00 00    	jns    8049938 <main+0x3ab>
 80498a4:	c7 44 24 0c 16 dc 04 08 	movl   $0x804dc16,0xc(%esp)
 80498ac:	c7 44 24 08 c5 d9 04 08 	movl   $0x804d9c5,0x8(%esp)
 80498b4:	c7 44 24 04 01 00 00 00 	movl   $0x1,0x4(%esp)
 80498bc:	a1 40 13 05 08       	mov    0x8051340,%eax
 80498c1:	89 04 24             	mov    %eax,(%esp)
 80498c4:	e8 77 f7 ff ff       	call   8049040 <__fprintf_chk@plt>
 80498c9:	a1 40 13 05 08       	mov    0x8051340,%eax
 80498ce:	89 44 24 0c          	mov    %eax,0xc(%esp)
 80498d2:	c7 44 24 08 09 00 00 00 	movl   $0x9,0x8(%esp)
 80498da:	c7 44 24 04 01 00 00 00 	movl   $0x1,0x4(%esp)
 80498e2:	c7 04 24 d2 d9 04 08 	movl   $0x804d9d2,(%esp)
 80498e9:	e8 22 f5 ff ff       	call   8048e10 <fwrite@plt>
 80498ee:	a1 64 11 05 08       	mov    0x8051164,%eax
 80498f3:	89 44 24 0c          	mov    %eax,0xc(%esp)
 80498f7:	c7 44 24 08 7e da 04 08 	movl   $0x804da7e,0x8(%esp)
 80498ff:	c7 44 24 04 01 00 00 00 	movl   $0x1,0x4(%esp)
 8049907:	a1 40 13 05 08       	mov    0x8051340,%eax
 804990c:	89 04 24             	mov    %eax,(%esp)
 804990f:	e8 2c f7 ff ff       	call   8049040 <__fprintf_chk@plt>
 8049914:	a1 40 13 05 08       	mov    0x8051340,%eax
 8049919:	89 44 24 04          	mov    %eax,0x4(%esp)
 804991d:	c7 04 24 0a 00 00 00 	movl   $0xa,(%esp)
 8049924:	e8 c7 f6 ff ff       	call   8048ff0 <fputc@plt>
 8049929:	e8 99 f8 ff ff       	call   80491c7 <app_cleanup>
 804992e:	b8 05 00 00 00       	mov    $0x5,%eax
 8049933:	e9 e1 02 00 00       	jmp    8049c19 <main+0x68c>
 8049938:	e8 33 1f 00 00       	call   804b870 <server_start>
 804993d:	85 c0                	test   %eax,%eax
 804993f:	0f 89 93 00 00 00    	jns    80499d8 <main+0x44b>
 8049945:	c7 44 24 0c 16 dc 04 08 	movl   $0x804dc16,0xc(%esp)
 804994d:	c7 44 24 08 c5 d9 04 08 	movl   $0x804d9c5,0x8(%esp)
 8049955:	c7 44 24 04 01 00 00 00 	movl   $0x1,0x4(%esp)
 804995d:	a1 40 13 05 08       	mov    0x8051340,%eax
 8049962:	89 04 24             	mov    %eax,(%esp)
 8049965:	e8 d6 f6 ff ff       	call   8049040 <__fprintf_chk@plt>
 804996a:	a1 40 13 05 08       	mov    0x8051340,%eax
 804996f:	89 44 24 0c          	mov    %eax,0xc(%esp)
 8049973:	c7 44 24 08 09 00 00 00 	movl   $0x9,0x8(%esp)
 804997b:	c7 44 24 04 01 00 00 00 	movl   $0x1,0x4(%esp)
 8049983:	c7 04 24 d2 d9 04 08 	movl   $0x804d9d2,(%esp)
 804998a:	e8 81 f4 ff ff       	call   8048e10 <fwrite@plt>
 804998f:	a1 40 13 05 08       	mov    0x8051340,%eax
 8049994:	89 44 24 0c          	mov    %eax,0xc(%esp)
 8049998:	c7 44 24 08 14 00 00 00 	movl   $0x14,0x8(%esp)
 80499a0:	c7 44 24 04 01 00 00 00 	movl   $0x1,0x4(%esp)
 80499a8:	c7 04 24 93 da 04 08 	movl   $0x804da93,(%esp)
 80499af:	e8 5c f4 ff ff       	call   8048e10 <fwrite@plt>
 80499b4:	a1 40 13 05 08       	mov    0x8051340,%eax
 80499b9:	89 44 24 04          	mov    %eax,0x4(%esp)
 80499bd:	c7 04 24 0a 00 00 00 	movl   $0xa,(%esp)
 80499c4:	e8 27 f6 ff ff       	call   8048ff0 <fputc@plt>
 80499c9:	e8 f9 f7 ff ff       	call   80491c7 <app_cleanup>
 80499ce:	b8 06 00 00 00       	mov    $0x6,%eax
 80499d3:	e9 41 02 00 00       	jmp    8049c19 <main+0x68c>
 80499d8:	e8 1a 2a 00 00       	call   804c3f7 <tasks_start>
 80499dd:	85 c0                	test   %eax,%eax
 80499df:	0f 89 93 00 00 00    	jns    8049a78 <main+0x4eb>
 80499e5:	c7 44 24 0c 16 dc 04 08 	movl   $0x804dc16,0xc(%esp)
 80499ed:	c7 44 24 08 c5 d9 04 08 	movl   $0x804d9c5,0x8(%esp)
 80499f5:	c7 44 24 04 01 00 00 00 	movl   $0x1,0x4(%esp)
 80499fd:	a1 40 13 05 08       	mov    0x8051340,%eax
 8049a02:	89 04 24             	mov    %eax,(%esp)
 8049a05:	e8 36 f6 ff ff       	call   8049040 <__fprintf_chk@plt>
 8049a0a:	a1 40 13 05 08       	mov    0x8051340,%eax
 8049a0f:	89 44 24 0c          	mov    %eax,0xc(%esp)
 8049a13:	c7 44 24 08 09 00 00 00 	movl   $0x9,0x8(%esp)
 8049a1b:	c7 44 24 04 01 00 00 00 	movl   $0x1,0x4(%esp)
 8049a23:	c7 04 24 d2 d9 04 08 	movl   $0x804d9d2,(%esp)
 8049a2a:	e8 e1 f3 ff ff       	call   8048e10 <fwrite@plt>
 8049a2f:	a1 40 13 05 08       	mov    0x8051340,%eax
 8049a34:	89 44 24 0c          	mov    %eax,0xc(%esp)
 8049a38:	c7 44 24 08 13 00 00 00 	movl   $0x13,0x8(%esp)
 8049a40:	c7 44 24 04 01 00 00 00 	movl   $0x1,0x4(%esp)
 8049a48:	c7 04 24 a8 da 04 08 	movl   $0x804daa8,(%esp)
 8049a4f:	e8 bc f3 ff ff       	call   8048e10 <fwrite@plt>
 8049a54:	a1 40 13 05 08       	mov    0x8051340,%eax
 8049a59:	89 44 24 04          	mov    %eax,0x4(%esp)
 8049a5d:	c7 04 24 0a 00 00 00 	movl   $0xa,(%esp)
 8049a64:	e8 87 f5 ff ff       	call   8048ff0 <fputc@plt>
 8049a69:	e8 59 f7 ff ff       	call   80491c7 <app_cleanup>
 8049a6e:	b8 07 00 00 00       	mov    $0x7,%eax
 8049a73:	e9 a1 01 00 00       	jmp    8049c19 <main+0x68c>
 8049a78:	83 3d 70 13 05 08 00 	cmpl   $0x0,0x8051370
 8049a7f:	74 73                	je     8049af4 <main+0x567>
 8049a81:	c7 04 24 0a 00 00 00 	movl   $0xa,(%esp)
 8049a88:	e8 c3 f4 ff ff       	call   8048f50 <putchar@plt>
 8049a8d:	c7 04 24 88 db 04 08 	movl   $0x804db88,(%esp)
 8049a94:	e8 b7 f3 ff ff       	call   8048e50 <puts@plt>
 8049a99:	c7 44 24 10 01 00 00 00 	movl   $0x1,0x10(%esp)
 8049aa1:	c7 44 24 0c 00 00 00 00 	movl   $0x0,0xc(%esp)
 8049aa9:	c7 44 24 08 f9 d9 04 08 	movl   $0x804d9f9,0x8(%esp)
 8049ab1:	c7 44 24 04 c4 db 04 08 	movl   $0x804dbc4,0x4(%esp)
 8049ab9:	c7 04 24 01 00 00 00 	movl   $0x1,(%esp)
 8049ac0:	e8 eb f4 ff ff       	call   8048fb0 <__printf_chk@plt>
 8049ac5:	c7 04 24 88 db 04 08 	movl   $0x804db88,(%esp)
 8049acc:	e8 7f f3 ff ff       	call   8048e50 <puts@plt>
 8049ad1:	c7 04 24 0a 00 00 00 	movl   $0xa,(%esp)
 8049ad8:	e8 73 f4 ff ff       	call   8048f50 <putchar@plt>
 8049add:	a1 60 13 05 08       	mov    0x8051360,%eax
 8049ae2:	89 04 24             	mov    %eax,(%esp)
 8049ae5:	e8 26 f2 ff ff       	call   8048d10 <fflush@plt>
 8049aea:	e8 f8 1e 00 00       	call   804b9e7 <shell>
 8049aef:	e9 25 01 00 00       	jmp    8049c19 <main+0x68c>
 8049af4:	c7 04 24 01 00 00 00 	movl   $0x1,(%esp)
 8049afb:	e8 80 f2 ff ff       	call   8048d80 <sleep@plt>
 8049b00:	c7 44 24 0c 16 dc 04 08 	movl   $0x804dc16,0xc(%esp)
 8049b08:	c7 44 24 08 c5 d9 04 08 	movl   $0x804d9c5,0x8(%esp)
 8049b10:	c7 44 24 04 01 00 00 00 	movl   $0x1,0x4(%esp)
 8049b18:	a1 40 13 05 08       	mov    0x8051340,%eax
 8049b1d:	89 04 24             	mov    %eax,(%esp)
 8049b20:	e8 1b f5 ff ff       	call   8049040 <__fprintf_chk@plt>
 8049b25:	a1 40 13 05 08       	mov    0x8051340,%eax
 8049b2a:	89 44 24 0c          	mov    %eax,0xc(%esp)
 8049b2e:	c7 44 24 08 07 00 00 00 	movl   $0x7,0x8(%esp)
 8049b36:	c7 44 24 04 01 00 00 00 	movl   $0x1,0x4(%esp)
 8049b3e:	c7 04 24 ca d9 04 08 	movl   $0x804d9ca,(%esp)
 8049b45:	e8 c6 f2 ff ff       	call   8048e10 <fwrite@plt>
 8049b4a:	a1 40 13 05 08       	mov    0x8051340,%eax
 8049b4f:	89 44 24 0c          	mov    %eax,0xc(%esp)
 8049b53:	c7 44 24 08 04 00 00 00 	movl   $0x4,0x8(%esp)
 8049b5b:	c7 44 24 04 01 00 00 00 	movl   $0x1,0x4(%esp)
 8049b63:	c7 04 24 bc da 04 08 	movl   $0x804dabc,(%esp)
 8049b6a:	e8 a1 f2 ff ff       	call   8048e10 <fwrite@plt>
 8049b6f:	a1 40 13 05 08       	mov    0x8051340,%eax
 8049b74:	89 44 24 04          	mov    %eax,0x4(%esp)
 8049b78:	c7 04 24 0a 00 00 00 	movl   $0xa,(%esp)
 8049b7f:	e8 6c f4 ff ff       	call   8048ff0 <fputc@plt>
 8049b84:	c7 04 24 01 00 00 00 	movl   $0x1,(%esp)
 8049b8b:	e8 f0 f1 ff ff       	call   8048d80 <sleep@plt>
 8049b90:	c7 44 24 0c 16 dc 04 08 	movl   $0x804dc16,0xc(%esp)
 8049b98:	c7 44 24 08 c5 d9 04 08 	movl   $0x804d9c5,0x8(%esp)
 8049ba0:	c7 44 24 04 01 00 00 00 	movl   $0x1,0x4(%esp)
 8049ba8:	a1 40 13 05 08       	mov    0x8051340,%eax
 8049bad:	89 04 24             	mov    %eax,(%esp)
 8049bb0:	e8 8b f4 ff ff       	call   8049040 <__fprintf_chk@plt>
 8049bb5:	a1 40 13 05 08       	mov    0x8051340,%eax
 8049bba:	89 44 24 0c          	mov    %eax,0xc(%esp)
 8049bbe:	c7 44 24 08 07 00 00 00 	movl   $0x7,0x8(%esp)
 8049bc6:	c7 44 24 04 01 00 00 00 	movl   $0x1,0x4(%esp)
 8049bce:	c7 04 24 ca d9 04 08 	movl   $0x804d9ca,(%esp)
 8049bd5:	e8 36 f2 ff ff       	call   8048e10 <fwrite@plt>
 8049bda:	a1 40 13 05 08       	mov    0x8051340,%eax
 8049bdf:	89 44 24 0c          	mov    %eax,0xc(%esp)
 8049be3:	c7 44 24 08 04 00 00 00 	movl   $0x4,0x8(%esp)
 8049beb:	c7 44 24 04 01 00 00 00 	movl   $0x1,0x4(%esp)
 8049bf3:	c7 04 24 c1 da 04 08 	movl   $0x804dac1,(%esp)
 8049bfa:	e8 11 f2 ff ff       	call   8048e10 <fwrite@plt>
 8049bff:	a1 40 13 05 08       	mov    0x8051340,%eax
 8049c04:	89 44 24 04          	mov    %eax,0x4(%esp)
 8049c08:	c7 04 24 0a 00 00 00 	movl   $0xa,(%esp)
 8049c0f:	e8 dc f3 ff ff       	call   8048ff0 <fputc@plt>
 8049c14:	e9 db fe ff ff       	jmp    8049af4 <main+0x567>
 8049c19:	8d 65 f8             	lea    -0x8(%ebp),%esp
 8049c1c:	5b                   	pop    %ebx
 8049c1d:	5e                   	pop    %esi
 8049c1e:	5d                   	pop    %ebp
 8049c1f:	c3                   	ret    

08049c20 <cmd_help>:
 8049c20:	57                   	push   %edi
 8049c21:	56                   	push   %esi
 8049c22:	53                   	push   %ebx
 8049c23:	83 ec 10             	sub    $0x10,%esp
 8049c26:	8b 44 24 20          	mov    0x20(%esp),%eax
 8049c2a:	8b 7c 24 24          	mov    0x24(%esp),%edi
 8049c2e:	83 f8 02             	cmp    $0x2,%eax
 8049c31:	7e 56                	jle    8049c89 <cmd_help+0x69>
 8049c33:	8b 3f                	mov    (%edi),%edi
 8049c35:	bb c0 dc 04 08       	mov    $0x804dcc0,%ebx
 8049c3a:	8d 73 04             	lea    0x4(%ebx),%esi
 8049c3d:	89 74 24 04          	mov    %esi,0x4(%esp)
 8049c41:	89 3c 24             	mov    %edi,(%esp)
 8049c44:	e8 a7 f0 ff ff       	call   8048cf0 <strcmp@plt>
 8049c49:	85 c0                	test   %eax,%eax
 8049c4b:	75 29                	jne    8049c76 <cmd_help+0x56>
 8049c4d:	8b 43 14             	mov    0x14(%ebx),%eax
 8049c50:	89 44 24 0c          	mov    %eax,0xc(%esp)
 8049c54:	89 74 24 08          	mov    %esi,0x8(%esp)
 8049c58:	c7 44 24 04 1b dc 04 08 	movl   $0x804dc1b,0x4(%esp)
 8049c60:	c7 04 24 01 00 00 00 	movl   $0x1,(%esp)
 8049c67:	e8 44 f3 ff ff       	call   8048fb0 <__printf_chk@plt>
 8049c6c:	b8 00 00 00 00       	mov    $0x0,%eax
 8049c71:	e9 c5 00 00 00       	jmp    8049d3b <cmd_help+0x11b>
 8049c76:	83 c3 1c             	add    $0x1c,%ebx
 8049c79:	80 7b 04 00          	cmpb   $0x0,0x4(%ebx)
 8049c7d:	75 bb                	jne    8049c3a <cmd_help+0x1a>
 8049c7f:	b8 ff ff ff ff       	mov    $0xffffffff,%eax
 8049c84:	e9 b2 00 00 00       	jmp    8049d3b <cmd_help+0x11b>
 8049c89:	83 f8 01             	cmp    $0x1,%eax
 8049c8c:	7e 6c                	jle    8049cfa <cmd_help+0xda>
 8049c8e:	bb c0 dc 04 08       	mov    $0x804dcc0,%ebx
 8049c93:	8d 73 04             	lea    0x4(%ebx),%esi
 8049c96:	89 74 24 04          	mov    %esi,0x4(%esp)
 8049c9a:	8b 47 04             	mov    0x4(%edi),%eax
 8049c9d:	89 04 24             	mov    %eax,(%esp)
 8049ca0:	e8 4b f0 ff ff       	call   8048cf0 <strcmp@plt>
 8049ca5:	85 c0                	test   %eax,%eax
 8049ca7:	75 41                	jne    8049cea <cmd_help+0xca>
 8049ca9:	8b 43 18             	mov    0x18(%ebx),%eax
 8049cac:	89 44 24 08          	mov    %eax,0x8(%esp)
 8049cb0:	c7 44 24 04 29 dc 04 08 	movl   $0x804dc29,0x4(%esp)
 8049cb8:	c7 04 24 01 00 00 00 	movl   $0x1,(%esp)
 8049cbf:	e8 ec f2 ff ff       	call   8048fb0 <__printf_chk@plt>
 8049cc4:	8b 43 14             	mov    0x14(%ebx),%eax
 8049cc7:	89 44 24 0c          	mov    %eax,0xc(%esp)
 8049ccb:	89 74 24 08          	mov    %esi,0x8(%esp)
 8049ccf:	c7 44 24 04 1b dc 04 08 	movl   $0x804dc1b,0x4(%esp)
 8049cd7:	c7 04 24 01 00 00 00 	movl   $0x1,(%esp)
 8049cde:	e8 cd f2 ff ff       	call   8048fb0 <__printf_chk@plt>
 8049ce3:	b8 00 00 00 00       	mov    $0x0,%eax
 8049ce8:	eb 51                	jmp    8049d3b <cmd_help+0x11b>
 8049cea:	83 c3 1c             	add    $0x1c,%ebx
 8049ced:	80 7b 04 00          	cmpb   $0x0,0x4(%ebx)
 8049cf1:	75 a0                	jne    8049c93 <cmd_help+0x73>
 8049cf3:	b8 ff ff ff ff       	mov    $0xffffffff,%eax
 8049cf8:	eb 41                	jmp    8049d3b <cmd_help+0x11b>
 8049cfa:	c7 04 24 0a 00 00 00 	movl   $0xa,(%esp)
 8049d01:	e8 4a f2 ff ff       	call   8048f50 <putchar@plt>
 8049d06:	bb c0 dc 04 08       	mov    $0x804dcc0,%ebx
 8049d0b:	8b 43 18             	mov    0x18(%ebx),%eax
 8049d0e:	89 44 24 0c          	mov    %eax,0xc(%esp)
 8049d12:	8d 43 04             	lea    0x4(%ebx),%eax
 8049d15:	89 44 24 08          	mov    %eax,0x8(%esp)
 8049d19:	c7 44 24 04 2e dc 04 08 	movl   $0x804dc2e,0x4(%esp)
 8049d21:	c7 04 24 01 00 00 00 	movl   $0x1,(%esp)
 8049d28:	e8 83 f2 ff ff       	call   8048fb0 <__printf_chk@plt>
 8049d2d:	83 c3 1c             	add    $0x1c,%ebx
 8049d30:	80 7b 04 00          	cmpb   $0x0,0x4(%ebx)
 8049d34:	75 d5                	jne    8049d0b <cmd_help+0xeb>
 8049d36:	b8 00 00 00 00       	mov    $0x0,%eax
 8049d3b:	83 c4 10             	add    $0x10,%esp
 8049d3e:	5b                   	pop    %ebx
 8049d3f:	5e                   	pop    %esi
 8049d40:	5f                   	pop    %edi
 8049d41:	c3                   	ret    

08049d42 <cmd_ver>:
 8049d42:	83 ec 2c             	sub    $0x2c,%esp
 8049d45:	c7 44 24 14 01 00 00 00 	movl   $0x1,0x14(%esp)
 8049d4d:	c7 44 24 10 00 00 00 00 	movl   $0x0,0x10(%esp)
 8049d55:	c7 44 24 0c f9 d9 04 08 	movl   $0x804d9f9,0xc(%esp)
 8049d5d:	c7 44 24 08 04 db 04 08 	movl   $0x804db04,0x8(%esp)
 8049d65:	c7 44 24 04 01 00 00 00 	movl   $0x1,0x4(%esp)
 8049d6d:	a1 40 13 05 08       	mov    0x8051340,%eax
 8049d72:	89 04 24             	mov    %eax,(%esp)
 8049d75:	e8 c6 f2 ff ff       	call   8049040 <__fprintf_chk@plt>
 8049d7a:	b8 00 00 00 00       	mov    $0x0,%eax
 8049d7f:	83 c4 2c             	add    $0x2c,%esp
 8049d82:	c3                   	ret    

08049d83 <cmd_quit>:
 8049d83:	83 ec 1c             	sub    $0x1c,%esp
 8049d86:	c7 04 24 39 dc 04 08 	movl   $0x804dc39,(%esp)
 8049d8d:	e8 be f0 ff ff       	call   8048e50 <puts@plt>
 8049d92:	c7 44 24 04 03 00 00 00 	movl   $0x3,0x4(%esp)
 8049d9a:	a1 00 15 05 08       	mov    0x8051500,%eax
 8049d9f:	89 04 24             	mov    %eax,(%esp)
 8049da2:	e8 d9 f0 ff ff       	call   8048e80 <kill@plt>
 8049da7:	b8 00 00 00 00       	mov    $0x0,%eax
 8049dac:	83 c4 1c             	add    $0x1c,%esp
 8049daf:	c3                   	ret    

08049db0 <cmd_null>:
 8049db0:	b8 00 00 00 00       	mov    $0x0,%eax
 8049db5:	c3                   	ret    

08049db6 <cmd_exec>:
 8049db6:	55                   	push   %ebp
 8049db7:	57                   	push   %edi
 8049db8:	56                   	push   %esi
 8049db9:	53                   	push   %ebx
 8049dba:	83 ec 1c             	sub    $0x1c,%esp
 8049dbd:	8b 6c 24 34          	mov    0x34(%esp),%ebp
 8049dc1:	8b 75 00             	mov    0x0(%ebp),%esi
 8049dc4:	89 f7                	mov    %esi,%edi
 8049dc6:	b8 00 00 00 00       	mov    $0x0,%eax
 8049dcb:	b9 ff ff ff ff       	mov    $0xffffffff,%ecx
 8049dd0:	f2 ae                	repnz scas %es:(%edi),%al
 8049dd2:	b8 00 00 00 00       	mov    $0x0,%eax
 8049dd7:	83 f9 fe             	cmp    $0xfffffffe,%ecx
 8049dda:	74 41                	je     8049e1d <cmd_exec+0x67>
 8049ddc:	bb c0 dc 04 08       	mov    $0x804dcc0,%ebx
 8049de1:	8d 43 04             	lea    0x4(%ebx),%eax
 8049de4:	89 44 24 04          	mov    %eax,0x4(%esp)
 8049de8:	89 34 24             	mov    %esi,(%esp)
 8049deb:	e8 00 ef ff ff       	call   8048cf0 <strcmp@plt>
 8049df0:	85 c0                	test   %eax,%eax
 8049df2:	75 0f                	jne    8049e03 <cmd_exec+0x4d>
 8049df4:	89 6c 24 04          	mov    %ebp,0x4(%esp)
 8049df8:	8b 44 24 30          	mov    0x30(%esp),%eax
 8049dfc:	89 04 24             	mov    %eax,(%esp)
 8049dff:	ff 13                	call   *(%ebx)
 8049e01:	eb 1a                	jmp    8049e1d <cmd_exec+0x67>
 8049e03:	83 c3 1c             	add    $0x1c,%ebx
 8049e06:	80 7b 04 00          	cmpb   $0x0,0x4(%ebx)
 8049e0a:	75 d5                	jne    8049de1 <cmd_exec+0x2b>
 8049e0c:	c7 04 24 40 dc 04 08 	movl   $0x804dc40,(%esp)
 8049e13:	e8 38 f0 ff ff       	call   8048e50 <puts@plt>
 8049e18:	b8 00 00 00 00       	mov    $0x0,%eax
 8049e1d:	83 c4 1c             	add    $0x1c,%esp
 8049e20:	5b                   	pop    %ebx
 8049e21:	5e                   	pop    %esi
 8049e22:	5f                   	pop    %edi
 8049e23:	5d                   	pop    %ebp
 8049e24:	c3                   	ret    

08049e25 <cmd_line_parse>:
 8049e25:	55                   	push   %ebp
 8049e26:	57                   	push   %edi
 8049e27:	56                   	push   %esi
 8049e28:	53                   	push   %ebx
 8049e29:	83 ec 1c             	sub    $0x1c,%esp
 8049e2c:	8b 7c 24 30          	mov    0x30(%esp),%edi
 8049e30:	b8 00 00 00 00       	mov    $0x0,%eax
 8049e35:	85 ff                	test   %edi,%edi
 8049e37:	0f 84 f5 01 00 00    	je     804a032 <cmd_line_parse+0x20d>
 8049e3d:	e8 7e f2 ff ff       	call   80490c0 <__ctype_b_loc@plt>
 8049e42:	89 c6                	mov    %eax,%esi
 8049e44:	8b 18                	mov    (%eax),%ebx
 8049e46:	89 fa                	mov    %edi,%edx
 8049e48:	eb 03                	jmp    8049e4d <cmd_line_parse+0x28>
 8049e4a:	83 c2 01             	add    $0x1,%edx
 8049e4d:	0f b6 02             	movzbl (%edx),%eax
 8049e50:	0f be c8             	movsbl %al,%ecx
 8049e53:	f6 44 4b 01 20       	testb  $0x20,0x1(%ebx,%ecx,2)
 8049e58:	75 f0                	jne    8049e4a <cmd_line_parse+0x25>
 8049e5a:	89 d5                	mov    %edx,%ebp
 8049e5c:	84 c0                	test   %al,%al
 8049e5e:	74 37                	je     8049e97 <cmd_line_parse+0x72>
 8049e60:	89 d7                	mov    %edx,%edi
 8049e62:	b8 00 00 00 00       	mov    $0x0,%eax
 8049e67:	b9 ff ff ff ff       	mov    $0xffffffff,%ecx
 8049e6c:	f2 ae                	repnz scas %es:(%edi),%al
 8049e6e:	f7 d1                	not    %ecx
 8049e70:	8d 44 0a fe          	lea    -0x2(%edx,%ecx,1),%eax
 8049e74:	39 c2                	cmp    %eax,%edx
 8049e76:	73 1b                	jae    8049e93 <cmd_line_parse+0x6e>
 8049e78:	0f be 08             	movsbl (%eax),%ecx
 8049e7b:	f6 44 4b 01 20       	testb  $0x20,0x1(%ebx,%ecx,2)
 8049e80:	74 11                	je     8049e93 <cmd_line_parse+0x6e>
 8049e82:	83 e8 01             	sub    $0x1,%eax
 8049e85:	39 e8                	cmp    %ebp,%eax
 8049e87:	74 0a                	je     8049e93 <cmd_line_parse+0x6e>
 8049e89:	0f be 08             	movsbl (%eax),%ecx
 8049e8c:	f6 44 4b 01 20       	testb  $0x20,0x1(%ebx,%ecx,2)
 8049e91:	75 ef                	jne    8049e82 <cmd_line_parse+0x5d>
 8049e93:	c6 40 01 00          	movb   $0x0,0x1(%eax)
 8049e97:	b8 00 00 00 00       	mov    $0x0,%eax
 8049e9c:	85 ed                	test   %ebp,%ebp
 8049e9e:	0f 84 8e 01 00 00    	je     804a032 <cmd_line_parse+0x20d>
 8049ea4:	0f b6 45 00          	movzbl 0x0(%ebp),%eax
 8049ea8:	3c 0a                	cmp    $0xa,%al
 8049eaa:	0f 84 7d 01 00 00    	je     804a02d <cmd_line_parse+0x208>
 8049eb0:	3c 0d                	cmp    $0xd,%al
 8049eb2:	0f 84 75 01 00 00    	je     804a02d <cmd_line_parse+0x208>
 8049eb8:	b8 00 00 00 00       	mov    $0x0,%eax
 8049ebd:	bf 00 00 00 00       	mov    $0x0,%edi
 8049ec2:	b9 00 00 00 00       	mov    $0x0,%ecx
 8049ec7:	89 4c 24 0c          	mov    %ecx,0xc(%esp)
 8049ecb:	e9 4a 01 00 00       	jmp    804a01a <cmd_line_parse+0x1f5>
 8049ed0:	0f be db             	movsbl %bl,%ebx
 8049ed3:	8b 2e                	mov    (%esi),%ebp
 8049ed5:	f6 44 5d 01 20       	testb  $0x20,0x1(%ebp,%ebx,2)
 8049eda:	74 08                	je     8049ee4 <cmd_line_parse+0xbf>
 8049edc:	83 c2 01             	add    $0x1,%edx
 8049edf:	e9 36 01 00 00       	jmp    804a01a <cmd_line_parse+0x1f5>
 8049ee4:	83 fb 28             	cmp    $0x28,%ebx
 8049ee7:	75 0f                	jne    8049ef8 <cmd_line_parse+0xd3>
 8049ee9:	83 c2 01             	add    $0x1,%edx
 8049eec:	83 44 24 0c 01       	addl   $0x1,0xc(%esp)
 8049ef1:	0f 95 c1             	setne  %cl
 8049ef4:	89 cd                	mov    %ecx,%ebp
 8049ef6:	eb 2c                	jmp    8049f24 <cmd_line_parse+0xff>
 8049ef8:	83 fb 22             	cmp    $0x22,%ebx
 8049efb:	75 10                	jne    8049f0d <cmd_line_parse+0xe8>
 8049efd:	83 c2 01             	add    $0x1,%edx
 8049f00:	85 ff                	test   %edi,%edi
 8049f02:	0f 85 03 01 00 00    	jne    804a00b <cmd_line_parse+0x1e6>
 8049f08:	e9 2d 01 00 00       	jmp    804a03a <cmd_line_parse+0x215>
 8049f0d:	83 7c 24 0c 00       	cmpl   $0x0,0xc(%esp)
 8049f12:	0f 95 c1             	setne  %cl
 8049f15:	89 cd                	mov    %ecx,%ebp
 8049f17:	83 fb 29             	cmp    $0x29,%ebx
 8049f1a:	75 08                	jne    8049f24 <cmd_line_parse+0xff>
 8049f1c:	84 c9                	test   %cl,%cl
 8049f1e:	0f 85 ee 00 00 00    	jne    804a012 <cmd_line_parse+0x1ed>
 8049f24:	8b 5c 24 34          	mov    0x34(%esp),%ebx
 8049f28:	89 14 83             	mov    %edx,(%ebx,%eax,4)
 8049f2b:	83 c0 01             	add    $0x1,%eax
 8049f2e:	89 e9                	mov    %ebp,%ecx
 8049f30:	84 c9                	test   %cl,%cl
 8049f32:	74 3a                	je     8049f6e <cmd_line_parse+0x149>
 8049f34:	0f be 1a             	movsbl (%edx),%ebx
 8049f37:	85 db                	test   %ebx,%ebx
 8049f39:	0f 84 db 00 00 00    	je     804a01a <cmd_line_parse+0x1f5>
 8049f3f:	8b 4c 24 0c          	mov    0xc(%esp),%ecx
 8049f43:	83 fb 28             	cmp    $0x28,%ebx
 8049f46:	75 05                	jne    8049f4d <cmd_line_parse+0x128>
 8049f48:	83 c1 01             	add    $0x1,%ecx
 8049f4b:	eb 0e                	jmp    8049f5b <cmd_line_parse+0x136>
 8049f4d:	83 fb 29             	cmp    $0x29,%ebx
 8049f50:	75 09                	jne    8049f5b <cmd_line_parse+0x136>
 8049f52:	83 e9 01             	sub    $0x1,%ecx
 8049f55:	0f 84 20 01 00 00    	je     804a07b <cmd_line_parse+0x256>
 8049f5b:	83 c2 01             	add    $0x1,%edx
 8049f5e:	0f be 1a             	movsbl (%edx),%ebx
 8049f61:	85 db                	test   %ebx,%ebx
 8049f63:	75 de                	jne    8049f43 <cmd_line_parse+0x11e>
 8049f65:	89 4c 24 0c          	mov    %ecx,0xc(%esp)
 8049f69:	e9 ac 00 00 00       	jmp    804a01a <cmd_line_parse+0x1f5>
 8049f6e:	85 ff                	test   %edi,%edi
 8049f70:	75 2f                	jne    8049fa1 <cmd_line_parse+0x17c>
 8049f72:	0f be 1a             	movsbl (%edx),%ebx
 8049f75:	85 db                	test   %ebx,%ebx
 8049f77:	0f 84 9d 00 00 00    	je     804a01a <cmd_line_parse+0x1f5>
 8049f7d:	8b 2e                	mov    (%esi),%ebp
 8049f7f:	f6 44 5d 01 20       	testb  $0x20,0x1(%ebp,%ebx,2)
 8049f84:	0f 85 fb 00 00 00    	jne    804a085 <cmd_line_parse+0x260>
 8049f8a:	83 fb 22             	cmp    $0x22,%ebx
 8049f8d:	0f 84 bb 00 00 00    	je     804a04e <cmd_line_parse+0x229>
 8049f93:	8b 4c 24 0c          	mov    0xc(%esp),%ecx
 8049f97:	83 fb 28             	cmp    $0x28,%ebx
 8049f9a:	75 54                	jne    8049ff0 <cmd_line_parse+0x1cb>
 8049f9c:	e9 b4 00 00 00       	jmp    804a055 <cmd_line_parse+0x230>
 8049fa1:	0f be 1a             	movsbl (%edx),%ebx
 8049fa4:	bf 00 00 00 00       	mov    $0x0,%edi
 8049fa9:	85 db                	test   %ebx,%ebx
 8049fab:	74 6d                	je     804a01a <cmd_line_parse+0x1f5>
 8049fad:	83 fb 22             	cmp    $0x22,%ebx
 8049fb0:	0f 84 a9 00 00 00    	je     804a05f <cmd_line_parse+0x23a>
 8049fb6:	8b 4c 24 0c          	mov    0xc(%esp),%ecx
 8049fba:	83 c2 01             	add    $0x1,%edx
 8049fbd:	0f be 1a             	movsbl (%edx),%ebx
 8049fc0:	85 db                	test   %ebx,%ebx
 8049fc2:	74 3c                	je     804a000 <cmd_line_parse+0x1db>
 8049fc4:	83 fb 22             	cmp    $0x22,%ebx
 8049fc7:	75 f1                	jne    8049fba <cmd_line_parse+0x195>
 8049fc9:	89 4c 24 0c          	mov    %ecx,0xc(%esp)
 8049fcd:	bf 00 00 00 00       	mov    $0x0,%edi
 8049fd2:	e9 ae 00 00 00       	jmp    804a085 <cmd_line_parse+0x260>
 8049fd7:	f6 44 5d 01 20       	testb  $0x20,0x1(%ebp,%ebx,2)
 8049fdc:	0f 85 9f 00 00 00    	jne    804a081 <cmd_line_parse+0x25c>
 8049fe2:	83 fb 22             	cmp    $0x22,%ebx
 8049fe5:	74 7f                	je     804a066 <cmd_line_parse+0x241>
 8049fe7:	83 fb 28             	cmp    $0x28,%ebx
 8049fea:	0f 84 81 00 00 00    	je     804a071 <cmd_line_parse+0x24c>
 8049ff0:	83 c2 01             	add    $0x1,%edx
 8049ff3:	0f be 1a             	movsbl (%edx),%ebx
 8049ff6:	85 db                	test   %ebx,%ebx
 8049ff8:	75 dd                	jne    8049fd7 <cmd_line_parse+0x1b2>
 8049ffa:	89 4c 24 0c          	mov    %ecx,0xc(%esp)
 8049ffe:	eb 1a                	jmp    804a01a <cmd_line_parse+0x1f5>
 804a000:	89 4c 24 0c          	mov    %ecx,0xc(%esp)
 804a004:	bf 00 00 00 00       	mov    $0x0,%edi
 804a009:	eb 0f                	jmp    804a01a <cmd_line_parse+0x1f5>
 804a00b:	bf 00 00 00 00       	mov    $0x0,%edi
 804a010:	eb 08                	jmp    804a01a <cmd_line_parse+0x1f5>
 804a012:	c7 44 24 0c 00 00 00 00 	movl   $0x0,0xc(%esp)
 804a01a:	0f b6 1a             	movzbl (%edx),%ebx
 804a01d:	84 db                	test   %bl,%bl
 804a01f:	74 11                	je     804a032 <cmd_line_parse+0x20d>
 804a021:	3b 44 24 38          	cmp    0x38(%esp),%eax
 804a025:	0f 8c a5 fe ff ff    	jl     8049ed0 <cmd_line_parse+0xab>
 804a02b:	eb 05                	jmp    804a032 <cmd_line_parse+0x20d>
 804a02d:	b8 00 00 00 00       	mov    $0x0,%eax
 804a032:	83 c4 1c             	add    $0x1c,%esp
 804a035:	5b                   	pop    %ebx
 804a036:	5e                   	pop    %esi
 804a037:	5f                   	pop    %edi
 804a038:	5d                   	pop    %ebp
 804a039:	c3                   	ret    
 804a03a:	83 7c 24 0c 00       	cmpl   $0x0,0xc(%esp)
 804a03f:	0f 95 c3             	setne  %bl
 804a042:	89 dd                	mov    %ebx,%ebp
 804a044:	bf 01 00 00 00       	mov    $0x1,%edi
 804a049:	e9 d6 fe ff ff       	jmp    8049f24 <cmd_line_parse+0xff>
 804a04e:	bf 01 00 00 00       	mov    $0x1,%edi
 804a053:	eb 30                	jmp    804a085 <cmd_line_parse+0x260>
 804a055:	c7 44 24 0c 01 00 00 00 	movl   $0x1,0xc(%esp)
 804a05d:	eb 26                	jmp    804a085 <cmd_line_parse+0x260>
 804a05f:	bf 00 00 00 00       	mov    $0x0,%edi
 804a064:	eb 1f                	jmp    804a085 <cmd_line_parse+0x260>
 804a066:	89 4c 24 0c          	mov    %ecx,0xc(%esp)
 804a06a:	bf 01 00 00 00       	mov    $0x1,%edi
 804a06f:	eb 14                	jmp    804a085 <cmd_line_parse+0x260>
 804a071:	c7 44 24 0c 01 00 00 00 	movl   $0x1,0xc(%esp)
 804a079:	eb 0a                	jmp    804a085 <cmd_line_parse+0x260>
 804a07b:	89 4c 24 0c          	mov    %ecx,0xc(%esp)
 804a07f:	eb 04                	jmp    804a085 <cmd_line_parse+0x260>
 804a081:	89 4c 24 0c          	mov    %ecx,0xc(%esp)
 804a085:	c6 02 00             	movb   $0x0,(%edx)
 804a088:	83 c2 01             	add    $0x1,%edx
 804a08b:	eb 8d                	jmp    804a01a <cmd_line_parse+0x1f5>
 804a08d:	90                   	nop
 804a08e:	90                   	nop
 804a08f:	90                   	nop

0804a090 <ctrl_task>:
 804a090:	55                   	push   %ebp
 804a091:	57                   	push   %edi
 804a092:	56                   	push   %esi
 804a093:	53                   	push   %ebx
 804a094:	81 ec ec 02 00 00    	sub    $0x2ec,%esp
 804a09a:	8b 84 24 00 03 00 00 	mov    0x300(%esp),%eax
 804a0a1:	89 44 24 2c          	mov    %eax,0x2c(%esp)
 804a0a5:	65 8b 15 14 00 00 00 	mov    %gs:0x14,%edx
 804a0ac:	89 94 24 dc 02 00 00 	mov    %edx,0x2dc(%esp)
 804a0b3:	31 d2                	xor    %edx,%edx
 804a0b5:	8d 5c 24 3c          	lea    0x3c(%esp),%ebx
 804a0b9:	89 1c 24             	mov    %ebx,(%esp)
 804a0bc:	e8 ff ee ff ff       	call   8048fc0 <sigemptyset@plt>
 804a0c1:	c7 44 24 04 02 00 00 00 	movl   $0x2,0x4(%esp)
 804a0c9:	89 1c 24             	mov    %ebx,(%esp)
 804a0cc:	e8 3f ee ff ff       	call   8048f10 <sigaddset@plt>
 804a0d1:	c7 44 24 04 0f 00 00 00 	movl   $0xf,0x4(%esp)
 804a0d9:	89 1c 24             	mov    %ebx,(%esp)
 804a0dc:	e8 2f ee ff ff       	call   8048f10 <sigaddset@plt>
 804a0e1:	c7 44 24 04 03 00 00 00 	movl   $0x3,0x4(%esp)
 804a0e9:	89 1c 24             	mov    %ebx,(%esp)
 804a0ec:	e8 1f ee ff ff       	call   8048f10 <sigaddset@plt>
 804a0f1:	c7 44 24 04 06 00 00 00 	movl   $0x6,0x4(%esp)
 804a0f9:	89 1c 24             	mov    %ebx,(%esp)
 804a0fc:	e8 0f ee ff ff       	call   8048f10 <sigaddset@plt>
 804a101:	c7 44 24 08 00 00 00 00 	movl   $0x0,0x8(%esp)
 804a109:	89 5c 24 04          	mov    %ebx,0x4(%esp)
 804a10d:	c7 04 24 00 00 00 00 	movl   $0x0,(%esp)
 804a114:	e8 07 ec ff ff       	call   8048d20 <sigprocmask@plt>
 804a119:	c7 44 24 0c c1 dd 04 08 	movl   $0x804ddc1,0xc(%esp)
 804a121:	c7 44 24 08 c5 d9 04 08 	movl   $0x804d9c5,0x8(%esp)
 804a129:	c7 44 24 04 01 00 00 00 	movl   $0x1,0x4(%esp)
 804a131:	a1 40 13 05 08       	mov    0x8051340,%eax
 804a136:	89 04 24             	mov    %eax,(%esp)
 804a139:	e8 02 ef ff ff       	call   8049040 <__fprintf_chk@plt>
 804a13e:	a1 40 13 05 08       	mov    0x8051340,%eax
 804a143:	89 44 24 0c          	mov    %eax,0xc(%esp)
 804a147:	c7 44 24 08 07 00 00 00 	movl   $0x7,0x8(%esp)
 804a14f:	c7 44 24 04 01 00 00 00 	movl   $0x1,0x4(%esp)
 804a157:	c7 04 24 ca d9 04 08 	movl   $0x804d9ca,(%esp)
 804a15e:	e8 ad ec ff ff       	call   8048e10 <fwrite@plt>
 804a163:	e8 a8 ee ff ff       	call   8049010 <getppid@plt>
 804a168:	89 c3                	mov    %eax,%ebx
 804a16a:	e8 b1 ec ff ff       	call   8048e20 <getpid@plt>
 804a16f:	89 5c 24 10          	mov    %ebx,0x10(%esp)
 804a173:	89 44 24 0c          	mov    %eax,0xc(%esp)
 804a177:	c7 44 24 08 30 dd 04 08 	movl   $0x804dd30,0x8(%esp)
 804a17f:	c7 44 24 04 01 00 00 00 	movl   $0x1,0x4(%esp)
 804a187:	a1 40 13 05 08       	mov    0x8051340,%eax
 804a18c:	89 04 24             	mov    %eax,(%esp)
 804a18f:	e8 ac ee ff ff       	call   8049040 <__fprintf_chk@plt>
 804a194:	a1 40 13 05 08       	mov    0x8051340,%eax
 804a199:	89 44 24 04          	mov    %eax,0x4(%esp)
 804a19d:	c7 04 24 0a 00 00 00 	movl   $0xa,(%esp)
 804a1a4:	e8 47 ee ff ff       	call   8048ff0 <fputc@plt>
 804a1a9:	8d b4 24 dc 00 00 00 	lea    0xdc(%esp),%esi
 804a1b0:	8d ac 24 bc 00 00 00 	lea    0xbc(%esp),%ebp
 804a1b7:	c7 44 24 04 00 00 00 00 	movl   $0x0,0x4(%esp)
 804a1bf:	8b 44 24 2c          	mov    0x2c(%esp),%eax
 804a1c3:	89 04 24             	mov    %eax,(%esp)
 804a1c6:	e8 c5 ec ff ff       	call   8048e90 <open@plt>
 804a1cb:	89 c7                	mov    %eax,%edi
 804a1cd:	85 c0                	test   %eax,%eax
 804a1cf:	0f 89 8e 00 00 00    	jns    804a263 <ctrl_task+0x1d3>
 804a1d5:	c7 44 24 0c c1 dd 04 08 	movl   $0x804ddc1,0xc(%esp)
 804a1dd:	c7 44 24 08 c5 d9 04 08 	movl   $0x804d9c5,0x8(%esp)
 804a1e5:	c7 44 24 04 01 00 00 00 	movl   $0x1,0x4(%esp)
 804a1ed:	a1 40 13 05 08       	mov    0x8051340,%eax
 804a1f2:	89 04 24             	mov    %eax,(%esp)
 804a1f5:	e8 46 ee ff ff       	call   8049040 <__fprintf_chk@plt>
 804a1fa:	a1 40 13 05 08       	mov    0x8051340,%eax
 804a1ff:	89 44 24 0c          	mov    %eax,0xc(%esp)
 804a203:	c7 44 24 08 09 00 00 00 	movl   $0x9,0x8(%esp)
 804a20b:	c7 44 24 04 01 00 00 00 	movl   $0x1,0x4(%esp)
 804a213:	c7 04 24 d2 d9 04 08 	movl   $0x804d9d2,(%esp)
 804a21a:	e8 f1 eb ff ff       	call   8048e10 <fwrite@plt>
 804a21f:	8b 54 24 2c          	mov    0x2c(%esp),%edx
 804a223:	89 54 24 0c          	mov    %edx,0xc(%esp)
 804a227:	c7 44 24 08 42 dd 04 08 	movl   $0x804dd42,0x8(%esp)
 804a22f:	c7 44 24 04 01 00 00 00 	movl   $0x1,0x4(%esp)
 804a237:	a1 40 13 05 08       	mov    0x8051340,%eax
 804a23c:	89 04 24             	mov    %eax,(%esp)
 804a23f:	e8 fc ed ff ff       	call   8049040 <__fprintf_chk@plt>
 804a244:	a1 40 13 05 08       	mov    0x8051340,%eax
 804a249:	89 44 24 04          	mov    %eax,0x4(%esp)
 804a24d:	c7 04 24 0a 00 00 00 	movl   $0xa,(%esp)
 804a254:	e8 97 ed ff ff       	call   8048ff0 <fputc@plt>
 804a259:	bb ff ff ff ff       	mov    $0xffffffff,%ebx
 804a25e:	e9 f7 01 00 00       	jmp    804a45a <ctrl_task+0x3ca>
 804a263:	a3 24 14 05 08       	mov    %eax,0x8051424
 804a268:	e9 38 01 00 00       	jmp    804a3a5 <ctrl_task+0x315>
 804a26d:	c6 84 1c dc 00 00 00 00 	movb   $0x0,0xdc(%esp,%ebx,1)
 804a275:	c7 44 24 08 08 00 00 00 	movl   $0x8,0x8(%esp)
 804a27d:	89 6c 24 04          	mov    %ebp,0x4(%esp)
 804a281:	89 34 24             	mov    %esi,(%esp)
 804a284:	e8 9c fb ff ff       	call   8049e25 <cmd_line_parse>
 804a289:	89 c3                	mov    %eax,%ebx
 804a28b:	85 c0                	test   %eax,%eax
 804a28d:	0f 84 12 01 00 00    	je     804a3a5 <ctrl_task+0x315>
 804a293:	c7 44 24 0c c1 dd 04 08 	movl   $0x804ddc1,0xc(%esp)
 804a29b:	c7 44 24 08 c5 d9 04 08 	movl   $0x804d9c5,0x8(%esp)
 804a2a3:	c7 44 24 04 01 00 00 00 	movl   $0x1,0x4(%esp)
 804a2ab:	a1 40 13 05 08       	mov    0x8051340,%eax
 804a2b0:	89 04 24             	mov    %eax,(%esp)
 804a2b3:	e8 88 ed ff ff       	call   8049040 <__fprintf_chk@plt>
 804a2b8:	a1 40 13 05 08       	mov    0x8051340,%eax
 804a2bd:	89 44 24 0c          	mov    %eax,0xc(%esp)
 804a2c1:	c7 44 24 08 07 00 00 00 	movl   $0x7,0x8(%esp)
 804a2c9:	c7 44 24 04 01 00 00 00 	movl   $0x1,0x4(%esp)
 804a2d1:	c7 04 24 ca d9 04 08 	movl   $0x804d9ca,(%esp)
 804a2d8:	e8 33 eb ff ff       	call   8048e10 <fwrite@plt>
 804a2dd:	a1 40 13 05 08       	mov    0x8051340,%eax
 804a2e2:	89 44 24 04          	mov    %eax,0x4(%esp)
 804a2e6:	8b 84 24 bc 00 00 00 	mov    0xbc(%esp),%eax
 804a2ed:	89 04 24             	mov    %eax,(%esp)
 804a2f0:	e8 9b ed ff ff       	call   8049090 <fputs@plt>
 804a2f5:	a1 40 13 05 08       	mov    0x8051340,%eax
 804a2fa:	89 44 24 04          	mov    %eax,0x4(%esp)
 804a2fe:	c7 04 24 0a 00 00 00 	movl   $0xa,(%esp)
 804a305:	e8 e6 ec ff ff       	call   8048ff0 <fputc@plt>
 804a30a:	89 6c 24 04          	mov    %ebp,0x4(%esp)
 804a30e:	89 1c 24             	mov    %ebx,(%esp)
 804a311:	e8 a0 fa ff ff       	call   8049db6 <cmd_exec>
 804a316:	85 c0                	test   %eax,%eax
 804a318:	0f 89 87 00 00 00    	jns    804a3a5 <ctrl_task+0x315>
 804a31e:	c7 44 24 0c c1 dd 04 08 	movl   $0x804ddc1,0xc(%esp)
 804a326:	c7 44 24 08 c5 d9 04 08 	movl   $0x804d9c5,0x8(%esp)
 804a32e:	c7 44 24 04 01 00 00 00 	movl   $0x1,0x4(%esp)
 804a336:	a1 40 13 05 08       	mov    0x8051340,%eax
 804a33b:	89 04 24             	mov    %eax,(%esp)
 804a33e:	e8 fd ec ff ff       	call   8049040 <__fprintf_chk@plt>
 804a343:	a1 40 13 05 08       	mov    0x8051340,%eax
 804a348:	89 44 24 0c          	mov    %eax,0xc(%esp)
 804a34c:	c7 44 24 08 09 00 00 00 	movl   $0x9,0x8(%esp)
 804a354:	c7 44 24 04 01 00 00 00 	movl   $0x1,0x4(%esp)
 804a35c:	c7 04 24 d2 d9 04 08 	movl   $0x804d9d2,(%esp)
 804a363:	e8 a8 ea ff ff       	call   8048e10 <fwrite@plt>
 804a368:	8b 84 24 bc 00 00 00 	mov    0xbc(%esp),%eax
 804a36f:	89 44 24 0c          	mov    %eax,0xc(%esp)
 804a373:	c7 44 24 08 56 dd 04 08 	movl   $0x804dd56,0x8(%esp)
 804a37b:	c7 44 24 04 01 00 00 00 	movl   $0x1,0x4(%esp)
 804a383:	a1 40 13 05 08       	mov    0x8051340,%eax
 804a388:	89 04 24             	mov    %eax,(%esp)
 804a38b:	e8 b0 ec ff ff       	call   8049040 <__fprintf_chk@plt>
 804a390:	a1 40 13 05 08       	mov    0x8051340,%eax
 804a395:	89 44 24 04          	mov    %eax,0x4(%esp)
 804a399:	c7 04 24 0a 00 00 00 	movl   $0xa,(%esp)
 804a3a0:	e8 4b ec ff ff       	call   8048ff0 <fputc@plt>
 804a3a5:	c7 44 24 08 00 02 00 00 	movl   $0x200,0x8(%esp)
 804a3ad:	89 74 24 04          	mov    %esi,0x4(%esp)
 804a3b1:	89 3c 24             	mov    %edi,(%esp)
 804a3b4:	e8 47 e9 ff ff       	call   8048d00 <read@plt>
 804a3b9:	89 c3                	mov    %eax,%ebx
 804a3bb:	85 c0                	test   %eax,%eax
 804a3bd:	0f 8f aa fe ff ff    	jg     804a26d <ctrl_task+0x1dd>
 804a3c3:	85 c0                	test   %eax,%eax
 804a3c5:	0f 89 82 00 00 00    	jns    804a44d <ctrl_task+0x3bd>
 804a3cb:	c7 44 24 0c c1 dd 04 08 	movl   $0x804ddc1,0xc(%esp)
 804a3d3:	c7 44 24 08 c5 d9 04 08 	movl   $0x804d9c5,0x8(%esp)
 804a3db:	c7 44 24 04 01 00 00 00 	movl   $0x1,0x4(%esp)
 804a3e3:	a1 40 13 05 08       	mov    0x8051340,%eax
 804a3e8:	89 04 24             	mov    %eax,(%esp)
 804a3eb:	e8 50 ec ff ff       	call   8049040 <__fprintf_chk@plt>
 804a3f0:	a1 40 13 05 08       	mov    0x8051340,%eax
 804a3f5:	89 44 24 0c          	mov    %eax,0xc(%esp)
 804a3f9:	c7 44 24 08 09 00 00 00 	movl   $0x9,0x8(%esp)
 804a401:	c7 44 24 04 01 00 00 00 	movl   $0x1,0x4(%esp)
 804a409:	c7 04 24 d2 d9 04 08 	movl   $0x804d9d2,(%esp)
 804a410:	e8 fb e9 ff ff       	call   8048e10 <fwrite@plt>
 804a415:	89 5c 24 0c          	mov    %ebx,0xc(%esp)
 804a419:	c7 44 24 08 68 dd 04 08 	movl   $0x804dd68,0x8(%esp)
 804a421:	c7 44 24 04 01 00 00 00 	movl   $0x1,0x4(%esp)
 804a429:	a1 40 13 05 08       	mov    0x8051340,%eax
 804a42e:	89 04 24             	mov    %eax,(%esp)
 804a431:	e8 0a ec ff ff       	call   8049040 <__fprintf_chk@plt>
 804a436:	a1 40 13 05 08       	mov    0x8051340,%eax
 804a43b:	89 44 24 04          	mov    %eax,0x4(%esp)
 804a43f:	c7 04 24 0a 00 00 00 	movl   $0xa,(%esp)
 804a446:	e8 a5 eb ff ff       	call   8048ff0 <fputc@plt>
 804a44b:	eb 0d                	jmp    804a45a <ctrl_task+0x3ca>
 804a44d:	89 3c 24             	mov    %edi,(%esp)
 804a450:	e8 4b ec ff ff       	call   80490a0 <close@plt>
 804a455:	e9 5d fd ff ff       	jmp    804a1b7 <ctrl_task+0x127>
 804a45a:	89 d8                	mov    %ebx,%eax
 804a45c:	8b 94 24 dc 02 00 00 	mov    0x2dc(%esp),%edx
 804a463:	65 33 15 14 00 00 00 	xor    %gs:0x14,%edx
 804a46a:	74 09                	je     804a475 <ctrl_task+0x3e5>
 804a46c:	8d 74 26 00          	lea    0x0(%esi,%eiz,1),%esi
 804a470:	e8 3b e9 ff ff       	call   8048db0 <__stack_chk_fail@plt>
 804a475:	81 c4 ec 02 00 00    	add    $0x2ec,%esp
 804a47b:	5b                   	pop    %ebx
 804a47c:	5e                   	pop    %esi
 804a47d:	5f                   	pop    %edi
 804a47e:	5d                   	pop    %ebp
 804a47f:	c3                   	ret    

0804a480 <ctrl_start>:
 804a480:	53                   	push   %ebx
 804a481:	83 ec 18             	sub    $0x18,%esp
 804a484:	8b 5c 24 20          	mov    0x20(%esp),%ebx
 804a488:	85 db                	test   %ebx,%ebx
 804a48a:	0f 84 ec 01 00 00    	je     804a67c <ctrl_start+0x1fc>
 804a490:	89 1c 24             	mov    %ebx,(%esp)
 804a493:	e8 48 e9 ff ff       	call   8048de0 <unlink@plt>
 804a498:	c7 44 24 0c b6 dd 04 08 	movl   $0x804ddb6,0xc(%esp)
 804a4a0:	c7 44 24 08 c5 d9 04 08 	movl   $0x804d9c5,0x8(%esp)
 804a4a8:	c7 44 24 04 01 00 00 00 	movl   $0x1,0x4(%esp)
 804a4b0:	a1 40 13 05 08       	mov    0x8051340,%eax
 804a4b5:	89 04 24             	mov    %eax,(%esp)
 804a4b8:	e8 83 eb ff ff       	call   8049040 <__fprintf_chk@plt>
 804a4bd:	a1 40 13 05 08       	mov    0x8051340,%eax
 804a4c2:	89 44 24 0c          	mov    %eax,0xc(%esp)
 804a4c6:	c7 44 24 08 07 00 00 00 	movl   $0x7,0x8(%esp)
 804a4ce:	c7 44 24 04 01 00 00 00 	movl   $0x1,0x4(%esp)
 804a4d6:	c7 04 24 ca d9 04 08 	movl   $0x804d9ca,(%esp)
 804a4dd:	e8 2e e9 ff ff       	call   8048e10 <fwrite@plt>
 804a4e2:	89 5c 24 0c          	mov    %ebx,0xc(%esp)
 804a4e6:	c7 44 24 08 75 dd 04 08 	movl   $0x804dd75,0x8(%esp)
 804a4ee:	c7 44 24 04 01 00 00 00 	movl   $0x1,0x4(%esp)
 804a4f6:	a1 40 13 05 08       	mov    0x8051340,%eax
 804a4fb:	89 04 24             	mov    %eax,(%esp)
 804a4fe:	e8 3d eb ff ff       	call   8049040 <__fprintf_chk@plt>
 804a503:	a1 40 13 05 08       	mov    0x8051340,%eax
 804a508:	89 44 24 04          	mov    %eax,0x4(%esp)
 804a50c:	c7 04 24 0a 00 00 00 	movl   $0xa,(%esp)
 804a513:	e8 d8 ea ff ff       	call   8048ff0 <fputc@plt>
 804a518:	c7 44 24 04 a4 01 00 00 	movl   $0x1a4,0x4(%esp)
 804a520:	89 1c 24             	mov    %ebx,(%esp)
 804a523:	e8 88 eb ff ff       	call   80490b0 <mkfifo@plt>
 804a528:	85 c0                	test   %eax,%eax
 804a52a:	0f 89 8a 00 00 00    	jns    804a5ba <ctrl_start+0x13a>
 804a530:	c7 44 24 0c b6 dd 04 08 	movl   $0x804ddb6,0xc(%esp)
 804a538:	c7 44 24 08 c5 d9 04 08 	movl   $0x804d9c5,0x8(%esp)
 804a540:	c7 44 24 04 01 00 00 00 	movl   $0x1,0x4(%esp)
 804a548:	a1 40 13 05 08       	mov    0x8051340,%eax
 804a54d:	89 04 24             	mov    %eax,(%esp)
 804a550:	e8 eb ea ff ff       	call   8049040 <__fprintf_chk@plt>
 804a555:	a1 40 13 05 08       	mov    0x8051340,%eax
 804a55a:	89 44 24 0c          	mov    %eax,0xc(%esp)
 804a55e:	c7 44 24 08 09 00 00 00 	movl   $0x9,0x8(%esp)
 804a566:	c7 44 24 04 01 00 00 00 	movl   $0x1,0x4(%esp)
 804a56e:	c7 04 24 d2 d9 04 08 	movl   $0x804d9d2,(%esp)
 804a575:	e8 96 e8 ff ff       	call   8048e10 <fwrite@plt>
 804a57a:	89 5c 24 0c          	mov    %ebx,0xc(%esp)
 804a57e:	c7 44 24 08 83 dd 04 08 	movl   $0x804dd83,0x8(%esp)
 804a586:	c7 44 24 04 01 00 00 00 	movl   $0x1,0x4(%esp)
 804a58e:	a1 40 13 05 08       	mov    0x8051340,%eax
 804a593:	89 04 24             	mov    %eax,(%esp)
 804a596:	e8 a5 ea ff ff       	call   8049040 <__fprintf_chk@plt>
 804a59b:	a1 40 13 05 08       	mov    0x8051340,%eax
 804a5a0:	89 44 24 04          	mov    %eax,0x4(%esp)
 804a5a4:	c7 04 24 0a 00 00 00 	movl   $0xa,(%esp)
 804a5ab:	e8 40 ea ff ff       	call   8048ff0 <fputc@plt>
 804a5b0:	b8 ff ff ff ff       	mov    $0xffffffff,%eax
 804a5b5:	e9 c7 00 00 00       	jmp    804a681 <ctrl_start+0x201>
 804a5ba:	c7 44 24 08 80 00 00 00 	movl   $0x80,0x8(%esp)
 804a5c2:	89 5c 24 04          	mov    %ebx,0x4(%esp)
 804a5c6:	c7 04 24 a0 13 05 08 	movl   $0x80513a0,(%esp)
 804a5cd:	e8 be e9 ff ff       	call   8048f90 <__strcpy_chk@plt>
 804a5d2:	c7 44 24 0c b6 dd 04 08 	movl   $0x804ddb6,0xc(%esp)
 804a5da:	c7 44 24 08 c5 d9 04 08 	movl   $0x804d9c5,0x8(%esp)
 804a5e2:	c7 44 24 04 01 00 00 00 	movl   $0x1,0x4(%esp)
 804a5ea:	a1 40 13 05 08       	mov    0x8051340,%eax
 804a5ef:	89 04 24             	mov    %eax,(%esp)
 804a5f2:	e8 49 ea ff ff       	call   8049040 <__fprintf_chk@plt>
 804a5f7:	a1 40 13 05 08       	mov    0x8051340,%eax
 804a5fc:	89 44 24 0c          	mov    %eax,0xc(%esp)
 804a600:	c7 44 24 08 07 00 00 00 	movl   $0x7,0x8(%esp)
 804a608:	c7 44 24 04 01 00 00 00 	movl   $0x1,0x4(%esp)
 804a610:	c7 04 24 ca d9 04 08 	movl   $0x804d9ca,(%esp)
 804a617:	e8 f4 e7 ff ff       	call   8048e10 <fwrite@plt>
 804a61c:	a1 40 13 05 08       	mov    0x8051340,%eax
 804a621:	89 44 24 0c          	mov    %eax,0xc(%esp)
 804a625:	c7 44 24 08 13 00 00 00 	movl   $0x13,0x8(%esp)
 804a62d:	c7 44 24 04 01 00 00 00 	movl   $0x1,0x4(%esp)
 804a635:	c7 04 24 99 dd 04 08 	movl   $0x804dd99,(%esp)
 804a63c:	e8 cf e7 ff ff       	call   8048e10 <fwrite@plt>
 804a641:	a1 40 13 05 08       	mov    0x8051340,%eax
 804a646:	89 44 24 04          	mov    %eax,0x4(%esp)
 804a64a:	c7 04 24 0a 00 00 00 	movl   $0xa,(%esp)
 804a651:	e8 9a e9 ff ff       	call   8048ff0 <fputc@plt>
 804a656:	c7 44 24 0c a0 13 05 08 	movl   $0x80513a0,0xc(%esp)
 804a65e:	c7 44 24 08 90 a0 04 08 	movl   $0x804a090,0x8(%esp)
 804a666:	c7 44 24 04 00 00 00 00 	movl   $0x0,0x4(%esp)
 804a66e:	c7 04 24 20 14 05 08 	movl   $0x8051420,(%esp)
 804a675:	e8 d6 e9 ff ff       	call   8049050 <pthread_create@plt>
 804a67a:	eb 05                	jmp    804a681 <ctrl_start+0x201>
 804a67c:	b8 ff ff ff ff       	mov    $0xffffffff,%eax
 804a681:	83 c4 18             	add    $0x18,%esp
 804a684:	5b                   	pop    %ebx
 804a685:	c3                   	ret    

0804a686 <ctrl_stop>:
 804a686:	83 ec 1c             	sub    $0x1c,%esp
 804a689:	a1 24 14 05 08       	mov    0x8051424,%eax
 804a68e:	89 04 24             	mov    %eax,(%esp)
 804a691:	e8 0a ea ff ff       	call   80490a0 <close@plt>
 804a696:	a1 20 14 05 08       	mov    0x8051420,%eax
 804a69b:	89 04 24             	mov    %eax,(%esp)
 804a69e:	e8 bd e8 ff ff       	call   8048f60 <pthread_cancel@plt>
 804a6a3:	c7 44 24 04 00 00 00 00 	movl   $0x0,0x4(%esp)
 804a6ab:	a1 20 14 05 08       	mov    0x8051420,%eax
 804a6b0:	89 04 24             	mov    %eax,(%esp)
 804a6b3:	e8 48 e9 ff ff       	call   8049000 <pthread_join@plt>
 804a6b8:	c7 04 24 a0 13 05 08 	movl   $0x80513a0,(%esp)
 804a6bf:	e8 1c e7 ff ff       	call   8048de0 <unlink@plt>
 804a6c4:	c7 44 24 0c cb dd 04 08 	movl   $0x804ddcb,0xc(%esp)
 804a6cc:	c7 44 24 08 c5 d9 04 08 	movl   $0x804d9c5,0x8(%esp)
 804a6d4:	c7 44 24 04 01 00 00 00 	movl   $0x1,0x4(%esp)
 804a6dc:	a1 40 13 05 08       	mov    0x8051340,%eax
 804a6e1:	89 04 24             	mov    %eax,(%esp)
 804a6e4:	e8 57 e9 ff ff       	call   8049040 <__fprintf_chk@plt>
 804a6e9:	a1 40 13 05 08       	mov    0x8051340,%eax
 804a6ee:	89 44 24 0c          	mov    %eax,0xc(%esp)
 804a6f2:	c7 44 24 08 07 00 00 00 	movl   $0x7,0x8(%esp)
 804a6fa:	c7 44 24 04 01 00 00 00 	movl   $0x1,0x4(%esp)
 804a702:	c7 04 24 ca d9 04 08 	movl   $0x804d9ca,(%esp)
 804a709:	e8 02 e7 ff ff       	call   8048e10 <fwrite@plt>
 804a70e:	a1 40 13 05 08       	mov    0x8051340,%eax
 804a713:	89 44 24 0c          	mov    %eax,0xc(%esp)
 804a717:	c7 44 24 08 08 00 00 00 	movl   $0x8,0x8(%esp)
 804a71f:	c7 44 24 04 01 00 00 00 	movl   $0x1,0x4(%esp)
 804a727:	c7 04 24 ad dd 04 08 	movl   $0x804ddad,(%esp)
 804a72e:	e8 dd e6 ff ff       	call   8048e10 <fwrite@plt>
 804a733:	a1 40 13 05 08       	mov    0x8051340,%eax
 804a738:	89 44 24 04          	mov    %eax,0x4(%esp)
 804a73c:	c7 04 24 0a 00 00 00 	movl   $0xa,(%esp)
 804a743:	e8 a8 e8 ff ff       	call   8048ff0 <fputc@plt>
 804a748:	b8 00 00 00 00       	mov    $0x0,%eax
 804a74d:	83 c4 1c             	add    $0x1c,%esp
 804a750:	c3                   	ret    
 804a751:	90                   	nop
 804a752:	90                   	nop
 804a753:	90                   	nop
 804a754:	90                   	nop
 804a755:	90                   	nop
 804a756:	90                   	nop
 804a757:	90                   	nop
 804a758:	90                   	nop
 804a759:	90                   	nop
 804a75a:	90                   	nop
 804a75b:	90                   	nop
 804a75c:	90                   	nop
 804a75d:	90                   	nop
 804a75e:	90                   	nop
 804a75f:	90                   	nop

0804a760 <server_disconnect>:
 804a760:	83 ec 1c             	sub    $0x1c,%esp
 804a763:	a1 20 15 05 08       	mov    0x8051520,%eax
 804a768:	89 04 24             	mov    %eax,(%esp)
 804a76b:	e8 30 e9 ff ff       	call   80490a0 <close@plt>
 804a770:	c7 05 20 15 05 08 ff ff ff ff 	movl   $0xffffffff,0x8051520
 804a77a:	b8 00 00 00 00       	mov    $0x0,%eax
 804a77f:	83 c4 1c             	add    $0x1c,%esp
 804a782:	c3                   	ret    

0804a783 <server_extract_fname>:
 804a783:	53                   	push   %ebx
 804a784:	83 ec 18             	sub    $0x18,%esp
 804a787:	8b 5c 24 20          	mov    0x20(%esp),%ebx
 804a78b:	c7 44 24 04 2f 00 00 00 	movl   $0x2f,0x4(%esp)
 804a793:	89 1c 24             	mov    %ebx,(%esp)
 804a796:	e8 45 e8 ff ff       	call   8048fe0 <strrchr@plt>
 804a79b:	8d 50 01             	lea    0x1(%eax),%edx
 804a79e:	85 c0                	test   %eax,%eax
 804a7a0:	89 d0                	mov    %edx,%eax
 804a7a2:	0f 44 c3             	cmove  %ebx,%eax
 804a7a5:	83 c4 18             	add    $0x18,%esp
 804a7a8:	5b                   	pop    %ebx
 804a7a9:	c3                   	ret    

0804a7aa <server_send_package>:
 804a7aa:	57                   	push   %edi
 804a7ab:	81 ec 38 02 00 00    	sub    $0x238,%esp
 804a7b1:	8b 94 24 40 02 00 00 	mov    0x240(%esp),%edx
 804a7b8:	8b 84 24 44 02 00 00 	mov    0x244(%esp),%eax
 804a7bf:	65 8b 0d 14 00 00 00 	mov    %gs:0x14,%ecx
 804a7c6:	89 8c 24 2c 02 00 00 	mov    %ecx,0x22c(%esp)
 804a7cd:	31 c9                	xor    %ecx,%ecx
 804a7cf:	83 3d 20 15 05 08 00 	cmpl   $0x0,0x8051520
 804a7d6:	0f 88 88 00 00 00    	js     804a864 <server_send_package+0xba>
 804a7dc:	85 c0                	test   %eax,%eax
 804a7de:	74 2e                	je     804a80e <server_send_package+0x64>
 804a7e0:	89 44 24 14          	mov    %eax,0x14(%esp)
 804a7e4:	89 54 24 10          	mov    %edx,0x10(%esp)
 804a7e8:	c7 44 24 0c d5 dd 04 08 	movl   $0x804ddd5,0xc(%esp)
 804a7f0:	c7 44 24 08 00 02 00 00 	movl   $0x200,0x8(%esp)
 804a7f8:	c7 44 24 04 01 00 00 00 	movl   $0x1,0x4(%esp)
 804a800:	8d 44 24 2c          	lea    0x2c(%esp),%eax
 804a804:	89 04 24             	mov    %eax,(%esp)
 804a807:	e8 c4 e8 ff ff       	call   80490d0 <__sprintf_chk@plt>
 804a80c:	eb 28                	jmp    804a836 <server_send_package+0x8c>
 804a80e:	89 54 24 10          	mov    %edx,0x10(%esp)
 804a812:	c7 44 24 0c dd dd 04 08 	movl   $0x804dddd,0xc(%esp)
 804a81a:	c7 44 24 08 00 02 00 00 	movl   $0x200,0x8(%esp)
 804a822:	c7 44 24 04 01 00 00 00 	movl   $0x1,0x4(%esp)
 804a82a:	8d 44 24 2c          	lea    0x2c(%esp),%eax
 804a82e:	89 04 24             	mov    %eax,(%esp)
 804a831:	e8 9a e8 ff ff       	call   80490d0 <__sprintf_chk@plt>
 804a836:	8d 54 24 2c          	lea    0x2c(%esp),%edx
 804a83a:	89 d7                	mov    %edx,%edi
 804a83c:	b8 00 00 00 00       	mov    $0x0,%eax
 804a841:	b9 ff ff ff ff       	mov    $0xffffffff,%ecx
 804a846:	f2 ae                	repnz scas %es:(%edi),%al
 804a848:	f7 d1                	not    %ecx
 804a84a:	83 e9 01             	sub    $0x1,%ecx
 804a84d:	89 4c 24 08          	mov    %ecx,0x8(%esp)
 804a851:	89 54 24 04          	mov    %edx,0x4(%esp)
 804a855:	a1 20 15 05 08       	mov    0x8051520,%eax
 804a85a:	89 04 24             	mov    %eax,(%esp)
 804a85d:	e8 8e e6 ff ff       	call   8048ef0 <write@plt>
 804a862:	eb 05                	jmp    804a869 <server_send_package+0xbf>
 804a864:	b8 f1 ff ff ff       	mov    $0xfffffff1,%eax
 804a869:	8b 94 24 2c 02 00 00 	mov    0x22c(%esp),%edx
 804a870:	65 33 15 14 00 00 00 	xor    %gs:0x14,%edx
 804a877:	74 05                	je     804a87e <server_send_package+0xd4>
 804a879:	e8 32 e5 ff ff       	call   8048db0 <__stack_chk_fail@plt>
 804a87e:	81 c4 38 02 00 00    	add    $0x238,%esp
 804a884:	5f                   	pop    %edi
 804a885:	c3                   	ret    

0804a886 <server_parse>:
 804a886:	55                   	push   %ebp
 804a887:	57                   	push   %edi
 804a888:	56                   	push   %esi
 804a889:	53                   	push   %ebx
 804a88a:	83 ec 1c             	sub    $0x1c,%esp
 804a88d:	8b 7c 24 30          	mov    0x30(%esp),%edi
 804a891:	b8 00 00 00 00       	mov    $0x0,%eax
 804a896:	85 ff                	test   %edi,%edi
 804a898:	0f 84 0e 02 00 00    	je     804aaac <server_parse+0x226>
 804a89e:	e8 1d e8 ff ff       	call   80490c0 <__ctype_b_loc@plt>
 804a8a3:	89 c6                	mov    %eax,%esi
 804a8a5:	8b 18                	mov    (%eax),%ebx
 804a8a7:	89 fa                	mov    %edi,%edx
 804a8a9:	eb 03                	jmp    804a8ae <server_parse+0x28>
 804a8ab:	83 c2 01             	add    $0x1,%edx
 804a8ae:	0f b6 02             	movzbl (%edx),%eax
 804a8b1:	0f be c8             	movsbl %al,%ecx
 804a8b4:	f6 44 4b 01 20       	testb  $0x20,0x1(%ebx,%ecx,2)
 804a8b9:	75 f0                	jne    804a8ab <server_parse+0x25>
 804a8bb:	89 d5                	mov    %edx,%ebp
 804a8bd:	84 c0                	test   %al,%al
 804a8bf:	74 37                	je     804a8f8 <server_parse+0x72>
 804a8c1:	89 d7                	mov    %edx,%edi
 804a8c3:	b8 00 00 00 00       	mov    $0x0,%eax
 804a8c8:	b9 ff ff ff ff       	mov    $0xffffffff,%ecx
 804a8cd:	f2 ae                	repnz scas %es:(%edi),%al
 804a8cf:	f7 d1                	not    %ecx
 804a8d1:	8d 44 0a fe          	lea    -0x2(%edx,%ecx,1),%eax
 804a8d5:	39 c2                	cmp    %eax,%edx
 804a8d7:	73 1b                	jae    804a8f4 <server_parse+0x6e>
 804a8d9:	0f be 08             	movsbl (%eax),%ecx
 804a8dc:	f6 44 4b 01 20       	testb  $0x20,0x1(%ebx,%ecx,2)
 804a8e1:	74 11                	je     804a8f4 <server_parse+0x6e>
 804a8e3:	83 e8 01             	sub    $0x1,%eax
 804a8e6:	39 e8                	cmp    %ebp,%eax
 804a8e8:	74 0a                	je     804a8f4 <server_parse+0x6e>
 804a8ea:	0f be 08             	movsbl (%eax),%ecx
 804a8ed:	f6 44 4b 01 20       	testb  $0x20,0x1(%ebx,%ecx,2)
 804a8f2:	75 ef                	jne    804a8e3 <server_parse+0x5d>
 804a8f4:	c6 40 01 00          	movb   $0x0,0x1(%eax)
 804a8f8:	b8 00 00 00 00       	mov    $0x0,%eax
 804a8fd:	85 ed                	test   %ebp,%ebp
 804a8ff:	0f 84 a7 01 00 00    	je     804aaac <server_parse+0x226>
 804a905:	0f b6 45 00          	movzbl 0x0(%ebp),%eax
 804a909:	3c 0a                	cmp    $0xa,%al
 804a90b:	0f 84 96 01 00 00    	je     804aaa7 <server_parse+0x221>
 804a911:	3c 0d                	cmp    $0xd,%al
 804a913:	0f 84 8e 01 00 00    	je     804aaa7 <server_parse+0x221>
 804a919:	b8 00 00 00 00       	mov    $0x0,%eax
 804a91e:	bf 00 00 00 00       	mov    $0x0,%edi
 804a923:	b9 00 00 00 00       	mov    $0x0,%ecx
 804a928:	89 4c 24 0c          	mov    %ecx,0xc(%esp)
 804a92c:	e9 63 01 00 00       	jmp    804aa94 <server_parse+0x20e>
 804a931:	0f be db             	movsbl %bl,%ebx
 804a934:	8b 2e                	mov    (%esi),%ebp
 804a936:	f6 44 5d 01 20       	testb  $0x20,0x1(%ebp,%ebx,2)
 804a93b:	74 08                	je     804a945 <server_parse+0xbf>
 804a93d:	83 c2 01             	add    $0x1,%edx
 804a940:	e9 4f 01 00 00       	jmp    804aa94 <server_parse+0x20e>
 804a945:	83 fb 28             	cmp    $0x28,%ebx
 804a948:	75 0f                	jne    804a959 <server_parse+0xd3>
 804a94a:	83 c2 01             	add    $0x1,%edx
 804a94d:	83 44 24 0c 01       	addl   $0x1,0xc(%esp)
 804a952:	0f 95 c1             	setne  %cl
 804a955:	89 cd                	mov    %ecx,%ebp
 804a957:	eb 2c                	jmp    804a985 <server_parse+0xff>
 804a959:	83 fb 22             	cmp    $0x22,%ebx
 804a95c:	75 10                	jne    804a96e <server_parse+0xe8>
 804a95e:	83 c2 01             	add    $0x1,%edx
 804a961:	85 ff                	test   %edi,%edi
 804a963:	0f 85 16 01 00 00    	jne    804aa7f <server_parse+0x1f9>
 804a969:	e9 46 01 00 00       	jmp    804aab4 <server_parse+0x22e>
 804a96e:	83 7c 24 0c 00       	cmpl   $0x0,0xc(%esp)
 804a973:	0f 95 c1             	setne  %cl
 804a976:	89 cd                	mov    %ecx,%ebp
 804a978:	83 fb 29             	cmp    $0x29,%ebx
 804a97b:	75 08                	jne    804a985 <server_parse+0xff>
 804a97d:	84 c9                	test   %cl,%cl
 804a97f:	0f 85 01 01 00 00    	jne    804aa86 <server_parse+0x200>
 804a985:	8b 5c 24 34          	mov    0x34(%esp),%ebx
 804a989:	89 14 83             	mov    %edx,(%ebx,%eax,4)
 804a98c:	83 c0 01             	add    $0x1,%eax
 804a98f:	89 e9                	mov    %ebp,%ecx
 804a991:	84 c9                	test   %cl,%cl
 804a993:	74 3a                	je     804a9cf <server_parse+0x149>
 804a995:	0f be 1a             	movsbl (%edx),%ebx
 804a998:	85 db                	test   %ebx,%ebx
 804a99a:	0f 84 f4 00 00 00    	je     804aa94 <server_parse+0x20e>
 804a9a0:	8b 4c 24 0c          	mov    0xc(%esp),%ecx
 804a9a4:	83 fb 28             	cmp    $0x28,%ebx
 804a9a7:	75 05                	jne    804a9ae <server_parse+0x128>
 804a9a9:	83 c1 01             	add    $0x1,%ecx
 804a9ac:	eb 0e                	jmp    804a9bc <server_parse+0x136>
 804a9ae:	83 fb 29             	cmp    $0x29,%ebx
 804a9b1:	75 09                	jne    804a9bc <server_parse+0x136>
 804a9b3:	83 e9 01             	sub    $0x1,%ecx
 804a9b6:	0f 84 32 01 00 00    	je     804aaee <server_parse+0x268>
 804a9bc:	83 c2 01             	add    $0x1,%edx
 804a9bf:	0f be 1a             	movsbl (%edx),%ebx
 804a9c2:	85 db                	test   %ebx,%ebx
 804a9c4:	75 de                	jne    804a9a4 <server_parse+0x11e>
 804a9c6:	89 4c 24 0c          	mov    %ecx,0xc(%esp)
 804a9ca:	e9 c5 00 00 00       	jmp    804aa94 <server_parse+0x20e>
 804a9cf:	85 ff                	test   %edi,%edi
 804a9d1:	75 42                	jne    804aa15 <server_parse+0x18f>
 804a9d3:	0f be 1a             	movsbl (%edx),%ebx
 804a9d6:	85 db                	test   %ebx,%ebx
 804a9d8:	0f 84 b6 00 00 00    	je     804aa94 <server_parse+0x20e>
 804a9de:	8b 2e                	mov    (%esi),%ebp
 804a9e0:	f6 44 5d 01 20       	testb  $0x20,0x1(%ebp,%ebx,2)
 804a9e5:	0f 85 19 01 00 00    	jne    804ab04 <server_parse+0x27e>
 804a9eb:	83 fb 2c             	cmp    $0x2c,%ebx
 804a9ee:	0f 84 10 01 00 00    	je     804ab04 <server_parse+0x27e>
 804a9f4:	83 fb 2a             	cmp    $0x2a,%ebx
 804a9f7:	0f 84 07 01 00 00    	je     804ab04 <server_parse+0x27e>
 804a9fd:	83 fb 22             	cmp    $0x22,%ebx
 804aa00:	0f 84 c2 00 00 00    	je     804aac8 <server_parse+0x242>
 804aa06:	83 fb 28             	cmp    $0x28,%ebx
 804aa09:	75 60                	jne    804aa6b <server_parse+0x1e5>
 804aa0b:	90                   	nop
 804aa0c:	8d 74 26 00          	lea    0x0(%esi,%eiz,1),%esi
 804aa10:	e9 ba 00 00 00       	jmp    804aacf <server_parse+0x249>
 804aa15:	0f be 1a             	movsbl (%edx),%ebx
 804aa18:	85 db                	test   %ebx,%ebx
 804aa1a:	74 78                	je     804aa94 <server_parse+0x20e>
 804aa1c:	83 fb 22             	cmp    $0x22,%ebx
 804aa1f:	90                   	nop
 804aa20:	0f 84 de 00 00 00    	je     804ab04 <server_parse+0x27e>
 804aa26:	8b 4c 24 0c          	mov    0xc(%esp),%ecx
 804aa2a:	83 c2 01             	add    $0x1,%edx
 804aa2d:	0f be 1a             	movsbl (%edx),%ebx
 804aa30:	85 db                	test   %ebx,%ebx
 804aa32:	74 5c                	je     804aa90 <server_parse+0x20a>
 804aa34:	83 fb 22             	cmp    $0x22,%ebx
 804aa37:	75 f1                	jne    804aa2a <server_parse+0x1a4>
 804aa39:	89 4c 24 0c          	mov    %ecx,0xc(%esp)
 804aa3d:	e9 c2 00 00 00       	jmp    804ab04 <server_parse+0x27e>
 804aa42:	f6 44 5d 01 20       	testb  $0x20,0x1(%ebp,%ebx,2)
 804aa47:	0f 85 a7 00 00 00    	jne    804aaf4 <server_parse+0x26e>
 804aa4d:	83 fb 2c             	cmp    $0x2c,%ebx
 804aa50:	0f 84 a4 00 00 00    	je     804aafa <server_parse+0x274>
 804aa56:	83 fb 2a             	cmp    $0x2a,%ebx
 804aa59:	0f 84 a1 00 00 00    	je     804ab00 <server_parse+0x27a>
 804aa5f:	83 fb 22             	cmp    $0x22,%ebx
 804aa62:	74 75                	je     804aad9 <server_parse+0x253>
 804aa64:	83 fb 28             	cmp    $0x28,%ebx
 804aa67:	75 06                	jne    804aa6f <server_parse+0x1e9>
 804aa69:	eb 79                	jmp    804aae4 <server_parse+0x25e>
 804aa6b:	8b 4c 24 0c          	mov    0xc(%esp),%ecx
 804aa6f:	83 c2 01             	add    $0x1,%edx
 804aa72:	0f be 1a             	movsbl (%edx),%ebx
 804aa75:	85 db                	test   %ebx,%ebx
 804aa77:	75 c9                	jne    804aa42 <server_parse+0x1bc>
 804aa79:	89 4c 24 0c          	mov    %ecx,0xc(%esp)
 804aa7d:	eb 15                	jmp    804aa94 <server_parse+0x20e>
 804aa7f:	bf 00 00 00 00       	mov    $0x0,%edi
 804aa84:	eb 0e                	jmp    804aa94 <server_parse+0x20e>
 804aa86:	c7 44 24 0c 00 00 00 00 	movl   $0x0,0xc(%esp)
 804aa8e:	eb 04                	jmp    804aa94 <server_parse+0x20e>
 804aa90:	89 4c 24 0c          	mov    %ecx,0xc(%esp)
 804aa94:	0f b6 1a             	movzbl (%edx),%ebx
 804aa97:	84 db                	test   %bl,%bl
 804aa99:	74 11                	je     804aaac <server_parse+0x226>
 804aa9b:	3b 44 24 38          	cmp    0x38(%esp),%eax
 804aa9f:	0f 8c 8c fe ff ff    	jl     804a931 <server_parse+0xab>
 804aaa5:	eb 05                	jmp    804aaac <server_parse+0x226>
 804aaa7:	b8 00 00 00 00       	mov    $0x0,%eax
 804aaac:	83 c4 1c             	add    $0x1c,%esp
 804aaaf:	5b                   	pop    %ebx
 804aab0:	5e                   	pop    %esi
 804aab1:	5f                   	pop    %edi
 804aab2:	5d                   	pop    %ebp
 804aab3:	c3                   	ret    
 804aab4:	83 7c 24 0c 00       	cmpl   $0x0,0xc(%esp)
 804aab9:	0f 95 c3             	setne  %bl
 804aabc:	89 dd                	mov    %ebx,%ebp
 804aabe:	bf 01 00 00 00       	mov    $0x1,%edi
 804aac3:	e9 bd fe ff ff       	jmp    804a985 <server_parse+0xff>
 804aac8:	bf 01 00 00 00       	mov    $0x1,%edi
 804aacd:	eb 35                	jmp    804ab04 <server_parse+0x27e>
 804aacf:	c7 44 24 0c 01 00 00 00 	movl   $0x1,0xc(%esp)
 804aad7:	eb 2b                	jmp    804ab04 <server_parse+0x27e>
 804aad9:	89 4c 24 0c          	mov    %ecx,0xc(%esp)
 804aadd:	bf 01 00 00 00       	mov    $0x1,%edi
 804aae2:	eb 20                	jmp    804ab04 <server_parse+0x27e>
 804aae4:	c7 44 24 0c 01 00 00 00 	movl   $0x1,0xc(%esp)
 804aaec:	eb 16                	jmp    804ab04 <server_parse+0x27e>
 804aaee:	89 4c 24 0c          	mov    %ecx,0xc(%esp)
 804aaf2:	eb 10                	jmp    804ab04 <server_parse+0x27e>
 804aaf4:	89 4c 24 0c          	mov    %ecx,0xc(%esp)
 804aaf8:	eb 0a                	jmp    804ab04 <server_parse+0x27e>
 804aafa:	89 4c 24 0c          	mov    %ecx,0xc(%esp)
 804aafe:	eb 04                	jmp    804ab04 <server_parse+0x27e>
 804ab00:	89 4c 24 0c          	mov    %ecx,0xc(%esp)
 804ab04:	c6 02 00             	movb   $0x0,(%edx)
 804ab07:	83 c2 01             	add    $0x1,%edx
 804ab0a:	eb 88                	jmp    804aa94 <server_parse+0x20e>

0804ab0c <server_valid>:
 804ab0c:	83 7c 24 04 00       	cmpl   $0x0,0x4(%esp)
 804ab11:	7e 14                	jle    804ab27 <server_valid+0x1b>
 804ab13:	8b 44 24 08          	mov    0x8(%esp),%eax
 804ab17:	8b 00                	mov    (%eax),%eax
 804ab19:	80 38 24             	cmpb   $0x24,(%eax)
 804ab1c:	0f 94 c0             	sete   %al
 804ab1f:	0f b6 c0             	movzbl %al,%eax
 804ab22:	8d 44 00 fe          	lea    -0x2(%eax,%eax,1),%eax
 804ab26:	c3                   	ret    
 804ab27:	b8 ff ff ff ff       	mov    $0xffffffff,%eax
 804ab2c:	c3                   	ret    

0804ab2d <server_send_plain_text>:
 804ab2d:	83 ec 1c             	sub    $0x1c,%esp
 804ab30:	89 5c 24 14          	mov    %ebx,0x14(%esp)
 804ab34:	89 7c 24 18          	mov    %edi,0x18(%esp)
 804ab38:	8b 5c 24 20          	mov    0x20(%esp),%ebx
 804ab3c:	8b 15 20 15 05 08    	mov    0x8051520,%edx
 804ab42:	b8 f1 ff ff ff       	mov    $0xfffffff1,%eax
 804ab47:	85 d2                	test   %edx,%edx
 804ab49:	78 23                	js     804ab6e <server_send_plain_text+0x41>
 804ab4b:	89 df                	mov    %ebx,%edi
 804ab4d:	b8 00 00 00 00       	mov    $0x0,%eax
 804ab52:	b9 ff ff ff ff       	mov    $0xffffffff,%ecx
 804ab57:	f2 ae                	repnz scas %es:(%edi),%al
 804ab59:	f7 d1                	not    %ecx
 804ab5b:	83 e9 01             	sub    $0x1,%ecx
 804ab5e:	89 4c 24 08          	mov    %ecx,0x8(%esp)
 804ab62:	89 5c 24 04          	mov    %ebx,0x4(%esp)
 804ab66:	89 14 24             	mov    %edx,(%esp)
 804ab69:	e8 82 e3 ff ff       	call   8048ef0 <write@plt>
 804ab6e:	8b 5c 24 14          	mov    0x14(%esp),%ebx
 804ab72:	8b 7c 24 18          	mov    0x18(%esp),%edi
 804ab76:	83 c4 1c             	add    $0x1c,%esp
 804ab79:	c3                   	ret    

0804ab7a <server_send_ver>:
 804ab7a:	53                   	push   %ebx
 804ab7b:	83 ec 58             	sub    $0x58,%esp
 804ab7e:	65 a1 14 00 00 00    	mov    %gs:0x14,%eax
 804ab84:	89 44 24 4c          	mov    %eax,0x4c(%esp)
 804ab88:	31 c0                	xor    %eax,%eax
 804ab8a:	c7 44 24 14 01 00 00 00 	movl   $0x1,0x14(%esp)
 804ab92:	c7 44 24 10 00 00 00 00 	movl   $0x0,0x10(%esp)
 804ab9a:	c7 44 24 0c e2 dd 04 08 	movl   $0x804dde2,0xc(%esp)
 804aba2:	c7 44 24 08 20 00 00 00 	movl   $0x20,0x8(%esp)
 804abaa:	c7 44 24 04 01 00 00 00 	movl   $0x1,0x4(%esp)
 804abb2:	8d 5c 24 2c          	lea    0x2c(%esp),%ebx
 804abb6:	89 1c 24             	mov    %ebx,(%esp)
 804abb9:	e8 12 e5 ff ff       	call   80490d0 <__sprintf_chk@plt>
 804abbe:	89 5c 24 04          	mov    %ebx,0x4(%esp)
 804abc2:	c7 04 24 e8 dd 04 08 	movl   $0x804dde8,(%esp)
 804abc9:	e8 dc fb ff ff       	call   804a7aa <server_send_package>
 804abce:	8b 54 24 4c          	mov    0x4c(%esp),%edx
 804abd2:	65 33 15 14 00 00 00 	xor    %gs:0x14,%edx
 804abd9:	74 05                	je     804abe0 <server_send_ver+0x66>
 804abdb:	e8 d0 e1 ff ff       	call   8048db0 <__stack_chk_fail@plt>
 804abe0:	83 c4 58             	add    $0x58,%esp
 804abe3:	5b                   	pop    %ebx
 804abe4:	c3                   	ret    

0804abe5 <server_send_t1run>:
 804abe5:	53                   	push   %ebx
 804abe6:	83 ec 58             	sub    $0x58,%esp
 804abe9:	65 a1 14 00 00 00    	mov    %gs:0x14,%eax
 804abef:	89 44 24 4c          	mov    %eax,0x4c(%esp)
 804abf3:	31 c0                	xor    %eax,%eax
 804abf5:	e8 c0 16 00 00       	call   804c2ba <task1_run>
 804abfa:	89 44 24 10          	mov    %eax,0x10(%esp)
 804abfe:	c7 44 24 0c 3f dd 04 08 	movl   $0x804dd3f,0xc(%esp)
 804ac06:	c7 44 24 08 20 00 00 00 	movl   $0x20,0x8(%esp)
 804ac0e:	c7 44 24 04 01 00 00 00 	movl   $0x1,0x4(%esp)
 804ac16:	8d 5c 24 2c          	lea    0x2c(%esp),%ebx
 804ac1a:	89 1c 24             	mov    %ebx,(%esp)
 804ac1d:	e8 ae e4 ff ff       	call   80490d0 <__sprintf_chk@plt>
 804ac22:	89 5c 24 04          	mov    %ebx,0x4(%esp)
 804ac26:	c7 04 24 ec dd 04 08 	movl   $0x804ddec,(%esp)
 804ac2d:	e8 78 fb ff ff       	call   804a7aa <server_send_package>
 804ac32:	8b 54 24 4c          	mov    0x4c(%esp),%edx
 804ac36:	65 33 15 14 00 00 00 	xor    %gs:0x14,%edx
 804ac3d:	74 05                	je     804ac44 <server_send_t1run+0x5f>
 804ac3f:	e8 6c e1 ff ff       	call   8048db0 <__stack_chk_fail@plt>
 804ac44:	83 c4 58             	add    $0x58,%esp
 804ac47:	5b                   	pop    %ebx
 804ac48:	c3                   	ret    

0804ac49 <server_send_t1stop>:
 804ac49:	53                   	push   %ebx
 804ac4a:	83 ec 58             	sub    $0x58,%esp
 804ac4d:	65 a1 14 00 00 00    	mov    %gs:0x14,%eax
 804ac53:	89 44 24 4c          	mov    %eax,0x4c(%esp)
 804ac57:	31 c0                	xor    %eax,%eax
 804ac59:	e8 9a 16 00 00       	call   804c2f8 <task1_stop>
 804ac5e:	89 44 24 10          	mov    %eax,0x10(%esp)
 804ac62:	c7 44 24 0c 3f dd 04 08 	movl   $0x804dd3f,0xc(%esp)
 804ac6a:	c7 44 24 08 20 00 00 00 	movl   $0x20,0x8(%esp)
 804ac72:	c7 44 24 04 01 00 00 00 	movl   $0x1,0x4(%esp)
 804ac7a:	8d 5c 24 2c          	lea    0x2c(%esp),%ebx
 804ac7e:	89 1c 24             	mov    %ebx,(%esp)
 804ac81:	e8 4a e4 ff ff       	call   80490d0 <__sprintf_chk@plt>
 804ac86:	89 5c 24 04          	mov    %ebx,0x4(%esp)
 804ac8a:	c7 04 24 f2 dd 04 08 	movl   $0x804ddf2,(%esp)
 804ac91:	e8 14 fb ff ff       	call   804a7aa <server_send_package>
 804ac96:	8b 54 24 4c          	mov    0x4c(%esp),%edx
 804ac9a:	65 33 15 14 00 00 00 	xor    %gs:0x14,%edx
 804aca1:	74 05                	je     804aca8 <server_send_t1stop+0x5f>
 804aca3:	e8 08 e1 ff ff       	call   8048db0 <__stack_chk_fail@plt>
 804aca8:	83 c4 58             	add    $0x58,%esp
 804acab:	5b                   	pop    %ebx
 804acac:	c3                   	ret    

0804acad <server_send_t2run>:
 804acad:	53                   	push   %ebx
 804acae:	83 ec 58             	sub    $0x58,%esp
 804acb1:	65 a1 14 00 00 00    	mov    %gs:0x14,%eax
 804acb7:	89 44 24 4c          	mov    %eax,0x4c(%esp)
 804acbb:	31 c0                	xor    %eax,%eax
 804acbd:	e8 7e 16 00 00       	call   804c340 <task2_run>
 804acc2:	89 44 24 10          	mov    %eax,0x10(%esp)
 804acc6:	c7 44 24 0c 3f dd 04 08 	movl   $0x804dd3f,0xc(%esp)
 804acce:	c7 44 24 08 20 00 00 00 	movl   $0x20,0x8(%esp)
 804acd6:	c7 44 24 04 01 00 00 00 	movl   $0x1,0x4(%esp)
 804acde:	8d 5c 24 2c          	lea    0x2c(%esp),%ebx
 804ace2:	89 1c 24             	mov    %ebx,(%esp)
 804ace5:	e8 e6 e3 ff ff       	call   80490d0 <__sprintf_chk@plt>
 804acea:	89 5c 24 04          	mov    %ebx,0x4(%esp)
 804acee:	c7 04 24 f9 dd 04 08 	movl   $0x804ddf9,(%esp)
 804acf5:	e8 b0 fa ff ff       	call   804a7aa <server_send_package>
 804acfa:	8b 54 24 4c          	mov    0x4c(%esp),%edx
 804acfe:	65 33 15 14 00 00 00 	xor    %gs:0x14,%edx
 804ad05:	74 05                	je     804ad0c <server_send_t2run+0x5f>
 804ad07:	e8 a4 e0 ff ff       	call   8048db0 <__stack_chk_fail@plt>
 804ad0c:	83 c4 58             	add    $0x58,%esp
 804ad0f:	5b                   	pop    %ebx
 804ad10:	c3                   	ret    

0804ad11 <server_send_t2stop>:
 804ad11:	53                   	push   %ebx
 804ad12:	83 ec 58             	sub    $0x58,%esp
 804ad15:	65 a1 14 00 00 00    	mov    %gs:0x14,%eax
 804ad1b:	89 44 24 4c          	mov    %eax,0x4c(%esp)
 804ad1f:	31 c0                	xor    %eax,%eax
 804ad21:	e8 54 16 00 00       	call   804c37a <task2_stop>
 804ad26:	89 44 24 10          	mov    %eax,0x10(%esp)
 804ad2a:	c7 44 24 0c 3f dd 04 08 	movl   $0x804dd3f,0xc(%esp)
 804ad32:	c7 44 24 08 20 00 00 00 	movl   $0x20,0x8(%esp)
 804ad3a:	c7 44 24 04 01 00 00 00 	movl   $0x1,0x4(%esp)
 804ad42:	8d 5c 24 2c          	lea    0x2c(%esp),%ebx
 804ad46:	89 1c 24             	mov    %ebx,(%esp)
 804ad49:	e8 82 e3 ff ff       	call   80490d0 <__sprintf_chk@plt>
 804ad4e:	89 5c 24 04          	mov    %ebx,0x4(%esp)
 804ad52:	c7 04 24 ff dd 04 08 	movl   $0x804ddff,(%esp)
 804ad59:	e8 4c fa ff ff       	call   804a7aa <server_send_package>
 804ad5e:	8b 54 24 4c          	mov    0x4c(%esp),%edx
 804ad62:	65 33 15 14 00 00 00 	xor    %gs:0x14,%edx
 804ad69:	74 05                	je     804ad70 <server_send_t2stop+0x5f>
 804ad6b:	e8 40 e0 ff ff       	call   8048db0 <__stack_chk_fail@plt>
 804ad70:	83 c4 58             	add    $0x58,%esp
 804ad73:	5b                   	pop    %ebx
 804ad74:	c3                   	ret    

0804ad75 <server_send_t2timer>:
 804ad75:	53                   	push   %ebx
 804ad76:	83 ec 58             	sub    $0x58,%esp
 804ad79:	8b 5c 24 60          	mov    0x60(%esp),%ebx
 804ad7d:	65 a1 14 00 00 00    	mov    %gs:0x14,%eax
 804ad83:	89 44 24 4c          	mov    %eax,0x4c(%esp)
 804ad87:	31 c0                	xor    %eax,%eax
 804ad89:	89 1c 24             	mov    %ebx,(%esp)
 804ad8c:	e8 23 16 00 00       	call   804c3b4 <task2_timer>
 804ad91:	89 44 24 14          	mov    %eax,0x14(%esp)
 804ad95:	89 5c 24 10          	mov    %ebx,0x10(%esp)
 804ad99:	c7 44 24 0c e2 dd 04 08 	movl   $0x804dde2,0xc(%esp)
 804ada1:	c7 44 24 08 20 00 00 00 	movl   $0x20,0x8(%esp)
 804ada9:	c7 44 24 04 01 00 00 00 	movl   $0x1,0x4(%esp)
 804adb1:	8d 5c 24 2c          	lea    0x2c(%esp),%ebx
 804adb5:	89 1c 24             	mov    %ebx,(%esp)
 804adb8:	e8 13 e3 ff ff       	call   80490d0 <__sprintf_chk@plt>
 804adbd:	89 5c 24 04          	mov    %ebx,0x4(%esp)
 804adc1:	c7 04 24 06 de 04 08 	movl   $0x804de06,(%esp)
 804adc8:	e8 dd f9 ff ff       	call   804a7aa <server_send_package>
 804adcd:	8b 54 24 4c          	mov    0x4c(%esp),%edx
 804add1:	65 33 15 14 00 00 00 	xor    %gs:0x14,%edx
 804add8:	74 05                	je     804addf <server_send_t2timer+0x6a>
 804adda:	e8 d1 df ff ff       	call   8048db0 <__stack_chk_fail@plt>
 804addf:	83 c4 58             	add    $0x58,%esp
 804ade2:	5b                   	pop    %ebx
 804ade3:	c3                   	ret    

0804ade4 <server_on_connected>:
 804ade4:	83 ec 1c             	sub    $0x1c,%esp
 804ade7:	a1 38 15 05 08       	mov    0x8051538,%eax
 804adec:	89 44 24 0c          	mov    %eax,0xc(%esp)
 804adf0:	c7 44 24 08 28 15 05 08 	movl   $0x8051528,0x8(%esp)
 804adf8:	c7 44 24 04 98 de 04 08 	movl   $0x804de98,0x4(%esp)
 804ae00:	c7 04 24 01 00 00 00 	movl   $0x1,(%esp)
 804ae07:	e8 a4 e1 ff ff       	call   8048fb0 <__printf_chk@plt>
 804ae0c:	a1 60 13 05 08       	mov    0x8051360,%eax
 804ae11:	89 04 24             	mov    %eax,(%esp)
 804ae14:	e8 f7 de ff ff       	call   8048d10 <fflush@plt>
 804ae19:	83 c4 1c             	add    $0x1c,%esp
 804ae1c:	c3                   	ret    

0804ae1d <server_on_disconnected>:
 804ae1d:	83 ec 1c             	sub    $0x1c,%esp
 804ae20:	c7 04 24 0e de 04 08 	movl   $0x804de0e,(%esp)
 804ae27:	e8 24 e0 ff ff       	call   8048e50 <puts@plt>
 804ae2c:	a1 60 13 05 08       	mov    0x8051360,%eax
 804ae31:	89 04 24             	mov    %eax,(%esp)
 804ae34:	e8 d7 de ff ff       	call   8048d10 <fflush@plt>
 804ae39:	83 c4 1c             	add    $0x1c,%esp
 804ae3c:	c3                   	ret    

0804ae3d <server_on_cmd_received>:
 804ae3d:	83 ec 2c             	sub    $0x2c,%esp
 804ae40:	89 5c 24 1c          	mov    %ebx,0x1c(%esp)
 804ae44:	89 74 24 20          	mov    %esi,0x20(%esp)
 804ae48:	89 7c 24 24          	mov    %edi,0x24(%esp)
 804ae4c:	89 6c 24 28          	mov    %ebp,0x28(%esp)
 804ae50:	8b 44 24 30          	mov    0x30(%esp),%eax
 804ae54:	8b 6c 24 34          	mov    0x34(%esp),%ebp
 804ae58:	85 c0                	test   %eax,%eax
 804ae5a:	0f 85 89 00 00 00    	jne    804aee9 <server_on_cmd_received+0xac>
 804ae60:	c7 44 24 0c 38 df 04 08 	movl   $0x804df38,0xc(%esp)
 804ae68:	c7 44 24 08 c5 d9 04 08 	movl   $0x804d9c5,0x8(%esp)
 804ae70:	c7 44 24 04 01 00 00 00 	movl   $0x1,0x4(%esp)
 804ae78:	a1 40 13 05 08       	mov    0x8051340,%eax
 804ae7d:	89 04 24             	mov    %eax,(%esp)
 804ae80:	e8 bb e1 ff ff       	call   8049040 <__fprintf_chk@plt>
 804ae85:	a1 40 13 05 08       	mov    0x8051340,%eax
 804ae8a:	89 44 24 0c          	mov    %eax,0xc(%esp)
 804ae8e:	c7 44 24 08 07 00 00 00 	movl   $0x7,0x8(%esp)
 804ae96:	c7 44 24 04 01 00 00 00 	movl   $0x1,0x4(%esp)
 804ae9e:	c7 04 24 26 de 04 08 	movl   $0x804de26,(%esp)
 804aea5:	e8 66 df ff ff       	call   8048e10 <fwrite@plt>
 804aeaa:	c7 44 24 0c 00 00 00 00 	movl   $0x0,0xc(%esp)
 804aeb2:	c7 44 24 08 bc de 04 08 	movl   $0x804debc,0x8(%esp)
 804aeba:	c7 44 24 04 01 00 00 00 	movl   $0x1,0x4(%esp)
 804aec2:	a1 40 13 05 08       	mov    0x8051340,%eax
 804aec7:	89 04 24             	mov    %eax,(%esp)
 804aeca:	e8 71 e1 ff ff       	call   8049040 <__fprintf_chk@plt>
 804aecf:	a1 40 13 05 08       	mov    0x8051340,%eax
 804aed4:	89 44 24 04          	mov    %eax,0x4(%esp)
 804aed8:	c7 04 24 0a 00 00 00 	movl   $0xa,(%esp)
 804aedf:	e8 0c e1 ff ff       	call   8048ff0 <fputc@plt>
 804aee4:	e9 75 01 00 00       	jmp    804b05e <server_on_cmd_received+0x221>
 804aee9:	8b 5d 00             	mov    0x0(%ebp),%ebx
 804aeec:	80 3b 56             	cmpb   $0x56,(%ebx)
 804aeef:	75 1c                	jne    804af0d <server_on_cmd_received+0xd0>
 804aef1:	80 7b 01 45          	cmpb   $0x45,0x1(%ebx)
 804aef5:	75 16                	jne    804af0d <server_on_cmd_received+0xd0>
 804aef7:	80 7b 02 52          	cmpb   $0x52,0x2(%ebx)
 804aefb:	75 10                	jne    804af0d <server_on_cmd_received+0xd0>
 804aefd:	80 7b 03 00          	cmpb   $0x0,0x3(%ebx)
 804af01:	75 0a                	jne    804af0d <server_on_cmd_received+0xd0>
 804af03:	e8 72 fc ff ff       	call   804ab7a <server_send_ver>
 804af08:	e9 51 01 00 00       	jmp    804b05e <server_on_cmd_received+0x221>
 804af0d:	bf ec dd 04 08       	mov    $0x804ddec,%edi
 804af12:	b9 06 00 00 00       	mov    $0x6,%ecx
 804af17:	89 de                	mov    %ebx,%esi
 804af19:	f3 a6                	repz cmpsb %es:(%edi),%ds:(%esi)
 804af1b:	0f 97 c2             	seta   %dl
 804af1e:	0f 92 c1             	setb   %cl
 804af21:	38 ca                	cmp    %cl,%dl
 804af23:	75 0a                	jne    804af2f <server_on_cmd_received+0xf2>
 804af25:	e8 bb fc ff ff       	call   804abe5 <server_send_t1run>
 804af2a:	e9 2f 01 00 00       	jmp    804b05e <server_on_cmd_received+0x221>
 804af2f:	bf f2 dd 04 08       	mov    $0x804ddf2,%edi
 804af34:	b9 07 00 00 00       	mov    $0x7,%ecx
 804af39:	89 de                	mov    %ebx,%esi
 804af3b:	f3 a6                	repz cmpsb %es:(%edi),%ds:(%esi)
 804af3d:	0f 97 c2             	seta   %dl
 804af40:	0f 92 c1             	setb   %cl
 804af43:	38 ca                	cmp    %cl,%dl
 804af45:	75 0a                	jne    804af51 <server_on_cmd_received+0x114>
 804af47:	e8 fd fc ff ff       	call   804ac49 <server_send_t1stop>
 804af4c:	e9 0d 01 00 00       	jmp    804b05e <server_on_cmd_received+0x221>
 804af51:	bf f9 dd 04 08       	mov    $0x804ddf9,%edi
 804af56:	b9 06 00 00 00       	mov    $0x6,%ecx
 804af5b:	89 de                	mov    %ebx,%esi
 804af5d:	f3 a6                	repz cmpsb %es:(%edi),%ds:(%esi)
 804af5f:	0f 97 c2             	seta   %dl
 804af62:	0f 92 c1             	setb   %cl
 804af65:	38 ca                	cmp    %cl,%dl
 804af67:	75 0a                	jne    804af73 <server_on_cmd_received+0x136>
 804af69:	e8 3f fd ff ff       	call   804acad <server_send_t2run>
 804af6e:	e9 eb 00 00 00       	jmp    804b05e <server_on_cmd_received+0x221>
 804af73:	bf ff dd 04 08       	mov    $0x804ddff,%edi
 804af78:	b9 07 00 00 00       	mov    $0x7,%ecx
 804af7d:	89 de                	mov    %ebx,%esi
 804af7f:	f3 a6                	repz cmpsb %es:(%edi),%ds:(%esi)
 804af81:	0f 97 c2             	seta   %dl
 804af84:	0f 92 c1             	setb   %cl
 804af87:	38 ca                	cmp    %cl,%dl
 804af89:	75 0a                	jne    804af95 <server_on_cmd_received+0x158>
 804af8b:	e8 81 fd ff ff       	call   804ad11 <server_send_t2stop>
 804af90:	e9 c9 00 00 00       	jmp    804b05e <server_on_cmd_received+0x221>
 804af95:	bf 06 de 04 08       	mov    $0x804de06,%edi
 804af9a:	b9 08 00 00 00       	mov    $0x8,%ecx
 804af9f:	89 de                	mov    %ebx,%esi
 804afa1:	f3 a6                	repz cmpsb %es:(%edi),%ds:(%esi)
 804afa3:	0f 97 c2             	seta   %dl
 804afa6:	0f 92 c1             	setb   %cl
 804afa9:	38 ca                	cmp    %cl,%dl
 804afab:	75 31                	jne    804afde <server_on_cmd_received+0x1a1>
 804afad:	83 f8 01             	cmp    $0x1,%eax
 804afb0:	0f 8e a8 00 00 00    	jle    804b05e <server_on_cmd_received+0x221>
 804afb6:	c7 44 24 08 0a 00 00 00 	movl   $0xa,0x8(%esp)
 804afbe:	c7 44 24 04 00 00 00 00 	movl   $0x0,0x4(%esp)
 804afc6:	8b 45 04             	mov    0x4(%ebp),%eax
 804afc9:	89 04 24             	mov    %eax,(%esp)
 804afcc:	e8 af e0 ff ff       	call   8049080 <strtol@plt>
 804afd1:	89 04 24             	mov    %eax,(%esp)
 804afd4:	e8 9c fd ff ff       	call   804ad75 <server_send_t2timer>
 804afd9:	e9 80 00 00 00       	jmp    804b05e <server_on_cmd_received+0x221>
 804afde:	c7 44 24 0c 38 df 04 08 	movl   $0x804df38,0xc(%esp)
 804afe6:	c7 44 24 08 c5 d9 04 08 	movl   $0x804d9c5,0x8(%esp)
 804afee:	c7 44 24 04 01 00 00 00 	movl   $0x1,0x4(%esp)
 804aff6:	a1 40 13 05 08       	mov    0x8051340,%eax
 804affb:	89 04 24             	mov    %eax,(%esp)
 804affe:	e8 3d e0 ff ff       	call   8049040 <__fprintf_chk@plt>
 804b003:	a1 40 13 05 08       	mov    0x8051340,%eax
 804b008:	89 44 24 0c          	mov    %eax,0xc(%esp)
 804b00c:	c7 44 24 08 07 00 00 00 	movl   $0x7,0x8(%esp)
 804b014:	c7 44 24 04 01 00 00 00 	movl   $0x1,0x4(%esp)
 804b01c:	c7 04 24 ca d9 04 08 	movl   $0x804d9ca,(%esp)
 804b023:	e8 e8 dd ff ff       	call   8048e10 <fwrite@plt>
 804b028:	89 5c 24 0c          	mov    %ebx,0xc(%esp)
 804b02c:	c7 44 24 08 2e de 04 08 	movl   $0x804de2e,0x8(%esp)
 804b034:	c7 44 24 04 01 00 00 00 	movl   $0x1,0x4(%esp)
 804b03c:	a1 40 13 05 08       	mov    0x8051340,%eax
 804b041:	89 04 24             	mov    %eax,(%esp)
 804b044:	e8 f7 df ff ff       	call   8049040 <__fprintf_chk@plt>
 804b049:	a1 40 13 05 08       	mov    0x8051340,%eax
 804b04e:	89 44 24 04          	mov    %eax,0x4(%esp)
 804b052:	c7 04 24 0a 00 00 00 	movl   $0xa,(%esp)
 804b059:	e8 92 df ff ff       	call   8048ff0 <fputc@plt>
 804b05e:	8b 5c 24 1c          	mov    0x1c(%esp),%ebx
 804b062:	8b 74 24 20          	mov    0x20(%esp),%esi
 804b066:	8b 7c 24 24          	mov    0x24(%esp),%edi
 804b06a:	8b 6c 24 28          	mov    0x28(%esp),%ebp
 804b06e:	83 c4 2c             	add    $0x2c,%esp
 804b071:	c3                   	ret    

0804b072 <server_task>:
 804b072:	55                   	push   %ebp
 804b073:	57                   	push   %edi
 804b074:	56                   	push   %esi
 804b075:	53                   	push   %ebx
 804b076:	81 ec dc 03 00 00    	sub    $0x3dc,%esp
 804b07c:	65 a1 14 00 00 00    	mov    %gs:0x14,%eax
 804b082:	89 84 24 cc 03 00 00 	mov    %eax,0x3cc(%esp)
 804b089:	31 c0                	xor    %eax,%eax
 804b08b:	8d 9c 24 30 01 00 00 	lea    0x130(%esp),%ebx
 804b092:	89 1c 24             	mov    %ebx,(%esp)
 804b095:	e8 26 df ff ff       	call   8048fc0 <sigemptyset@plt>
 804b09a:	c7 44 24 04 02 00 00 00 	movl   $0x2,0x4(%esp)
 804b0a2:	89 1c 24             	mov    %ebx,(%esp)
 804b0a5:	e8 66 de ff ff       	call   8048f10 <sigaddset@plt>
 804b0aa:	c7 44 24 04 0f 00 00 00 	movl   $0xf,0x4(%esp)
 804b0b2:	89 1c 24             	mov    %ebx,(%esp)
 804b0b5:	e8 56 de ff ff       	call   8048f10 <sigaddset@plt>
 804b0ba:	c7 44 24 04 03 00 00 00 	movl   $0x3,0x4(%esp)
 804b0c2:	89 1c 24             	mov    %ebx,(%esp)
 804b0c5:	e8 46 de ff ff       	call   8048f10 <sigaddset@plt>
 804b0ca:	c7 44 24 04 06 00 00 00 	movl   $0x6,0x4(%esp)
 804b0d2:	89 1c 24             	mov    %ebx,(%esp)
 804b0d5:	e8 36 de ff ff       	call   8048f10 <sigaddset@plt>
 804b0da:	c7 44 24 04 01 00 00 00 	movl   $0x1,0x4(%esp)
 804b0e2:	89 1c 24             	mov    %ebx,(%esp)
 804b0e5:	e8 26 de ff ff       	call   8048f10 <sigaddset@plt>
 804b0ea:	c7 44 24 08 00 00 00 00 	movl   $0x0,0x8(%esp)
 804b0f2:	89 5c 24 04          	mov    %ebx,0x4(%esp)
 804b0f6:	c7 04 24 00 00 00 00 	movl   $0x0,(%esp)
 804b0fd:	e8 1e dc ff ff       	call   8048d20 <sigprocmask@plt>
 804b102:	c7 44 24 0c 4f df 04 08 	movl   $0x804df4f,0xc(%esp)
 804b10a:	c7 44 24 08 c5 d9 04 08 	movl   $0x804d9c5,0x8(%esp)
 804b112:	c7 44 24 04 01 00 00 00 	movl   $0x1,0x4(%esp)
 804b11a:	a1 40 13 05 08       	mov    0x8051340,%eax
 804b11f:	89 04 24             	mov    %eax,(%esp)
 804b122:	e8 19 df ff ff       	call   8049040 <__fprintf_chk@plt>
 804b127:	a1 40 13 05 08       	mov    0x8051340,%eax
 804b12c:	89 44 24 0c          	mov    %eax,0xc(%esp)
 804b130:	c7 44 24 08 07 00 00 00 	movl   $0x7,0x8(%esp)
 804b138:	c7 44 24 04 01 00 00 00 	movl   $0x1,0x4(%esp)
 804b140:	c7 04 24 ca d9 04 08 	movl   $0x804d9ca,(%esp)
 804b147:	e8 c4 dc ff ff       	call   8048e10 <fwrite@plt>
 804b14c:	e8 bf de ff ff       	call   8049010 <getppid@plt>
 804b151:	89 c3                	mov    %eax,%ebx
 804b153:	e8 c8 dc ff ff       	call   8048e20 <getpid@plt>
 804b158:	89 5c 24 10          	mov    %ebx,0x10(%esp)
 804b15c:	89 44 24 0c          	mov    %eax,0xc(%esp)
 804b160:	c7 44 24 08 30 dd 04 08 	movl   $0x804dd30,0x8(%esp)
 804b168:	c7 44 24 04 01 00 00 00 	movl   $0x1,0x4(%esp)
 804b170:	a1 40 13 05 08       	mov    0x8051340,%eax
 804b175:	89 04 24             	mov    %eax,(%esp)
 804b178:	e8 c3 de ff ff       	call   8049040 <__fprintf_chk@plt>
 804b17d:	a1 40 13 05 08       	mov    0x8051340,%eax
 804b182:	89 44 24 04          	mov    %eax,0x4(%esp)
 804b186:	c7 04 24 0a 00 00 00 	movl   $0xa,(%esp)
 804b18d:	e8 5e de ff ff       	call   8048ff0 <fputc@plt>
 804b192:	c7 44 24 08 00 00 00 00 	movl   $0x0,0x8(%esp)
 804b19a:	c7 44 24 04 01 00 00 00 	movl   $0x1,0x4(%esp)
 804b1a2:	c7 04 24 02 00 00 00 	movl   $0x2,(%esp)
 804b1a9:	e8 82 de ff ff       	call   8049030 <socket@plt>
 804b1ae:	89 44 24 2c          	mov    %eax,0x2c(%esp)
 804b1b2:	85 c0                	test   %eax,%eax
 804b1b4:	79 16                	jns    804b1cc <server_task+0x15a>
 804b1b6:	c7 04 24 42 de 04 08 	movl   $0x804de42,(%esp)
 804b1bd:	e8 2e dc ff ff       	call   8048df0 <perror@plt>
 804b1c2:	b8 01 00 00 00       	mov    $0x1,%eax
 804b1c7:	e9 80 06 00 00       	jmp    804b84c <server_task+0x7da>
 804b1cc:	66 c7 84 24 bc 03 00 00 02 00 	movw   $0x2,0x3bc(%esp)
 804b1d6:	c7 84 24 c0 03 00 00 00 00 00 00 	movl   $0x0,0x3c0(%esp)
 804b1e1:	0f b7 05 24 15 05 08 	movzwl 0x8051524,%eax
 804b1e8:	66 c1 c8 08          	ror    $0x8,%ax
 804b1ec:	66 89 84 24 be 03 00 00 	mov    %ax,0x3be(%esp)
 804b1f4:	c7 44 24 08 10 00 00 00 	movl   $0x10,0x8(%esp)
 804b1fc:	8d 84 24 bc 03 00 00 	lea    0x3bc(%esp),%eax
 804b203:	89 44 24 04          	mov    %eax,0x4(%esp)
 804b207:	8b 44 24 2c          	mov    0x2c(%esp),%eax
 804b20b:	89 04 24             	mov    %eax,(%esp)
 804b20e:	e8 0d dd ff ff       	call   8048f20 <bind@plt>
 804b213:	85 c0                	test   %eax,%eax
 804b215:	0f 89 8f 00 00 00    	jns    804b2aa <server_task+0x238>
 804b21b:	c7 44 24 0c 4f df 04 08 	movl   $0x804df4f,0xc(%esp)
 804b223:	c7 44 24 08 c5 d9 04 08 	movl   $0x804d9c5,0x8(%esp)
 804b22b:	c7 44 24 04 01 00 00 00 	movl   $0x1,0x4(%esp)
 804b233:	a1 40 13 05 08       	mov    0x8051340,%eax
 804b238:	89 04 24             	mov    %eax,(%esp)
 804b23b:	e8 00 de ff ff       	call   8049040 <__fprintf_chk@plt>
 804b240:	a1 40 13 05 08       	mov    0x8051340,%eax
 804b245:	89 44 24 0c          	mov    %eax,0xc(%esp)
 804b249:	c7 44 24 08 07 00 00 00 	movl   $0x7,0x8(%esp)
 804b251:	c7 44 24 04 01 00 00 00 	movl   $0x1,0x4(%esp)
 804b259:	c7 04 24 26 de 04 08 	movl   $0x804de26,(%esp)
 804b260:	e8 ab db ff ff       	call   8048e10 <fwrite@plt>
 804b265:	a1 24 15 05 08       	mov    0x8051524,%eax
 804b26a:	89 44 24 0c          	mov    %eax,0xc(%esp)
 804b26e:	c7 44 24 08 49 de 04 08 	movl   $0x804de49,0x8(%esp)
 804b276:	c7 44 24 04 01 00 00 00 	movl   $0x1,0x4(%esp)
 804b27e:	a1 40 13 05 08       	mov    0x8051340,%eax
 804b283:	89 04 24             	mov    %eax,(%esp)
 804b286:	e8 b5 dd ff ff       	call   8049040 <__fprintf_chk@plt>
 804b28b:	a1 40 13 05 08       	mov    0x8051340,%eax
 804b290:	89 44 24 04          	mov    %eax,0x4(%esp)
 804b294:	c7 04 24 0a 00 00 00 	movl   $0xa,(%esp)
 804b29b:	e8 50 dd ff ff       	call   8048ff0 <fputc@plt>
 804b2a0:	b8 01 00 00 00       	mov    $0x1,%eax
 804b2a5:	e9 a2 05 00 00       	jmp    804b84c <server_task+0x7da>
 804b2aa:	c7 44 24 04 02 00 00 00 	movl   $0x2,0x4(%esp)
 804b2b2:	8b 44 24 2c          	mov    0x2c(%esp),%eax
 804b2b6:	89 04 24             	mov    %eax,(%esp)
 804b2b9:	e8 12 dd ff ff       	call   8048fd0 <listen@plt>
 804b2be:	85 c0                	test   %eax,%eax
 804b2c0:	0f 89 8e 00 00 00    	jns    804b354 <server_task+0x2e2>
 804b2c6:	c7 44 24 0c 4f df 04 08 	movl   $0x804df4f,0xc(%esp)
 804b2ce:	c7 44 24 08 c5 d9 04 08 	movl   $0x804d9c5,0x8(%esp)
 804b2d6:	c7 44 24 04 01 00 00 00 	movl   $0x1,0x4(%esp)
 804b2de:	a1 40 13 05 08       	mov    0x8051340,%eax
 804b2e3:	89 04 24             	mov    %eax,(%esp)
 804b2e6:	e8 55 dd ff ff       	call   8049040 <__fprintf_chk@plt>
 804b2eb:	a1 40 13 05 08       	mov    0x8051340,%eax
 804b2f0:	89 44 24 0c          	mov    %eax,0xc(%esp)
 804b2f4:	c7 44 24 08 07 00 00 00 	movl   $0x7,0x8(%esp)
 804b2fc:	c7 44 24 04 01 00 00 00 	movl   $0x1,0x4(%esp)
 804b304:	c7 04 24 26 de 04 08 	movl   $0x804de26,(%esp)
 804b30b:	e8 00 db ff ff       	call   8048e10 <fwrite@plt>
 804b310:	a1 40 13 05 08       	mov    0x8051340,%eax
 804b315:	89 44 24 0c          	mov    %eax,0xc(%esp)
 804b319:	c7 44 24 08 08 00 00 00 	movl   $0x8,0x8(%esp)
 804b321:	c7 44 24 04 01 00 00 00 	movl   $0x1,0x4(%esp)
 804b329:	c7 04 24 59 de 04 08 	movl   $0x804de59,(%esp)
 804b330:	e8 db da ff ff       	call   8048e10 <fwrite@plt>
 804b335:	a1 40 13 05 08       	mov    0x8051340,%eax
 804b33a:	89 44 24 04          	mov    %eax,0x4(%esp)
 804b33e:	c7 04 24 0a 00 00 00 	movl   $0xa,(%esp)
 804b345:	e8 a6 dc ff ff       	call   8048ff0 <fputc@plt>
 804b34a:	b8 01 00 00 00       	mov    $0x1,%eax
 804b34f:	e9 f8 04 00 00       	jmp    804b84c <server_task+0x7da>
 804b354:	c7 44 24 0c 4f df 04 08 	movl   $0x804df4f,0xc(%esp)
 804b35c:	c7 44 24 08 c5 d9 04 08 	movl   $0x804d9c5,0x8(%esp)
 804b364:	c7 44 24 04 01 00 00 00 	movl   $0x1,0x4(%esp)
 804b36c:	a1 40 13 05 08       	mov    0x8051340,%eax
 804b371:	89 04 24             	mov    %eax,(%esp)
 804b374:	e8 c7 dc ff ff       	call   8049040 <__fprintf_chk@plt>
 804b379:	a1 40 13 05 08       	mov    0x8051340,%eax
 804b37e:	89 44 24 0c          	mov    %eax,0xc(%esp)
 804b382:	c7 44 24 08 07 00 00 00 	movl   $0x7,0x8(%esp)
 804b38a:	c7 44 24 04 01 00 00 00 	movl   $0x1,0x4(%esp)
 804b392:	c7 04 24 ca d9 04 08 	movl   $0x804d9ca,(%esp)
 804b399:	e8 72 da ff ff       	call   8048e10 <fwrite@plt>
 804b39e:	a1 24 15 05 08       	mov    0x8051524,%eax
 804b3a3:	89 44 24 0c          	mov    %eax,0xc(%esp)
 804b3a7:	c7 44 24 08 ec de 04 08 	movl   $0x804deec,0x8(%esp)
 804b3af:	c7 44 24 04 01 00 00 00 	movl   $0x1,0x4(%esp)
 804b3b7:	a1 40 13 05 08       	mov    0x8051340,%eax
 804b3bc:	89 04 24             	mov    %eax,(%esp)
 804b3bf:	e8 7c dc ff ff       	call   8049040 <__fprintf_chk@plt>
 804b3c4:	a1 40 13 05 08       	mov    0x8051340,%eax
 804b3c9:	89 44 24 04          	mov    %eax,0x4(%esp)
 804b3cd:	c7 04 24 0a 00 00 00 	movl   $0xa,(%esp)
 804b3d4:	e8 17 dc ff ff       	call   8048ff0 <fputc@plt>
 804b3d9:	c7 84 24 b8 01 00 00 10 00 00 00 	movl   $0x10,0x1b8(%esp)
 804b3e4:	8d 94 24 b8 01 00 00 	lea    0x1b8(%esp),%edx
 804b3eb:	89 54 24 08          	mov    %edx,0x8(%esp)
 804b3ef:	8d 84 24 bc 03 00 00 	lea    0x3bc(%esp),%eax
 804b3f6:	89 44 24 04          	mov    %eax,0x4(%esp)
 804b3fa:	8b 44 24 2c          	mov    0x2c(%esp),%eax
 804b3fe:	89 04 24             	mov    %eax,(%esp)
 804b401:	e8 fa d9 ff ff       	call   8048e00 <accept@plt>
 804b406:	a3 20 15 05 08       	mov    %eax,0x8051520
 804b40b:	85 c0                	test   %eax,%eax
 804b40d:	0f 89 8e 00 00 00    	jns    804b4a1 <server_task+0x42f>
 804b413:	c7 44 24 0c 4f df 04 08 	movl   $0x804df4f,0xc(%esp)
 804b41b:	c7 44 24 08 c5 d9 04 08 	movl   $0x804d9c5,0x8(%esp)
 804b423:	c7 44 24 04 01 00 00 00 	movl   $0x1,0x4(%esp)
 804b42b:	a1 40 13 05 08       	mov    0x8051340,%eax
 804b430:	89 04 24             	mov    %eax,(%esp)
 804b433:	e8 08 dc ff ff       	call   8049040 <__fprintf_chk@plt>
 804b438:	a1 40 13 05 08       	mov    0x8051340,%eax
 804b43d:	89 44 24 0c          	mov    %eax,0xc(%esp)
 804b441:	c7 44 24 08 07 00 00 00 	movl   $0x7,0x8(%esp)
 804b449:	c7 44 24 04 01 00 00 00 	movl   $0x1,0x4(%esp)
 804b451:	c7 04 24 26 de 04 08 	movl   $0x804de26,(%esp)
 804b458:	e8 b3 d9 ff ff       	call   8048e10 <fwrite@plt>
 804b45d:	a1 40 13 05 08       	mov    0x8051340,%eax
 804b462:	89 44 24 0c          	mov    %eax,0xc(%esp)
 804b466:	c7 44 24 08 08 00 00 00 	movl   $0x8,0x8(%esp)
 804b46e:	c7 44 24 04 01 00 00 00 	movl   $0x1,0x4(%esp)
 804b476:	c7 04 24 62 de 04 08 	movl   $0x804de62,(%esp)
 804b47d:	e8 8e d9 ff ff       	call   8048e10 <fwrite@plt>
 804b482:	a1 40 13 05 08       	mov    0x8051340,%eax
 804b487:	89 44 24 04          	mov    %eax,0x4(%esp)
 804b48b:	c7 04 24 0a 00 00 00 	movl   $0xa,(%esp)
 804b492:	e8 59 db ff ff       	call   8048ff0 <fputc@plt>
 804b497:	b8 00 00 00 00       	mov    $0x0,%eax
 804b49c:	e9 ab 03 00 00       	jmp    804b84c <server_task+0x7da>
 804b4a1:	c7 44 24 0c 10 00 00 00 	movl   $0x10,0xc(%esp)
 804b4a9:	c7 44 24 08 28 15 05 08 	movl   $0x8051528,0x8(%esp)
 804b4b1:	8d 84 24 c0 03 00 00 	lea    0x3c0(%esp),%eax
 804b4b8:	89 44 24 04          	mov    %eax,0x4(%esp)
 804b4bc:	c7 04 24 02 00 00 00 	movl   $0x2,(%esp)
 804b4c3:	e8 58 db ff ff       	call   8049020 <inet_ntop@plt>
 804b4c8:	0f b7 84 24 be 03 00 00 	movzwl 0x3be(%esp),%eax
 804b4d0:	66 c1 c8 08          	ror    $0x8,%ax
 804b4d4:	0f b7 c0             	movzwl %ax,%eax
 804b4d7:	a3 38 15 05 08       	mov    %eax,0x8051538
 804b4dc:	e8 03 f9 ff ff       	call   804ade4 <server_on_connected>
 804b4e1:	8d 5c 24 30          	lea    0x30(%esp),%ebx
 804b4e5:	8d ac 24 b0 01 00 00 	lea    0x1b0(%esp),%ebp
 804b4ec:	b9 20 00 00 00       	mov    $0x20,%ecx
 804b4f1:	89 df                	mov    %ebx,%edi
 804b4f3:	b8 00 00 00 00       	mov    $0x0,%eax
 804b4f8:	fc                   	cld    
 804b4f9:	f3 ab                	rep stos %eax,%es:(%edi)
 804b4fb:	a1 20 15 05 08       	mov    0x8051520,%eax
 804b500:	89 04 24             	mov    %eax,(%esp)
 804b503:	e8 b8 d8 ff ff       	call   8048dc0 <__fdelt_chk@plt>
 804b508:	8b 0d 20 15 05 08    	mov    0x8051520,%ecx
 804b50e:	ba 01 00 00 00       	mov    $0x1,%edx
 804b513:	d3 e2                	shl    %cl,%edx
 804b515:	09 54 84 30          	or     %edx,0x30(%esp,%eax,4)
 804b519:	83 4c 24 30 01       	orl    $0x1,0x30(%esp)
 804b51e:	c7 84 24 b0 01 00 00 05 00 00 00 	movl   $0x5,0x1b0(%esp)
 804b529:	c7 84 24 b4 01 00 00 00 00 00 00 	movl   $0x0,0x1b4(%esp)
 804b534:	89 6c 24 10          	mov    %ebp,0x10(%esp)
 804b538:	c7 44 24 0c 00 00 00 00 	movl   $0x0,0xc(%esp)
 804b540:	c7 44 24 08 00 00 00 00 	movl   $0x0,0x8(%esp)
 804b548:	89 5c 24 04          	mov    %ebx,0x4(%esp)
 804b54c:	83 c1 01             	add    $0x1,%ecx
 804b54f:	89 0c 24             	mov    %ecx,(%esp)
 804b552:	e8 39 d8 ff ff       	call   8048d90 <select@plt>
 804b557:	83 f8 ff             	cmp    $0xffffffff,%eax
 804b55a:	0f 85 89 00 00 00    	jne    804b5e9 <server_task+0x577>
 804b560:	c7 44 24 0c 4f df 04 08 	movl   $0x804df4f,0xc(%esp)
 804b568:	c7 44 24 08 c5 d9 04 08 	movl   $0x804d9c5,0x8(%esp)
 804b570:	c7 44 24 04 01 00 00 00 	movl   $0x1,0x4(%esp)
 804b578:	a1 40 13 05 08       	mov    0x8051340,%eax
 804b57d:	89 04 24             	mov    %eax,(%esp)
 804b580:	e8 bb da ff ff       	call   8049040 <__fprintf_chk@plt>
 804b585:	a1 40 13 05 08       	mov    0x8051340,%eax
 804b58a:	89 44 24 0c          	mov    %eax,0xc(%esp)
 804b58e:	c7 44 24 08 07 00 00 00 	movl   $0x7,0x8(%esp)
 804b596:	c7 44 24 04 01 00 00 00 	movl   $0x1,0x4(%esp)
 804b59e:	c7 04 24 26 de 04 08 	movl   $0x804de26,(%esp)
 804b5a5:	e8 66 d8 ff ff       	call   8048e10 <fwrite@plt>
 804b5aa:	a1 40 13 05 08       	mov    0x8051340,%eax
 804b5af:	89 44 24 0c          	mov    %eax,0xc(%esp)
 804b5b3:	c7 44 24 08 09 00 00 00 	movl   $0x9,0x8(%esp)
 804b5bb:	c7 44 24 04 01 00 00 00 	movl   $0x1,0x4(%esp)
 804b5c3:	c7 04 24 6b de 04 08 	movl   $0x804de6b,(%esp)
 804b5ca:	e8 41 d8 ff ff       	call   8048e10 <fwrite@plt>
 804b5cf:	a1 40 13 05 08       	mov    0x8051340,%eax
 804b5d4:	89 44 24 04          	mov    %eax,0x4(%esp)
 804b5d8:	c7 04 24 0a 00 00 00 	movl   $0xa,(%esp)
 804b5df:	e8 0c da ff ff       	call   8048ff0 <fputc@plt>
 804b5e4:	e9 03 ff ff ff       	jmp    804b4ec <server_task+0x47a>
 804b5e9:	85 c0                	test   %eax,%eax
 804b5eb:	0f 84 fb fe ff ff    	je     804b4ec <server_task+0x47a>
 804b5f1:	a1 20 15 05 08       	mov    0x8051520,%eax
 804b5f6:	89 04 24             	mov    %eax,(%esp)
 804b5f9:	e8 c2 d7 ff ff       	call   8048dc0 <__fdelt_chk@plt>
 804b5fe:	8b 0d 20 15 05 08    	mov    0x8051520,%ecx
 804b604:	8b 44 84 30          	mov    0x30(%esp,%eax,4),%eax
 804b608:	d3 f8                	sar    %cl,%eax
 804b60a:	a8 01                	test   $0x1,%al
 804b60c:	0f 84 da fe ff ff    	je     804b4ec <server_task+0x47a>
 804b612:	c7 44 24 08 00 02 00 00 	movl   $0x200,0x8(%esp)
 804b61a:	8d 84 24 bc 01 00 00 	lea    0x1bc(%esp),%eax
 804b621:	89 44 24 04          	mov    %eax,0x4(%esp)
 804b625:	89 0c 24             	mov    %ecx,(%esp)
 804b628:	e8 d3 d6 ff ff       	call   8048d00 <read@plt>
 804b62d:	85 c0                	test   %eax,%eax
 804b62f:	0f 8e f6 01 00 00    	jle    804b82b <server_task+0x7b9>
 804b635:	c6 84 04 bc 01 00 00 00 	movb   $0x0,0x1bc(%esp,%eax,1)
 804b63d:	c7 44 24 0c 4f df 04 08 	movl   $0x804df4f,0xc(%esp)
 804b645:	c7 44 24 08 c5 d9 04 08 	movl   $0x804d9c5,0x8(%esp)
 804b64d:	c7 44 24 04 01 00 00 00 	movl   $0x1,0x4(%esp)
 804b655:	a1 40 13 05 08       	mov    0x8051340,%eax
 804b65a:	89 04 24             	mov    %eax,(%esp)
 804b65d:	e8 de d9 ff ff       	call   8049040 <__fprintf_chk@plt>
 804b662:	a1 40 13 05 08       	mov    0x8051340,%eax
 804b667:	89 44 24 0c          	mov    %eax,0xc(%esp)
 804b66b:	c7 44 24 08 07 00 00 00 	movl   $0x7,0x8(%esp)
 804b673:	c7 44 24 04 01 00 00 00 	movl   $0x1,0x4(%esp)
 804b67b:	c7 04 24 ca d9 04 08 	movl   $0x804d9ca,(%esp)
 804b682:	e8 89 d7 ff ff       	call   8048e10 <fwrite@plt>
 804b687:	8d b4 24 bc 01 00 00 	lea    0x1bc(%esp),%esi
 804b68e:	89 74 24 0c          	mov    %esi,0xc(%esp)
 804b692:	c7 44 24 08 75 de 04 08 	movl   $0x804de75,0x8(%esp)
 804b69a:	c7 44 24 04 01 00 00 00 	movl   $0x1,0x4(%esp)
 804b6a2:	a1 40 13 05 08       	mov    0x8051340,%eax
 804b6a7:	89 04 24             	mov    %eax,(%esp)
 804b6aa:	e8 91 d9 ff ff       	call   8049040 <__fprintf_chk@plt>
 804b6af:	a1 40 13 05 08       	mov    0x8051340,%eax
 804b6b4:	89 44 24 04          	mov    %eax,0x4(%esp)
 804b6b8:	c7 04 24 0a 00 00 00 	movl   $0xa,(%esp)
 804b6bf:	e8 2c d9 ff ff       	call   8048ff0 <fputc@plt>
 804b6c4:	c7 44 24 08 20 00 00 00 	movl   $0x20,0x8(%esp)
 804b6cc:	8d 84 24 b0 00 00 00 	lea    0xb0(%esp),%eax
 804b6d3:	89 44 24 04          	mov    %eax,0x4(%esp)
 804b6d7:	89 34 24             	mov    %esi,(%esp)
 804b6da:	e8 a7 f1 ff ff       	call   804a886 <server_parse>
 804b6df:	89 c6                	mov    %eax,%esi
 804b6e1:	c7 44 24 0c 4f df 04 08 	movl   $0x804df4f,0xc(%esp)
 804b6e9:	c7 44 24 08 c5 d9 04 08 	movl   $0x804d9c5,0x8(%esp)
 804b6f1:	c7 44 24 04 01 00 00 00 	movl   $0x1,0x4(%esp)
 804b6f9:	a1 40 13 05 08       	mov    0x8051340,%eax
 804b6fe:	89 04 24             	mov    %eax,(%esp)
 804b701:	e8 3a d9 ff ff       	call   8049040 <__fprintf_chk@plt>
 804b706:	a1 40 13 05 08       	mov    0x8051340,%eax
 804b70b:	89 44 24 0c          	mov    %eax,0xc(%esp)
 804b70f:	c7 44 24 08 07 00 00 00 	movl   $0x7,0x8(%esp)
 804b717:	c7 44 24 04 01 00 00 00 	movl   $0x1,0x4(%esp)
 804b71f:	c7 04 24 ca d9 04 08 	movl   $0x804d9ca,(%esp)
 804b726:	e8 e5 d6 ff ff       	call   8048e10 <fwrite@plt>
 804b72b:	89 74 24 0c          	mov    %esi,0xc(%esp)
 804b72f:	c7 44 24 08 7e de 04 08 	movl   $0x804de7e,0x8(%esp)
 804b737:	c7 44 24 04 01 00 00 00 	movl   $0x1,0x4(%esp)
 804b73f:	a1 40 13 05 08       	mov    0x8051340,%eax
 804b744:	89 04 24             	mov    %eax,(%esp)
 804b747:	e8 f4 d8 ff ff       	call   8049040 <__fprintf_chk@plt>
 804b74c:	a1 40 13 05 08       	mov    0x8051340,%eax
 804b751:	89 44 24 04          	mov    %eax,0x4(%esp)
 804b755:	c7 04 24 0a 00 00 00 	movl   $0xa,(%esp)
 804b75c:	e8 8f d8 ff ff       	call   8048ff0 <fputc@plt>
 804b761:	85 f6                	test   %esi,%esi
 804b763:	0f 84 83 fd ff ff    	je     804b4ec <server_task+0x47a>
 804b769:	8d 84 24 b0 00 00 00 	lea    0xb0(%esp),%eax
 804b770:	89 44 24 04          	mov    %eax,0x4(%esp)
 804b774:	89 34 24             	mov    %esi,(%esp)
 804b777:	e8 90 f3 ff ff       	call   804ab0c <server_valid>
 804b77c:	89 c7                	mov    %eax,%edi
 804b77e:	85 c0                	test   %eax,%eax
 804b780:	0f 89 85 00 00 00    	jns    804b80b <server_task+0x799>
 804b786:	c7 44 24 0c 4f df 04 08 	movl   $0x804df4f,0xc(%esp)
 804b78e:	c7 44 24 08 c5 d9 04 08 	movl   $0x804d9c5,0x8(%esp)
 804b796:	c7 44 24 04 01 00 00 00 	movl   $0x1,0x4(%esp)
 804b79e:	a1 40 13 05 08       	mov    0x8051340,%eax
 804b7a3:	89 04 24             	mov    %eax,(%esp)
 804b7a6:	e8 95 d8 ff ff       	call   8049040 <__fprintf_chk@plt>
 804b7ab:	a1 40 13 05 08       	mov    0x8051340,%eax
 804b7b0:	89 44 24 0c          	mov    %eax,0xc(%esp)
 804b7b4:	c7 44 24 08 07 00 00 00 	movl   $0x7,0x8(%esp)
 804b7bc:	c7 44 24 04 01 00 00 00 	movl   $0x1,0x4(%esp)
 804b7c4:	c7 04 24 26 de 04 08 	movl   $0x804de26,(%esp)
 804b7cb:	e8 40 d6 ff ff       	call   8048e10 <fwrite@plt>
 804b7d0:	89 7c 24 0c          	mov    %edi,0xc(%esp)
 804b7d4:	c7 44 24 08 10 df 04 08 	movl   $0x804df10,0x8(%esp)
 804b7dc:	c7 44 24 04 01 00 00 00 	movl   $0x1,0x4(%esp)
 804b7e4:	a1 40 13 05 08       	mov    0x8051340,%eax
 804b7e9:	89 04 24             	mov    %eax,(%esp)
 804b7ec:	e8 4f d8 ff ff       	call   8049040 <__fprintf_chk@plt>
 804b7f1:	a1 40 13 05 08       	mov    0x8051340,%eax
 804b7f6:	89 44 24 04          	mov    %eax,0x4(%esp)
 804b7fa:	c7 04 24 0a 00 00 00 	movl   $0xa,(%esp)
 804b801:	e8 ea d7 ff ff       	call   8048ff0 <fputc@plt>
 804b806:	e9 e1 fc ff ff       	jmp    804b4ec <server_task+0x47a>
 804b80b:	83 84 24 b0 00 00 00 01 	addl   $0x1,0xb0(%esp)
 804b813:	8d 84 24 b0 00 00 00 	lea    0xb0(%esp),%eax
 804b81a:	89 44 24 04          	mov    %eax,0x4(%esp)
 804b81e:	89 34 24             	mov    %esi,(%esp)
 804b821:	e8 17 f6 ff ff       	call   804ae3d <server_on_cmd_received>
 804b826:	e9 c1 fc ff ff       	jmp    804b4ec <server_task+0x47a>
 804b82b:	a1 20 15 05 08       	mov    0x8051520,%eax
 804b830:	89 04 24             	mov    %eax,(%esp)
 804b833:	e8 68 d8 ff ff       	call   80490a0 <close@plt>
 804b838:	c7 05 20 15 05 08 ff ff ff ff 	movl   $0xffffffff,0x8051520
 804b842:	e8 d6 f5 ff ff       	call   804ae1d <server_on_disconnected>
 804b847:	e9 08 fb ff ff       	jmp    804b354 <server_task+0x2e2>
 804b84c:	8b 94 24 cc 03 00 00 	mov    0x3cc(%esp),%edx
 804b853:	65 33 15 14 00 00 00 	xor    %gs:0x14,%edx
 804b85a:	74 09                	je     804b865 <server_task+0x7f3>
 804b85c:	8d 74 26 00          	lea    0x0(%esi,%eiz,1),%esi
 804b860:	e8 4b d5 ff ff       	call   8048db0 <__stack_chk_fail@plt>
 804b865:	81 c4 dc 03 00 00    	add    $0x3dc,%esp
 804b86b:	5b                   	pop    %ebx
 804b86c:	5e                   	pop    %esi
 804b86d:	5f                   	pop    %edi
 804b86e:	5d                   	pop    %ebp
 804b86f:	c3                   	ret    

0804b870 <server_start>:
 804b870:	53                   	push   %ebx
 804b871:	83 ec 18             	sub    $0x18,%esp
 804b874:	c7 05 24 15 05 08 28 23 00 00 	movl   $0x2328,0x8051524
 804b87e:	c7 44 24 0c 00 00 00 00 	movl   $0x0,0xc(%esp)
 804b886:	c7 44 24 08 72 b0 04 08 	movl   $0x804b072,0x8(%esp)
 804b88e:	c7 44 24 04 00 00 00 00 	movl   $0x0,0x4(%esp)
 804b896:	c7 04 24 2c 14 05 08 	movl   $0x805142c,(%esp)
 804b89d:	e8 ae d7 ff ff       	call   8049050 <pthread_create@plt>
 804b8a2:	89 c3                	mov    %eax,%ebx
 804b8a4:	85 c0                	test   %eax,%eax
 804b8a6:	0f 89 86 00 00 00    	jns    804b932 <server_start+0xc2>
 804b8ac:	c7 44 24 0c 5b df 04 08 	movl   $0x804df5b,0xc(%esp)
 804b8b4:	c7 44 24 08 c5 d9 04 08 	movl   $0x804d9c5,0x8(%esp)
 804b8bc:	c7 44 24 04 01 00 00 00 	movl   $0x1,0x4(%esp)
 804b8c4:	a1 40 13 05 08       	mov    0x8051340,%eax
 804b8c9:	89 04 24             	mov    %eax,(%esp)
 804b8cc:	e8 6f d7 ff ff       	call   8049040 <__fprintf_chk@plt>
 804b8d1:	a1 40 13 05 08       	mov    0x8051340,%eax
 804b8d6:	89 44 24 0c          	mov    %eax,0xc(%esp)
 804b8da:	c7 44 24 08 07 00 00 00 	movl   $0x7,0x8(%esp)
 804b8e2:	c7 44 24 04 01 00 00 00 	movl   $0x1,0x4(%esp)
 804b8ea:	c7 04 24 26 de 04 08 	movl   $0x804de26,(%esp)
 804b8f1:	e8 1a d5 ff ff       	call   8048e10 <fwrite@plt>
 804b8f6:	a1 40 13 05 08       	mov    0x8051340,%eax
 804b8fb:	89 44 24 0c          	mov    %eax,0xc(%esp)
 804b8ff:	c7 44 24 08 10 00 00 00 	movl   $0x10,0x8(%esp)
 804b907:	c7 44 24 04 01 00 00 00 	movl   $0x1,0x4(%esp)
 804b90f:	c7 04 24 87 de 04 08 	movl   $0x804de87,(%esp)
 804b916:	e8 f5 d4 ff ff       	call   8048e10 <fwrite@plt>
 804b91b:	a1 40 13 05 08       	mov    0x8051340,%eax
 804b920:	89 44 24 04          	mov    %eax,0x4(%esp)
 804b924:	c7 04 24 0a 00 00 00 	movl   $0xa,(%esp)
 804b92b:	e8 c0 d6 ff ff       	call   8048ff0 <fputc@plt>
 804b930:	eb 05                	jmp    804b937 <server_start+0xc7>
 804b932:	bb 00 00 00 00       	mov    $0x0,%ebx
 804b937:	89 d8                	mov    %ebx,%eax
 804b939:	83 c4 18             	add    $0x18,%esp
 804b93c:	5b                   	pop    %ebx
 804b93d:	c3                   	ret    

0804b93e <server_stop>:
 804b93e:	83 ec 1c             	sub    $0x1c,%esp
 804b941:	e8 1a ee ff ff       	call   804a760 <server_disconnect>
 804b946:	a1 2c 14 05 08       	mov    0x805142c,%eax
 804b94b:	89 04 24             	mov    %eax,(%esp)
 804b94e:	e8 0d d6 ff ff       	call   8048f60 <pthread_cancel@plt>
 804b953:	c7 44 24 04 00 00 00 00 	movl   $0x0,0x4(%esp)
 804b95b:	a1 2c 14 05 08       	mov    0x805142c,%eax
 804b960:	89 04 24             	mov    %eax,(%esp)
 804b963:	e8 98 d6 ff ff       	call   8049000 <pthread_join@plt>
 804b968:	b8 00 00 00 00       	mov    $0x0,%eax
 804b96d:	83 c4 1c             	add    $0x1c,%esp
 804b970:	c3                   	ret    
 804b971:	90                   	nop
 804b972:	90                   	nop
 804b973:	90                   	nop
 804b974:	90                   	nop
 804b975:	90                   	nop
 804b976:	90                   	nop
 804b977:	90                   	nop
 804b978:	90                   	nop
 804b979:	90                   	nop
 804b97a:	90                   	nop
 804b97b:	90                   	nop
 804b97c:	90                   	nop
 804b97d:	90                   	nop
 804b97e:	90                   	nop
 804b97f:	90                   	nop

0804b980 <readline>:
 804b980:	53                   	push   %ebx
 804b981:	83 ec 18             	sub    $0x18,%esp
 804b984:	8b 5c 24 24          	mov    0x24(%esp),%ebx
 804b988:	8b 44 24 20          	mov    0x20(%esp),%eax
 804b98c:	89 44 24 08          	mov    %eax,0x8(%esp)
 804b990:	c7 44 24 04 96 dd 04 08 	movl   $0x804dd96,0x4(%esp)
 804b998:	c7 04 24 01 00 00 00 	movl   $0x1,(%esp)
 804b99f:	e8 0c d6 ff ff       	call   8048fb0 <__printf_chk@plt>
 804b9a4:	a1 60 13 05 08       	mov    0x8051360,%eax
 804b9a9:	89 04 24             	mov    %eax,(%esp)
 804b9ac:	e8 5f d3 ff ff       	call   8048d10 <fflush@plt>
 804b9b1:	8b 44 24 28          	mov    0x28(%esp),%eax
 804b9b5:	89 44 24 08          	mov    %eax,0x8(%esp)
 804b9b9:	89 5c 24 04          	mov    %ebx,0x4(%esp)
 804b9bd:	c7 04 24 00 00 00 00 	movl   $0x0,(%esp)
 804b9c4:	e8 37 d3 ff ff       	call   8048d00 <read@plt>
 804b9c9:	85 c0                	test   %eax,%eax
 804b9cb:	7f 0f                	jg     804b9dc <readline+0x5c>
 804b9cd:	89 1c 24             	mov    %ebx,(%esp)
 804b9d0:	e8 5b d3 ff ff       	call   8048d30 <free@plt>
 804b9d5:	bb 00 00 00 00       	mov    $0x0,%ebx
 804b9da:	eb 04                	jmp    804b9e0 <readline+0x60>
 804b9dc:	c6 04 03 00          	movb   $0x0,(%ebx,%eax,1)
 804b9e0:	89 d8                	mov    %ebx,%eax
 804b9e2:	83 c4 18             	add    $0x18,%esp
 804b9e5:	5b                   	pop    %ebx
 804b9e6:	c3                   	ret    

0804b9e7 <shell>:
 804b9e7:	57                   	push   %edi
 804b9e8:	56                   	push   %esi
 804b9e9:	53                   	push   %ebx
 804b9ea:	81 ec 20 01 00 00    	sub    $0x120,%esp
 804b9f0:	65 a1 14 00 00 00    	mov    %gs:0x14,%eax
 804b9f6:	89 84 24 1c 01 00 00 	mov    %eax,0x11c(%esp)
 804b9fd:	31 c0                	xor    %eax,%eax
 804b9ff:	c7 04 24 0a 00 00 00 	movl   $0xa,(%esp)
 804ba06:	e8 45 d5 ff ff       	call   8048f50 <putchar@plt>
 804ba0b:	8d 7c 24 58          	lea    0x58(%esp),%edi
 804ba0f:	8d b4 24 dc 00 00 00 	lea    0xdc(%esp),%esi
 804ba16:	c7 04 24 00 00 00 00 	movl   $0x0,(%esp)
 804ba1d:	e8 3e d3 ff ff       	call   8048d60 <time@plt>
 804ba22:	89 44 24 58          	mov    %eax,0x58(%esp)
 804ba26:	89 3c 24             	mov    %edi,(%esp)
 804ba29:	e8 82 d4 ff ff       	call   8048eb0 <localtime@plt>
 804ba2e:	89 44 24 0c          	mov    %eax,0xc(%esp)
 804ba32:	c7 44 24 08 68 df 04 08 	movl   $0x804df68,0x8(%esp)
 804ba3a:	c7 44 24 04 40 00 00 00 	movl   $0x40,0x4(%esp)
 804ba42:	89 34 24             	mov    %esi,(%esp)
 804ba45:	e8 56 d4 ff ff       	call   8048ea0 <strftime@plt>
 804ba4a:	c7 44 24 08 80 00 00 00 	movl   $0x80,0x8(%esp)
 804ba52:	8d 5c 24 5c          	lea    0x5c(%esp),%ebx
 804ba56:	89 5c 24 04          	mov    %ebx,0x4(%esp)
 804ba5a:	89 34 24             	mov    %esi,(%esp)
 804ba5d:	e8 1e ff ff ff       	call   804b980 <readline>
 804ba62:	c7 44 24 08 10 00 00 00 	movl   $0x10,0x8(%esp)
 804ba6a:	8d 44 24 18          	lea    0x18(%esp),%eax
 804ba6e:	89 44 24 04          	mov    %eax,0x4(%esp)
 804ba72:	89 1c 24             	mov    %ebx,(%esp)
 804ba75:	e8 ab e3 ff ff       	call   8049e25 <cmd_line_parse>
 804ba7a:	85 c0                	test   %eax,%eax
 804ba7c:	74 98                	je     804ba16 <shell+0x2f>
 804ba7e:	8d 54 24 18          	lea    0x18(%esp),%edx
 804ba82:	89 54 24 04          	mov    %edx,0x4(%esp)
 804ba86:	89 04 24             	mov    %eax,(%esp)
 804ba89:	e8 28 e3 ff ff       	call   8049db6 <cmd_exec>
 804ba8e:	85 c0                	test   %eax,%eax
 804ba90:	7e 17                	jle    804baa9 <shell+0xc2>
 804ba92:	b8 00 00 00 00       	mov    $0x0,%eax
 804ba97:	8b 94 24 1c 01 00 00 	mov    0x11c(%esp),%edx
 804ba9e:	65 33 15 14 00 00 00 	xor    %gs:0x14,%edx
 804baa5:	74 39                	je     804bae0 <shell+0xf9>
 804baa7:	eb 32                	jmp    804badb <shell+0xf4>
 804baa9:	85 c0                	test   %eax,%eax
 804baab:	79 1d                	jns    804baca <shell+0xe3>
 804baad:	89 44 24 08          	mov    %eax,0x8(%esp)
 804bab1:	c7 44 24 04 7e df 04 08 	movl   $0x804df7e,0x4(%esp)
 804bab9:	c7 04 24 01 00 00 00 	movl   $0x1,(%esp)
 804bac0:	e8 eb d4 ff ff       	call   8048fb0 <__printf_chk@plt>
 804bac5:	e9 4c ff ff ff       	jmp    804ba16 <shell+0x2f>
 804baca:	c7 04 24 0a 00 00 00 	movl   $0xa,(%esp)
 804bad1:	e8 7a d4 ff ff       	call   8048f50 <putchar@plt>
 804bad6:	e9 3b ff ff ff       	jmp    804ba16 <shell+0x2f>
 804badb:	e8 d0 d2 ff ff       	call   8048db0 <__stack_chk_fail@plt>
 804bae0:	81 c4 20 01 00 00    	add    $0x120,%esp
 804bae6:	5b                   	pop    %ebx
 804bae7:	5e                   	pop    %esi
 804bae8:	5f                   	pop    %edi
 804bae9:	c3                   	ret    
 804baea:	90                   	nop
 804baeb:	90                   	nop

0804baec <task2>:
 804baec:	53                   	push   %ebx
 804baed:	81 ec a8 00 00 00    	sub    $0xa8,%esp
 804baf3:	8d 5c 24 20          	lea    0x20(%esp),%ebx
 804baf7:	89 1c 24             	mov    %ebx,(%esp)
 804bafa:	e8 c1 d4 ff ff       	call   8048fc0 <sigemptyset@plt>
 804baff:	c7 44 24 04 02 00 00 00 	movl   $0x2,0x4(%esp)
 804bb07:	89 1c 24             	mov    %ebx,(%esp)
 804bb0a:	e8 01 d4 ff ff       	call   8048f10 <sigaddset@plt>
 804bb0f:	c7 44 24 04 0f 00 00 00 	movl   $0xf,0x4(%esp)
 804bb17:	89 1c 24             	mov    %ebx,(%esp)
 804bb1a:	e8 f1 d3 ff ff       	call   8048f10 <sigaddset@plt>
 804bb1f:	c7 44 24 04 03 00 00 00 	movl   $0x3,0x4(%esp)
 804bb27:	89 1c 24             	mov    %ebx,(%esp)
 804bb2a:	e8 e1 d3 ff ff       	call   8048f10 <sigaddset@plt>
 804bb2f:	c7 44 24 04 06 00 00 00 	movl   $0x6,0x4(%esp)
 804bb37:	89 1c 24             	mov    %ebx,(%esp)
 804bb3a:	e8 d1 d3 ff ff       	call   8048f10 <sigaddset@plt>
 804bb3f:	c7 44 24 08 00 00 00 00 	movl   $0x0,0x8(%esp)
 804bb47:	89 5c 24 04          	mov    %ebx,0x4(%esp)
 804bb4b:	c7 04 24 00 00 00 00 	movl   $0x0,(%esp)
 804bb52:	e8 c9 d1 ff ff       	call   8048d20 <sigprocmask@plt>
 804bb57:	c7 44 24 0c 0d e0 04 08 	movl   $0x804e00d,0xc(%esp)
 804bb5f:	c7 44 24 08 c5 d9 04 08 	movl   $0x804d9c5,0x8(%esp)
 804bb67:	c7 44 24 04 01 00 00 00 	movl   $0x1,0x4(%esp)
 804bb6f:	a1 40 13 05 08       	mov    0x8051340,%eax
 804bb74:	89 04 24             	mov    %eax,(%esp)
 804bb77:	e8 c4 d4 ff ff       	call   8049040 <__fprintf_chk@plt>
 804bb7c:	a1 40 13 05 08       	mov    0x8051340,%eax
 804bb81:	89 44 24 0c          	mov    %eax,0xc(%esp)
 804bb85:	c7 44 24 08 07 00 00 00 	movl   $0x7,0x8(%esp)
 804bb8d:	c7 44 24 04 01 00 00 00 	movl   $0x1,0x4(%esp)
 804bb95:	c7 04 24 ca d9 04 08 	movl   $0x804d9ca,(%esp)
 804bb9c:	e8 6f d2 ff ff       	call   8048e10 <fwrite@plt>
 804bba1:	e8 6a d4 ff ff       	call   8049010 <getppid@plt>
 804bba6:	89 c3                	mov    %eax,%ebx
 804bba8:	e8 73 d2 ff ff       	call   8048e20 <getpid@plt>
 804bbad:	89 5c 24 10          	mov    %ebx,0x10(%esp)
 804bbb1:	89 44 24 0c          	mov    %eax,0xc(%esp)
 804bbb5:	c7 44 24 08 30 dd 04 08 	movl   $0x804dd30,0x8(%esp)
 804bbbd:	c7 44 24 04 01 00 00 00 	movl   $0x1,0x4(%esp)
 804bbc5:	a1 40 13 05 08       	mov    0x8051340,%eax
 804bbca:	89 04 24             	mov    %eax,(%esp)
 804bbcd:	e8 6e d4 ff ff       	call   8049040 <__fprintf_chk@plt>
 804bbd2:	a1 40 13 05 08       	mov    0x8051340,%eax
 804bbd7:	89 44 24 04          	mov    %eax,0x4(%esp)
 804bbdb:	c7 04 24 0a 00 00 00 	movl   $0xa,(%esp)
 804bbe2:	e8 09 d4 ff ff       	call   8048ff0 <fputc@plt>
 804bbe7:	c7 04 24 90 14 05 08 	movl   $0x8051490,(%esp)
 804bbee:	e8 dd d1 ff ff       	call   8048dd0 <pthread_mutex_lock@plt>
 804bbf3:	c7 44 24 0c 0d e0 04 08 	movl   $0x804e00d,0xc(%esp)
 804bbfb:	c7 44 24 08 c5 d9 04 08 	movl   $0x804d9c5,0x8(%esp)
 804bc03:	c7 44 24 04 01 00 00 00 	movl   $0x1,0x4(%esp)
 804bc0b:	a1 40 13 05 08       	mov    0x8051340,%eax
 804bc10:	89 04 24             	mov    %eax,(%esp)
 804bc13:	e8 28 d4 ff ff       	call   8049040 <__fprintf_chk@plt>
 804bc18:	a1 40 13 05 08       	mov    0x8051340,%eax
 804bc1d:	89 44 24 0c          	mov    %eax,0xc(%esp)
 804bc21:	c7 44 24 08 07 00 00 00 	movl   $0x7,0x8(%esp)
 804bc29:	c7 44 24 04 01 00 00 00 	movl   $0x1,0x4(%esp)
 804bc31:	c7 04 24 ca d9 04 08 	movl   $0x804d9ca,(%esp)
 804bc38:	e8 d3 d1 ff ff       	call   8048e10 <fwrite@plt>
 804bc3d:	a1 40 13 05 08       	mov    0x8051340,%eax
 804bc42:	89 44 24 0c          	mov    %eax,0xc(%esp)
 804bc46:	c7 44 24 08 19 00 00 00 	movl   $0x19,0x8(%esp)
 804bc4e:	c7 44 24 04 01 00 00 00 	movl   $0x1,0x4(%esp)
 804bc56:	c7 04 24 89 df 04 08 	movl   $0x804df89,(%esp)
 804bc5d:	e8 ae d1 ff ff       	call   8048e10 <fwrite@plt>
 804bc62:	a1 40 13 05 08       	mov    0x8051340,%eax
 804bc67:	89 44 24 04          	mov    %eax,0x4(%esp)
 804bc6b:	c7 04 24 0a 00 00 00 	movl   $0xa,(%esp)
 804bc72:	e8 79 d3 ff ff       	call   8048ff0 <fputc@plt>
 804bc77:	c7 44 24 04 90 14 05 08 	movl   $0x8051490,0x4(%esp)
 804bc7f:	c7 04 24 c0 14 05 08 	movl   $0x80514c0,(%esp)
 804bc86:	e8 e5 d0 ff ff       	call   8048d70 <pthread_cond_wait@plt>
 804bc8b:	c7 04 24 90 14 05 08 	movl   $0x8051490,(%esp)
 804bc92:	e8 49 d0 ff ff       	call   8048ce0 <pthread_mutex_unlock@plt>
 804bc97:	a1 a8 14 05 08       	mov    0x80514a8,%eax
 804bc9c:	85 c0                	test   %eax,%eax
 804bc9e:	0f 85 89 00 00 00    	jne    804bd2d <task2+0x241>
 804bca4:	c7 44 24 0c 0d e0 04 08 	movl   $0x804e00d,0xc(%esp)
 804bcac:	c7 44 24 08 c5 d9 04 08 	movl   $0x804d9c5,0x8(%esp)
 804bcb4:	c7 44 24 04 01 00 00 00 	movl   $0x1,0x4(%esp)
 804bcbc:	a1 40 13 05 08       	mov    0x8051340,%eax
 804bcc1:	89 04 24             	mov    %eax,(%esp)
 804bcc4:	e8 77 d3 ff ff       	call   8049040 <__fprintf_chk@plt>
 804bcc9:	a1 40 13 05 08       	mov    0x8051340,%eax
 804bcce:	89 44 24 0c          	mov    %eax,0xc(%esp)
 804bcd2:	c7 44 24 08 07 00 00 00 	movl   $0x7,0x8(%esp)
 804bcda:	c7 44 24 04 01 00 00 00 	movl   $0x1,0x4(%esp)
 804bce2:	c7 04 24 ca d9 04 08 	movl   $0x804d9ca,(%esp)
 804bce9:	e8 22 d1 ff ff       	call   8048e10 <fwrite@plt>
 804bcee:	a1 40 13 05 08       	mov    0x8051340,%eax
 804bcf3:	89 44 24 0c          	mov    %eax,0xc(%esp)
 804bcf7:	c7 44 24 08 03 00 00 00 	movl   $0x3,0x8(%esp)
 804bcff:	c7 44 24 04 01 00 00 00 	movl   $0x1,0x4(%esp)
 804bd07:	c7 04 24 ee dd 04 08 	movl   $0x804ddee,(%esp)
 804bd0e:	e8 fd d0 ff ff       	call   8048e10 <fwrite@plt>
 804bd13:	a1 40 13 05 08       	mov    0x8051340,%eax
 804bd18:	89 44 24 04          	mov    %eax,0x4(%esp)
 804bd1c:	c7 04 24 0a 00 00 00 	movl   $0xa,(%esp)
 804bd23:	e8 c8 d2 ff ff       	call   8048ff0 <fputc@plt>
 804bd28:	e9 83 02 00 00       	jmp    804bfb0 <task2+0x4c4>
 804bd2d:	83 f8 01             	cmp    $0x1,%eax
 804bd30:	0f 85 89 00 00 00    	jne    804bdbf <task2+0x2d3>
 804bd36:	c7 44 24 0c 0d e0 04 08 	movl   $0x804e00d,0xc(%esp)
 804bd3e:	c7 44 24 08 c5 d9 04 08 	movl   $0x804d9c5,0x8(%esp)
 804bd46:	c7 44 24 04 01 00 00 00 	movl   $0x1,0x4(%esp)
 804bd4e:	a1 40 13 05 08       	mov    0x8051340,%eax
 804bd53:	89 04 24             	mov    %eax,(%esp)
 804bd56:	e8 e5 d2 ff ff       	call   8049040 <__fprintf_chk@plt>
 804bd5b:	a1 40 13 05 08       	mov    0x8051340,%eax
 804bd60:	89 44 24 0c          	mov    %eax,0xc(%esp)
 804bd64:	c7 44 24 08 07 00 00 00 	movl   $0x7,0x8(%esp)
 804bd6c:	c7 44 24 04 01 00 00 00 	movl   $0x1,0x4(%esp)
 804bd74:	c7 04 24 ca d9 04 08 	movl   $0x804d9ca,(%esp)
 804bd7b:	e8 90 d0 ff ff       	call   8048e10 <fwrite@plt>
 804bd80:	a1 40 13 05 08       	mov    0x8051340,%eax
 804bd85:	89 44 24 0c          	mov    %eax,0xc(%esp)
 804bd89:	c7 44 24 08 04 00 00 00 	movl   $0x4,0x8(%esp)
 804bd91:	c7 44 24 04 01 00 00 00 	movl   $0x1,0x4(%esp)
 804bd99:	c7 04 24 f4 dd 04 08 	movl   $0x804ddf4,(%esp)
 804bda0:	e8 6b d0 ff ff       	call   8048e10 <fwrite@plt>
 804bda5:	a1 40 13 05 08       	mov    0x8051340,%eax
 804bdaa:	89 44 24 04          	mov    %eax,0x4(%esp)
 804bdae:	c7 04 24 0a 00 00 00 	movl   $0xa,(%esp)
 804bdb5:	e8 36 d2 ff ff       	call   8048ff0 <fputc@plt>
 804bdba:	e9 f1 01 00 00       	jmp    804bfb0 <task2+0x4c4>
 804bdbf:	83 f8 02             	cmp    $0x2,%eax
 804bdc2:	0f 85 e8 01 00 00    	jne    804bfb0 <task2+0x4c4>
 804bdc8:	c7 44 24 0c 0d e0 04 08 	movl   $0x804e00d,0xc(%esp)
 804bdd0:	c7 44 24 08 c5 d9 04 08 	movl   $0x804d9c5,0x8(%esp)
 804bdd8:	c7 44 24 04 01 00 00 00 	movl   $0x1,0x4(%esp)
 804bde0:	a1 40 13 05 08       	mov    0x8051340,%eax
 804bde5:	89 04 24             	mov    %eax,(%esp)
 804bde8:	e8 53 d2 ff ff       	call   8049040 <__fprintf_chk@plt>
 804bded:	a1 40 13 05 08       	mov    0x8051340,%eax
 804bdf2:	89 44 24 0c          	mov    %eax,0xc(%esp)
 804bdf6:	c7 44 24 08 07 00 00 00 	movl   $0x7,0x8(%esp)
 804bdfe:	c7 44 24 04 01 00 00 00 	movl   $0x1,0x4(%esp)
 804be06:	c7 04 24 ca d9 04 08 	movl   $0x804d9ca,(%esp)
 804be0d:	e8 fe cf ff ff       	call   8048e10 <fwrite@plt>
 804be12:	a1 40 13 05 08       	mov    0x8051340,%eax
 804be17:	89 44 24 0c          	mov    %eax,0xc(%esp)
 804be1b:	c7 44 24 08 05 00 00 00 	movl   $0x5,0x8(%esp)
 804be23:	c7 44 24 04 01 00 00 00 	movl   $0x1,0x4(%esp)
 804be2b:	c7 04 24 08 de 04 08 	movl   $0x804de08,(%esp)
 804be32:	e8 d9 cf ff ff       	call   8048e10 <fwrite@plt>
 804be37:	a1 40 13 05 08       	mov    0x8051340,%eax
 804be3c:	89 44 24 04          	mov    %eax,0x4(%esp)
 804be40:	c7 04 24 0a 00 00 00 	movl   $0xa,(%esp)
 804be47:	e8 a4 d1 ff ff       	call   8048ff0 <fputc@plt>
 804be4c:	83 3d a8 14 05 08 02 	cmpl   $0x2,0x80514a8
 804be53:	0f 85 d3 00 00 00    	jne    804bf2c <task2+0x440>
 804be59:	83 3d f0 14 05 08 00 	cmpl   $0x0,0x80514f0
 804be60:	0f 8e c6 00 00 00    	jle    804bf2c <task2+0x440>
 804be66:	c7 04 24 01 00 00 00 	movl   $0x1,(%esp)
 804be6d:	e8 0e cf ff ff       	call   8048d80 <sleep@plt>
 804be72:	c7 04 24 90 14 05 08 	movl   $0x8051490,(%esp)
 804be79:	e8 52 cf ff ff       	call   8048dd0 <pthread_mutex_lock@plt>
 804be7e:	83 2d f0 14 05 08 01 	subl   $0x1,0x80514f0
 804be85:	c7 04 24 90 14 05 08 	movl   $0x8051490,(%esp)
 804be8c:	e8 4f ce ff ff       	call   8048ce0 <pthread_mutex_unlock@plt>
 804be91:	c7 44 24 0c 0d e0 04 08 	movl   $0x804e00d,0xc(%esp)
 804be99:	c7 44 24 08 c5 d9 04 08 	movl   $0x804d9c5,0x8(%esp)
 804bea1:	c7 44 24 04 01 00 00 00 	movl   $0x1,0x4(%esp)
 804bea9:	a1 40 13 05 08       	mov    0x8051340,%eax
 804beae:	89 04 24             	mov    %eax,(%esp)
 804beb1:	e8 8a d1 ff ff       	call   8049040 <__fprintf_chk@plt>
 804beb6:	a1 40 13 05 08       	mov    0x8051340,%eax
 804bebb:	89 44 24 0c          	mov    %eax,0xc(%esp)
 804bebf:	c7 44 24 08 07 00 00 00 	movl   $0x7,0x8(%esp)
 804bec7:	c7 44 24 04 01 00 00 00 	movl   $0x1,0x4(%esp)
 804becf:	c7 04 24 ca d9 04 08 	movl   $0x804d9ca,(%esp)
 804bed6:	e8 35 cf ff ff       	call   8048e10 <fwrite@plt>
 804bedb:	a1 f0 14 05 08       	mov    0x80514f0,%eax
 804bee0:	89 44 24 0c          	mov    %eax,0xc(%esp)
 804bee4:	c7 44 24 08 a3 df 04 08 	movl   $0x804dfa3,0x8(%esp)
 804beec:	c7 44 24 04 01 00 00 00 	movl   $0x1,0x4(%esp)
 804bef4:	a1 40 13 05 08       	mov    0x8051340,%eax
 804bef9:	89 04 24             	mov    %eax,(%esp)
 804befc:	e8 3f d1 ff ff       	call   8049040 <__fprintf_chk@plt>
 804bf01:	a1 40 13 05 08       	mov    0x8051340,%eax
 804bf06:	89 44 24 04          	mov    %eax,0x4(%esp)
 804bf0a:	c7 04 24 0a 00 00 00 	movl   $0xa,(%esp)
 804bf11:	e8 da d0 ff ff       	call   8048ff0 <fputc@plt>
 804bf16:	83 3d a8 14 05 08 02 	cmpl   $0x2,0x80514a8
 804bf1d:	75 0d                	jne    804bf2c <task2+0x440>
 804bf1f:	83 3d f0 14 05 08 00 	cmpl   $0x0,0x80514f0
 804bf26:	0f 8f 3a ff ff ff    	jg     804be66 <task2+0x37a>
 804bf2c:	c7 44 24 0c 0d e0 04 08 	movl   $0x804e00d,0xc(%esp)
 804bf34:	c7 44 24 08 c5 d9 04 08 	movl   $0x804d9c5,0x8(%esp)
 804bf3c:	c7 44 24 04 01 00 00 00 	movl   $0x1,0x4(%esp)
 804bf44:	a1 40 13 05 08       	mov    0x8051340,%eax
 804bf49:	89 04 24             	mov    %eax,(%esp)
 804bf4c:	e8 ef d0 ff ff       	call   8049040 <__fprintf_chk@plt>
 804bf51:	a1 40 13 05 08       	mov    0x8051340,%eax
 804bf56:	89 44 24 0c          	mov    %eax,0xc(%esp)
 804bf5a:	c7 44 24 08 07 00 00 00 	movl   $0x7,0x8(%esp)
 804bf62:	c7 44 24 04 01 00 00 00 	movl   $0x1,0x4(%esp)
 804bf6a:	c7 04 24 ca d9 04 08 	movl   $0x804d9ca,(%esp)
 804bf71:	e8 9a ce ff ff       	call   8048e10 <fwrite@plt>
 804bf76:	a1 40 13 05 08       	mov    0x8051340,%eax
 804bf7b:	89 44 24 0c          	mov    %eax,0xc(%esp)
 804bf7f:	c7 44 24 08 04 00 00 00 	movl   $0x4,0x8(%esp)
 804bf87:	c7 44 24 04 01 00 00 00 	movl   $0x1,0x4(%esp)
 804bf8f:	c7 04 24 f4 dd 04 08 	movl   $0x804ddf4,(%esp)
 804bf96:	e8 75 ce ff ff       	call   8048e10 <fwrite@plt>
 804bf9b:	a1 40 13 05 08       	mov    0x8051340,%eax
 804bfa0:	89 44 24 04          	mov    %eax,0x4(%esp)
 804bfa4:	c7 04 24 0a 00 00 00 	movl   $0xa,(%esp)
 804bfab:	e8 40 d0 ff ff       	call   8048ff0 <fputc@plt>
 804bfb0:	c7 44 24 04 b3 df 04 08 	movl   $0x804dfb3,0x4(%esp)
 804bfb8:	c7 04 24 01 00 00 00 	movl   $0x1,(%esp)
 804bfbf:	e8 ec cf ff ff       	call   8048fb0 <__printf_chk@plt>
 804bfc4:	a1 60 13 05 08       	mov    0x8051360,%eax
 804bfc9:	89 04 24             	mov    %eax,(%esp)
 804bfcc:	e8 3f cd ff ff       	call   8048d10 <fflush@plt>
 804bfd1:	e9 11 fc ff ff       	jmp    804bbe7 <task2+0xfb>

0804bfd6 <task1>:
 804bfd6:	53                   	push   %ebx
 804bfd7:	81 ec a8 00 00 00    	sub    $0xa8,%esp
 804bfdd:	8d 5c 24 20          	lea    0x20(%esp),%ebx
 804bfe1:	89 1c 24             	mov    %ebx,(%esp)
 804bfe4:	e8 d7 cf ff ff       	call   8048fc0 <sigemptyset@plt>
 804bfe9:	c7 44 24 04 02 00 00 00 	movl   $0x2,0x4(%esp)
 804bff1:	89 1c 24             	mov    %ebx,(%esp)
 804bff4:	e8 17 cf ff ff       	call   8048f10 <sigaddset@plt>
 804bff9:	c7 44 24 04 0f 00 00 00 	movl   $0xf,0x4(%esp)
 804c001:	89 1c 24             	mov    %ebx,(%esp)
 804c004:	e8 07 cf ff ff       	call   8048f10 <sigaddset@plt>
 804c009:	c7 44 24 04 03 00 00 00 	movl   $0x3,0x4(%esp)
 804c011:	89 1c 24             	mov    %ebx,(%esp)
 804c014:	e8 f7 ce ff ff       	call   8048f10 <sigaddset@plt>
 804c019:	c7 44 24 04 06 00 00 00 	movl   $0x6,0x4(%esp)
 804c021:	89 1c 24             	mov    %ebx,(%esp)
 804c024:	e8 e7 ce ff ff       	call   8048f10 <sigaddset@plt>
 804c029:	c7 44 24 08 00 00 00 00 	movl   $0x0,0x8(%esp)
 804c031:	89 5c 24 04          	mov    %ebx,0x4(%esp)
 804c035:	c7 04 24 00 00 00 00 	movl   $0x0,(%esp)
 804c03c:	e8 df cc ff ff       	call   8048d20 <sigprocmask@plt>
 804c041:	c7 44 24 0c 13 e0 04 08 	movl   $0x804e013,0xc(%esp)
 804c049:	c7 44 24 08 c5 d9 04 08 	movl   $0x804d9c5,0x8(%esp)
 804c051:	c7 44 24 04 01 00 00 00 	movl   $0x1,0x4(%esp)
 804c059:	a1 40 13 05 08       	mov    0x8051340,%eax
 804c05e:	89 04 24             	mov    %eax,(%esp)
 804c061:	e8 da cf ff ff       	call   8049040 <__fprintf_chk@plt>
 804c066:	a1 40 13 05 08       	mov    0x8051340,%eax
 804c06b:	89 44 24 0c          	mov    %eax,0xc(%esp)
 804c06f:	c7 44 24 08 07 00 00 00 	movl   $0x7,0x8(%esp)
 804c077:	c7 44 24 04 01 00 00 00 	movl   $0x1,0x4(%esp)
 804c07f:	c7 04 24 ca d9 04 08 	movl   $0x804d9ca,(%esp)
 804c086:	e8 85 cd ff ff       	call   8048e10 <fwrite@plt>
 804c08b:	e8 80 cf ff ff       	call   8049010 <getppid@plt>
 804c090:	89 c3                	mov    %eax,%ebx
 804c092:	e8 89 cd ff ff       	call   8048e20 <getpid@plt>
 804c097:	89 5c 24 10          	mov    %ebx,0x10(%esp)
 804c09b:	89 44 24 0c          	mov    %eax,0xc(%esp)
 804c09f:	c7 44 24 08 30 dd 04 08 	movl   $0x804dd30,0x8(%esp)
 804c0a7:	c7 44 24 04 01 00 00 00 	movl   $0x1,0x4(%esp)
 804c0af:	a1 40 13 05 08       	mov    0x8051340,%eax
 804c0b4:	89 04 24             	mov    %eax,(%esp)
 804c0b7:	e8 84 cf ff ff       	call   8049040 <__fprintf_chk@plt>
 804c0bc:	a1 40 13 05 08       	mov    0x8051340,%eax
 804c0c1:	89 44 24 04          	mov    %eax,0x4(%esp)
 804c0c5:	c7 04 24 0a 00 00 00 	movl   $0xa,(%esp)
 804c0cc:	e8 1f cf ff ff       	call   8048ff0 <fputc@plt>
 804c0d1:	c7 05 fc 14 05 08 00 00 00 00 	movl   $0x0,0x80514fc
 804c0db:	c7 04 24 48 14 05 08 	movl   $0x8051448,(%esp)
 804c0e2:	e8 e9 cc ff ff       	call   8048dd0 <pthread_mutex_lock@plt>
 804c0e7:	c7 44 24 0c 13 e0 04 08 	movl   $0x804e013,0xc(%esp)
 804c0ef:	c7 44 24 08 c5 d9 04 08 	movl   $0x804d9c5,0x8(%esp)
 804c0f7:	c7 44 24 04 01 00 00 00 	movl   $0x1,0x4(%esp)
 804c0ff:	a1 40 13 05 08       	mov    0x8051340,%eax
 804c104:	89 04 24             	mov    %eax,(%esp)
 804c107:	e8 34 cf ff ff       	call   8049040 <__fprintf_chk@plt>
 804c10c:	a1 40 13 05 08       	mov    0x8051340,%eax
 804c111:	89 44 24 0c          	mov    %eax,0xc(%esp)
 804c115:	c7 44 24 08 07 00 00 00 	movl   $0x7,0x8(%esp)
 804c11d:	c7 44 24 04 01 00 00 00 	movl   $0x1,0x4(%esp)
 804c125:	c7 04 24 ca d9 04 08 	movl   $0x804d9ca,(%esp)
 804c12c:	e8 df cc ff ff       	call   8048e10 <fwrite@plt>
 804c131:	a1 40 13 05 08       	mov    0x8051340,%eax
 804c136:	89 44 24 0c          	mov    %eax,0xc(%esp)
 804c13a:	c7 44 24 08 19 00 00 00 	movl   $0x19,0x8(%esp)
 804c142:	c7 44 24 04 01 00 00 00 	movl   $0x1,0x4(%esp)
 804c14a:	c7 04 24 c6 df 04 08 	movl   $0x804dfc6,(%esp)
 804c151:	e8 ba cc ff ff       	call   8048e10 <fwrite@plt>
 804c156:	a1 40 13 05 08       	mov    0x8051340,%eax
 804c15b:	89 44 24 04          	mov    %eax,0x4(%esp)
 804c15f:	c7 04 24 0a 00 00 00 	movl   $0xa,(%esp)
 804c166:	e8 85 ce ff ff       	call   8048ff0 <fputc@plt>
 804c16b:	c7 44 24 04 48 14 05 08 	movl   $0x8051448,0x4(%esp)
 804c173:	c7 04 24 60 14 05 08 	movl   $0x8051460,(%esp)
 804c17a:	e8 f1 cb ff ff       	call   8048d70 <pthread_cond_wait@plt>
 804c17f:	c7 04 24 48 14 05 08 	movl   $0x8051448,(%esp)
 804c186:	e8 55 cb ff ff       	call   8048ce0 <pthread_mutex_unlock@plt>
 804c18b:	83 3d fc 14 05 08 01 	cmpl   $0x1,0x80514fc
 804c192:	0f 84 92 00 00 00    	je     804c22a <task1+0x254>
 804c198:	c7 05 44 14 05 08 01 00 00 00 	movl   $0x1,0x8051444
 804c1a2:	c7 44 24 04 e0 df 04 08 	movl   $0x804dfe0,0x4(%esp)
 804c1aa:	c7 04 24 01 00 00 00 	movl   $0x1,(%esp)
 804c1b1:	e8 fa cd ff ff       	call   8048fb0 <__printf_chk@plt>
 804c1b6:	eb 3b                	jmp    804c1f3 <task1+0x21d>
 804c1b8:	bb 05 00 00 00       	mov    $0x5,%ebx
 804c1bd:	89 5c 24 08          	mov    %ebx,0x8(%esp)
 804c1c1:	c7 44 24 04 f0 df 04 08 	movl   $0x804dff0,0x4(%esp)
 804c1c9:	c7 04 24 01 00 00 00 	movl   $0x1,(%esp)
 804c1d0:	e8 db cd ff ff       	call   8048fb0 <__printf_chk@plt>
 804c1d5:	a1 60 13 05 08       	mov    0x8051360,%eax
 804c1da:	89 04 24             	mov    %eax,(%esp)
 804c1dd:	e8 2e cb ff ff       	call   8048d10 <fflush@plt>
 804c1e2:	c7 04 24 01 00 00 00 	movl   $0x1,(%esp)
 804c1e9:	e8 92 cb ff ff       	call   8048d80 <sleep@plt>
 804c1ee:	83 eb 01             	sub    $0x1,%ebx
 804c1f1:	75 ca                	jne    804c1bd <task1+0x1e7>
 804c1f3:	83 3d 44 14 05 08 01 	cmpl   $0x1,0x8051444
 804c1fa:	74 bc                	je     804c1b8 <task1+0x1e2>
 804c1fc:	c7 44 24 04 b3 df 04 08 	movl   $0x804dfb3,0x4(%esp)
 804c204:	c7 04 24 01 00 00 00 	movl   $0x1,(%esp)
 804c20b:	e8 a0 cd ff ff       	call   8048fb0 <__printf_chk@plt>
 804c210:	a1 60 13 05 08       	mov    0x8051360,%eax
 804c215:	89 04 24             	mov    %eax,(%esp)
 804c218:	e8 f3 ca ff ff       	call   8048d10 <fflush@plt>
 804c21d:	83 3d fc 14 05 08 00 	cmpl   $0x0,0x80514fc
 804c224:	0f 84 b1 fe ff ff    	je     804c0db <task1+0x105>
 804c22a:	c7 44 24 0c 13 e0 04 08 	movl   $0x804e013,0xc(%esp)
 804c232:	c7 44 24 08 c5 d9 04 08 	movl   $0x804d9c5,0x8(%esp)
 804c23a:	c7 44 24 04 01 00 00 00 	movl   $0x1,0x4(%esp)
 804c242:	a1 40 13 05 08       	mov    0x8051340,%eax
 804c247:	89 04 24             	mov    %eax,(%esp)
 804c24a:	e8 f1 cd ff ff       	call   8049040 <__fprintf_chk@plt>
 804c24f:	a1 40 13 05 08       	mov    0x8051340,%eax
 804c254:	89 44 24 0c          	mov    %eax,0xc(%esp)
 804c258:	c7 44 24 08 07 00 00 00 	movl   $0x7,0x8(%esp)
 804c260:	c7 44 24 04 01 00 00 00 	movl   $0x1,0x4(%esp)
 804c268:	c7 04 24 ca d9 04 08 	movl   $0x804d9ca,(%esp)
 804c26f:	e8 9c cb ff ff       	call   8048e10 <fwrite@plt>
 804c274:	a1 40 13 05 08       	mov    0x8051340,%eax
 804c279:	89 44 24 0c          	mov    %eax,0xc(%esp)
 804c27d:	c7 44 24 08 0c 00 00 00 	movl   $0xc,0x8(%esp)
 804c285:	c7 44 24 04 01 00 00 00 	movl   $0x1,0x4(%esp)
 804c28d:	c7 04 24 f4 df 04 08 	movl   $0x804dff4,(%esp)
 804c294:	e8 77 cb ff ff       	call   8048e10 <fwrite@plt>
 804c299:	a1 40 13 05 08       	mov    0x8051340,%eax
 804c29e:	89 44 24 04          	mov    %eax,0x4(%esp)
 804c2a2:	c7 04 24 0a 00 00 00 	movl   $0xa,(%esp)
 804c2a9:	e8 42 cd ff ff       	call   8048ff0 <fputc@plt>
 804c2ae:	c7 04 24 00 00 00 00 	movl   $0x0,(%esp)
 804c2b5:	e8 e6 cc ff ff       	call   8048fa0 <pthread_exit@plt>

0804c2ba <task1_run>:
 804c2ba:	83 ec 1c             	sub    $0x1c,%esp
 804c2bd:	b8 01 00 00 00       	mov    $0x1,%eax
 804c2c2:	83 3d 44 14 05 08 01 	cmpl   $0x1,0x8051444
 804c2c9:	74 29                	je     804c2f4 <task1_run+0x3a>
 804c2cb:	c7 04 24 48 14 05 08 	movl   $0x8051448,(%esp)
 804c2d2:	e8 f9 ca ff ff       	call   8048dd0 <pthread_mutex_lock@plt>
 804c2d7:	c7 04 24 60 14 05 08 	movl   $0x8051460,(%esp)
 804c2de:	e8 4d cb ff ff       	call   8048e30 <pthread_cond_signal@plt>
 804c2e3:	c7 04 24 48 14 05 08 	movl   $0x8051448,(%esp)
 804c2ea:	e8 f1 c9 ff ff       	call   8048ce0 <pthread_mutex_unlock@plt>
 804c2ef:	b8 00 00 00 00       	mov    $0x0,%eax
 804c2f4:	83 c4 1c             	add    $0x1c,%esp
 804c2f7:	c3                   	ret    

0804c2f8 <task1_stop>:
 804c2f8:	83 ec 1c             	sub    $0x1c,%esp
 804c2fb:	b8 01 00 00 00       	mov    $0x1,%eax
 804c300:	83 3d 44 14 05 08 00 	cmpl   $0x0,0x8051444
 804c307:	74 33                	je     804c33c <task1_stop+0x44>
 804c309:	c7 04 24 48 14 05 08 	movl   $0x8051448,(%esp)
 804c310:	e8 bb ca ff ff       	call   8048dd0 <pthread_mutex_lock@plt>
 804c315:	c7 05 44 14 05 08 00 00 00 00 	movl   $0x0,0x8051444
 804c31f:	c7 04 24 60 14 05 08 	movl   $0x8051460,(%esp)
 804c326:	e8 05 cb ff ff       	call   8048e30 <pthread_cond_signal@plt>
 804c32b:	c7 04 24 48 14 05 08 	movl   $0x8051448,(%esp)
 804c332:	e8 a9 c9 ff ff       	call   8048ce0 <pthread_mutex_unlock@plt>
 804c337:	b8 00 00 00 00       	mov    $0x0,%eax
 804c33c:	83 c4 1c             	add    $0x1c,%esp
 804c33f:	c3                   	ret    

0804c340 <task2_run>:
 804c340:	83 ec 1c             	sub    $0x1c,%esp
 804c343:	c7 04 24 90 14 05 08 	movl   $0x8051490,(%esp)
 804c34a:	e8 81 ca ff ff       	call   8048dd0 <pthread_mutex_lock@plt>
 804c34f:	c7 05 a8 14 05 08 00 00 00 00 	movl   $0x0,0x80514a8
 804c359:	c7 04 24 c0 14 05 08 	movl   $0x80514c0,(%esp)
 804c360:	e8 cb ca ff ff       	call   8048e30 <pthread_cond_signal@plt>
 804c365:	c7 04 24 90 14 05 08 	movl   $0x8051490,(%esp)
 804c36c:	e8 6f c9 ff ff       	call   8048ce0 <pthread_mutex_unlock@plt>
 804c371:	b8 00 00 00 00       	mov    $0x0,%eax
 804c376:	83 c4 1c             	add    $0x1c,%esp
 804c379:	c3                   	ret    

0804c37a <task2_stop>:
 804c37a:	83 ec 1c             	sub    $0x1c,%esp
 804c37d:	c7 04 24 90 14 05 08 	movl   $0x8051490,(%esp)
 804c384:	e8 47 ca ff ff       	call   8048dd0 <pthread_mutex_lock@plt>
 804c389:	c7 05 a8 14 05 08 01 00 00 00 	movl   $0x1,0x80514a8
 804c393:	c7 04 24 c0 14 05 08 	movl   $0x80514c0,(%esp)
 804c39a:	e8 91 ca ff ff       	call   8048e30 <pthread_cond_signal@plt>
 804c39f:	c7 04 24 90 14 05 08 	movl   $0x8051490,(%esp)
 804c3a6:	e8 35 c9 ff ff       	call   8048ce0 <pthread_mutex_unlock@plt>
 804c3ab:	b8 00 00 00 00       	mov    $0x0,%eax
 804c3b0:	83 c4 1c             	add    $0x1c,%esp
 804c3b3:	c3                   	ret    

0804c3b4 <task2_timer>:
 804c3b4:	83 ec 1c             	sub    $0x1c,%esp
 804c3b7:	c7 04 24 90 14 05 08 	movl   $0x8051490,(%esp)
 804c3be:	e8 0d ca ff ff       	call   8048dd0 <pthread_mutex_lock@plt>
 804c3c3:	c7 05 a8 14 05 08 02 00 00 00 	movl   $0x2,0x80514a8
 804c3cd:	8b 44 24 20          	mov    0x20(%esp),%eax
 804c3d1:	a3 f0 14 05 08       	mov    %eax,0x80514f0
 804c3d6:	c7 04 24 c0 14 05 08 	movl   $0x80514c0,(%esp)
 804c3dd:	e8 4e ca ff ff       	call   8048e30 <pthread_cond_signal@plt>
 804c3e2:	c7 04 24 90 14 05 08 	movl   $0x8051490,(%esp)
 804c3e9:	e8 f2 c8 ff ff       	call   8048ce0 <pthread_mutex_unlock@plt>
 804c3ee:	b8 00 00 00 00       	mov    $0x0,%eax
 804c3f3:	83 c4 1c             	add    $0x1c,%esp
 804c3f6:	c3                   	ret    

0804c3f7 <tasks_start>:
 804c3f7:	83 ec 1c             	sub    $0x1c,%esp
 804c3fa:	c7 44 24 0c 01 e0 04 08 	movl   $0x804e001,0xc(%esp)
 804c402:	c7 44 24 08 c5 d9 04 08 	movl   $0x804d9c5,0x8(%esp)
 804c40a:	c7 44 24 04 01 00 00 00 	movl   $0x1,0x4(%esp)
 804c412:	a1 40 13 05 08       	mov    0x8051340,%eax
 804c417:	89 04 24             	mov    %eax,(%esp)
 804c41a:	e8 21 cc ff ff       	call   8049040 <__fprintf_chk@plt>
 804c41f:	a1 40 13 05 08       	mov    0x8051340,%eax
 804c424:	89 44 24 0c          	mov    %eax,0xc(%esp)
 804c428:	c7 44 24 08 07 00 00 00 	movl   $0x7,0x8(%esp)
 804c430:	c7 44 24 04 01 00 00 00 	movl   $0x1,0x4(%esp)
 804c438:	c7 04 24 ca d9 04 08 	movl   $0x804d9ca,(%esp)
 804c43f:	e8 cc c9 ff ff       	call   8048e10 <fwrite@plt>
 804c444:	a1 40 13 05 08       	mov    0x8051340,%eax
 804c449:	89 44 24 0c          	mov    %eax,0xc(%esp)
 804c44d:	c7 44 24 08 13 00 00 00 	movl   $0x13,0x8(%esp)
 804c455:	c7 44 24 04 01 00 00 00 	movl   $0x1,0x4(%esp)
 804c45d:	c7 04 24 99 dd 04 08 	movl   $0x804dd99,(%esp)
 804c464:	e8 a7 c9 ff ff       	call   8048e10 <fwrite@plt>
 804c469:	a1 40 13 05 08       	mov    0x8051340,%eax
 804c46e:	89 44 24 04          	mov    %eax,0x4(%esp)
 804c472:	c7 04 24 0a 00 00 00 	movl   $0xa,(%esp)
 804c479:	e8 72 cb ff ff       	call   8048ff0 <fputc@plt>
 804c47e:	c7 44 24 0c 00 00 00 00 	movl   $0x0,0xc(%esp)
 804c486:	c7 44 24 08 d6 bf 04 08 	movl   $0x804bfd6,0x8(%esp)
 804c48e:	c7 44 24 04 00 00 00 00 	movl   $0x0,0x4(%esp)
 804c496:	c7 04 24 f4 14 05 08 	movl   $0x80514f4,(%esp)
 804c49d:	e8 ae cb ff ff       	call   8049050 <pthread_create@plt>
 804c4a2:	85 c0                	test   %eax,%eax
 804c4a4:	75 24                	jne    804c4ca <tasks_start+0xd3>
 804c4a6:	c7 44 24 0c 00 00 00 00 	movl   $0x0,0xc(%esp)
 804c4ae:	c7 44 24 08 ec ba 04 08 	movl   $0x804baec,0x8(%esp)
 804c4b6:	c7 44 24 04 00 00 00 00 	movl   $0x0,0x4(%esp)
 804c4be:	c7 04 24 f8 14 05 08 	movl   $0x80514f8,(%esp)
 804c4c5:	e8 86 cb ff ff       	call   8049050 <pthread_create@plt>
 804c4ca:	83 c4 1c             	add    $0x1c,%esp
 804c4cd:	c3                   	ret    

0804c4ce <tasks_stop>:
 804c4ce:	83 ec 1c             	sub    $0x1c,%esp
 804c4d1:	a1 f8 14 05 08       	mov    0x80514f8,%eax
 804c4d6:	89 04 24             	mov    %eax,(%esp)
 804c4d9:	e8 82 ca ff ff       	call   8048f60 <pthread_cancel@plt>
 804c4de:	c7 44 24 04 00 00 00 00 	movl   $0x0,0x4(%esp)
 804c4e6:	a1 f8 14 05 08       	mov    0x80514f8,%eax
 804c4eb:	89 04 24             	mov    %eax,(%esp)
 804c4ee:	e8 0d cb ff ff       	call   8049000 <pthread_join@plt>
 804c4f3:	c7 04 24 48 14 05 08 	movl   $0x8051448,(%esp)
 804c4fa:	e8 d1 c8 ff ff       	call   8048dd0 <pthread_mutex_lock@plt>
 804c4ff:	c7 05 fc 14 05 08 01 00 00 00 	movl   $0x1,0x80514fc
 804c509:	c7 04 24 60 14 05 08 	movl   $0x8051460,(%esp)
 804c510:	e8 1b c9 ff ff       	call   8048e30 <pthread_cond_signal@plt>
 804c515:	c7 04 24 48 14 05 08 	movl   $0x8051448,(%esp)
 804c51c:	e8 bf c7 ff ff       	call   8048ce0 <pthread_mutex_unlock@plt>
 804c521:	c7 44 24 04 00 00 00 00 	movl   $0x0,0x4(%esp)
 804c529:	a1 f4 14 05 08       	mov    0x80514f4,%eax
 804c52e:	89 04 24             	mov    %eax,(%esp)
 804c531:	e8 ca ca ff ff       	call   8049000 <pthread_join@plt>
 804c536:	c7 44 24 0c 19 e0 04 08 	movl   $0x804e019,0xc(%esp)
 804c53e:	c7 44 24 08 c5 d9 04 08 	movl   $0x804d9c5,0x8(%esp)
 804c546:	c7 44 24 04 01 00 00 00 	movl   $0x1,0x4(%esp)
 804c54e:	a1 40 13 05 08       	mov    0x8051340,%eax
 804c553:	89 04 24             	mov    %eax,(%esp)
 804c556:	e8 e5 ca ff ff       	call   8049040 <__fprintf_chk@plt>
 804c55b:	a1 40 13 05 08       	mov    0x8051340,%eax
 804c560:	89 44 24 0c          	mov    %eax,0xc(%esp)
 804c564:	c7 44 24 08 07 00 00 00 	movl   $0x7,0x8(%esp)
 804c56c:	c7 44 24 04 01 00 00 00 	movl   $0x1,0x4(%esp)
 804c574:	c7 04 24 ca d9 04 08 	movl   $0x804d9ca,(%esp)
 804c57b:	e8 90 c8 ff ff       	call   8048e10 <fwrite@plt>
 804c580:	a1 40 13 05 08       	mov    0x8051340,%eax
 804c585:	89 44 24 0c          	mov    %eax,0xc(%esp)
 804c589:	c7 44 24 08 08 00 00 00 	movl   $0x8,0x8(%esp)
 804c591:	c7 44 24 04 01 00 00 00 	movl   $0x1,0x4(%esp)
 804c599:	c7 04 24 ad dd 04 08 	movl   $0x804ddad,(%esp)
 804c5a0:	e8 6b c8 ff ff       	call   8048e10 <fwrite@plt>
 804c5a5:	a1 40 13 05 08       	mov    0x8051340,%eax
 804c5aa:	89 44 24 04          	mov    %eax,0x4(%esp)
 804c5ae:	c7 04 24 0a 00 00 00 	movl   $0xa,(%esp)
 804c5b5:	e8 36 ca ff ff       	call   8048ff0 <fputc@plt>
 804c5ba:	b8 00 00 00 00       	mov    $0x0,%eax
 804c5bf:	83 c4 1c             	add    $0x1c,%esp
 804c5c2:	c3                   	ret    
 804c5c3:	90                   	nop
 804c5c4:	90                   	nop
 804c5c5:	90                   	nop
 804c5c6:	90                   	nop
 804c5c7:	90                   	nop
 804c5c8:	90                   	nop
 804c5c9:	90                   	nop
 804c5ca:	90                   	nop
 804c5cb:	90                   	nop
 804c5cc:	90                   	nop
 804c5cd:	90                   	nop
 804c5ce:	90                   	nop
 804c5cf:	90                   	nop

0804c5d0 <bin64_get>:
int bin64_get(struct conf_var *var, char *s)
{
	s = "";

	return 0;
}
 804c5d0:	b8 00 00 00 00       	mov    $0x0,%eax
 804c5d5:	c3                   	ret    

0804c5d6 <oct32_get>:
int oct32_get(struct conf_var *var, char *s)
{
	s = "";

	return 0;
}
 804c5d6:	b8 00 00 00 00       	mov    $0x0,%eax
 804c5db:	c3                   	ret    

0804c5dc <ratio_set>:

	return 0;
}

int ratio_set(struct conf_var *var, const char *s)
{
 804c5dc:	53                   	push   %ebx
 804c5dd:	83 ec 18             	sub    $0x18,%esp
 804c5e0:	8b 5c 24 20          	mov    0x20(%esp),%ebx
	if (var->p == NULL) {
 804c5e4:	83 7b 08 00          	cmpl   $0x0,0x8(%ebx)
 804c5e8:	75 0f                	jne    804c5f9 <ratio_set+0x1d>
		var->p = malloc(2 * sizeof(int));
 804c5ea:	c7 04 24 08 00 00 00 	movl   $0x8,(%esp)
 804c5f1:	e8 4a c8 ff ff       	call   8048e40 <malloc@plt>
 804c5f6:	89 43 08             	mov    %eax,0x8(%ebx)
	}

	return 0;
}
 804c5f9:	b8 00 00 00 00       	mov    $0x0,%eax
 804c5fe:	83 c4 18             	add    $0x18,%esp
 804c601:	5b                   	pop    %ebx
 804c602:	c3                   	ret    

0804c603 <cymk_set>:

	return 0;
}

int cymk_set(struct conf_var *var, const char *s)
{
 804c603:	53                   	push   %ebx
 804c604:	83 ec 18             	sub    $0x18,%esp
 804c607:	8b 5c 24 20          	mov    0x20(%esp),%ebx
	if (var->p == NULL) {
 804c60b:	83 7b 08 00          	cmpl   $0x0,0x8(%ebx)
 804c60f:	75 0f                	jne    804c620 <cymk_set+0x1d>
		var->p = malloc(sizeof(unsigned int));
 804c611:	c7 04 24 04 00 00 00 	movl   $0x4,(%esp)
 804c618:	e8 23 c8 ff ff       	call   8048e40 <malloc@plt>
 804c61d:	89 43 08             	mov    %eax,0x8(%ebx)
	}

	return 0;
}
 804c620:	b8 00 00 00 00       	mov    $0x0,%eax
 804c625:	83 c4 18             	add    $0x18,%esp
 804c628:	5b                   	pop    %ebx
 804c629:	c3                   	ret    

0804c62a <rgbi_set>:

	return 0;
}

int rgbi_set(struct conf_var *var, const char *s)
{
 804c62a:	53                   	push   %ebx
 804c62b:	83 ec 18             	sub    $0x18,%esp
 804c62e:	8b 5c 24 20          	mov    0x20(%esp),%ebx
	if (var->p == NULL) {
 804c632:	83 7b 08 00          	cmpl   $0x0,0x8(%ebx)
 804c636:	75 0f                	jne    804c647 <rgbi_set+0x1d>
		var->p = malloc(sizeof(unsigned int));
 804c638:	c7 04 24 04 00 00 00 	movl   $0x4,(%esp)
 804c63f:	e8 fc c7 ff ff       	call   8048e40 <malloc@plt>
 804c644:	89 43 08             	mov    %eax,0x8(%ebx)
	}

	return 0;
}
 804c647:	b8 00 00 00 00       	mov    $0x0,%eax
 804c64c:	83 c4 18             	add    $0x18,%esp
 804c64f:	5b                   	pop    %ebx
 804c650:	c3                   	ret    

0804c651 <rgb_set>:

	return 0;
}

int rgb_set(struct conf_var *var, const char *s)
{
 804c651:	53                   	push   %ebx
 804c652:	83 ec 18             	sub    $0x18,%esp
 804c655:	8b 5c 24 20          	mov    0x20(%esp),%ebx
	if (var->p == NULL) {
 804c659:	83 7b 08 00          	cmpl   $0x0,0x8(%ebx)
 804c65d:	75 0f                	jne    804c66e <rgb_set+0x1d>
		var->p = malloc(sizeof(unsigned int));
 804c65f:	c7 04 24 04 00 00 00 	movl   $0x4,(%esp)
 804c666:	e8 d5 c7 ff ff       	call   8048e40 <malloc@plt>
 804c66b:	89 43 08             	mov    %eax,0x8(%ebx)
	}

	return 0;
}
 804c66e:	b8 00 00 00 00       	mov    $0x0,%eax
 804c673:	83 c4 18             	add    $0x18,%esp
 804c676:	5b                   	pop    %ebx
 804c677:	c3                   	ret    

0804c678 <oct64_set>:

	return 0;
}

int oct64_set(struct conf_var *var, const char *s)
{
 804c678:	53                   	push   %ebx
 804c679:	83 ec 18             	sub    $0x18,%esp
 804c67c:	8b 5c 24 20          	mov    0x20(%esp),%ebx
	if (var->p == NULL) {
 804c680:	83 7b 08 00          	cmpl   $0x0,0x8(%ebx)
 804c684:	75 0f                	jne    804c695 <oct64_set+0x1d>
		var->p = malloc(sizeof(long long int));
 804c686:	c7 04 24 08 00 00 00 	movl   $0x8,(%esp)
 804c68d:	e8 ae c7 ff ff       	call   8048e40 <malloc@plt>
 804c692:	89 43 08             	mov    %eax,0x8(%ebx)
	}

	return 0;
}
 804c695:	b8 00 00 00 00       	mov    $0x0,%eax
 804c69a:	83 c4 18             	add    $0x18,%esp
 804c69d:	5b                   	pop    %ebx
 804c69e:	c3                   	ret    

0804c69f <oct32_set>:

	return 0;
}

int oct32_set(struct conf_var *var, const char *s)
{
 804c69f:	53                   	push   %ebx
 804c6a0:	83 ec 18             	sub    $0x18,%esp
 804c6a3:	8b 5c 24 20          	mov    0x20(%esp),%ebx
	if (var->p == NULL) {
 804c6a7:	83 7b 08 00          	cmpl   $0x0,0x8(%ebx)
 804c6ab:	75 0f                	jne    804c6bc <oct32_set+0x1d>
		var->p = malloc(sizeof(unsigned int));
 804c6ad:	c7 04 24 04 00 00 00 	movl   $0x4,(%esp)
 804c6b4:	e8 87 c7 ff ff       	call   8048e40 <malloc@plt>
 804c6b9:	89 43 08             	mov    %eax,0x8(%ebx)
	}

	return 0;
}
 804c6bc:	b8 00 00 00 00       	mov    $0x0,%eax
 804c6c1:	83 c4 18             	add    $0x18,%esp
 804c6c4:	5b                   	pop    %ebx
 804c6c5:	c3                   	ret    

0804c6c6 <oct16_set>:

	return 0;
}

int oct16_set(struct conf_var *var, const char *s)
{
 804c6c6:	53                   	push   %ebx
 804c6c7:	83 ec 18             	sub    $0x18,%esp
 804c6ca:	8b 5c 24 20          	mov    0x20(%esp),%ebx
	if (var->p == NULL) {
 804c6ce:	83 7b 08 00          	cmpl   $0x0,0x8(%ebx)
 804c6d2:	75 0f                	jne    804c6e3 <oct16_set+0x1d>
		var->p = malloc(sizeof(short int));
 804c6d4:	c7 04 24 02 00 00 00 	movl   $0x2,(%esp)
 804c6db:	e8 60 c7 ff ff       	call   8048e40 <malloc@plt>
 804c6e0:	89 43 08             	mov    %eax,0x8(%ebx)
	}

	return 0;
}
 804c6e3:	b8 00 00 00 00       	mov    $0x0,%eax
 804c6e8:	83 c4 18             	add    $0x18,%esp
 804c6eb:	5b                   	pop    %ebx
 804c6ec:	c3                   	ret    

0804c6ed <oct8_set>:

	return 0;
}

int oct8_set(struct conf_var *var, const char *s)
{
 804c6ed:	53                   	push   %ebx
 804c6ee:	83 ec 18             	sub    $0x18,%esp
 804c6f1:	8b 5c 24 20          	mov    0x20(%esp),%ebx
	if (var->p == NULL) {
 804c6f5:	83 7b 08 00          	cmpl   $0x0,0x8(%ebx)
 804c6f9:	75 0f                	jne    804c70a <oct8_set+0x1d>
		var->p = malloc(sizeof(unsigned char));
 804c6fb:	c7 04 24 01 00 00 00 	movl   $0x1,(%esp)
 804c702:	e8 39 c7 ff ff       	call   8048e40 <malloc@plt>
 804c707:	89 43 08             	mov    %eax,0x8(%ebx)
	}

	return 0;
}
 804c70a:	b8 00 00 00 00       	mov    $0x0,%eax
 804c70f:	83 c4 18             	add    $0x18,%esp
 804c712:	5b                   	pop    %ebx
 804c713:	c3                   	ret    

0804c714 <bin64_set>:

	return 0;
}

int bin64_set(struct conf_var *var, const char *s)
{
 804c714:	53                   	push   %ebx
 804c715:	83 ec 18             	sub    $0x18,%esp
 804c718:	8b 5c 24 20          	mov    0x20(%esp),%ebx
	if (var->p == NULL) {
 804c71c:	83 7b 08 00          	cmpl   $0x0,0x8(%ebx)
 804c720:	75 0f                	jne    804c731 <bin64_set+0x1d>
		var->p = malloc(sizeof(long long int));
 804c722:	c7 04 24 08 00 00 00 	movl   $0x8,(%esp)
 804c729:	e8 12 c7 ff ff       	call   8048e40 <malloc@plt>
 804c72e:	89 43 08             	mov    %eax,0x8(%ebx)
	}

	return 0;
}
 804c731:	b8 00 00 00 00       	mov    $0x0,%eax
 804c736:	83 c4 18             	add    $0x18,%esp
 804c739:	5b                   	pop    %ebx
 804c73a:	c3                   	ret    

0804c73b <bin32_set>:

	return 0;
}

int bin32_set(struct conf_var *var, const char *s)
{
 804c73b:	53                   	push   %ebx
 804c73c:	83 ec 18             	sub    $0x18,%esp
 804c73f:	8b 5c 24 20          	mov    0x20(%esp),%ebx
	if (var->p == NULL) {
 804c743:	83 7b 08 00          	cmpl   $0x0,0x8(%ebx)
 804c747:	75 0f                	jne    804c758 <bin32_set+0x1d>
		var->p = malloc(sizeof(unsigned long));
 804c749:	c7 04 24 04 00 00 00 	movl   $0x4,(%esp)
 804c750:	e8 eb c6 ff ff       	call   8048e40 <malloc@plt>
 804c755:	89 43 08             	mov    %eax,0x8(%ebx)
	}
	return 0;
}
 804c758:	b8 00 00 00 00       	mov    $0x0,%eax
 804c75d:	83 c4 18             	add    $0x18,%esp
 804c760:	5b                   	pop    %ebx
 804c761:	c3                   	ret    

0804c762 <bin16_set>:

	return 0;
}

int bin16_set(struct conf_var *var, const char *s)
{
 804c762:	53                   	push   %ebx
 804c763:	83 ec 18             	sub    $0x18,%esp
 804c766:	8b 5c 24 20          	mov    0x20(%esp),%ebx
	if (var->p == NULL) {
 804c76a:	83 7b 08 00          	cmpl   $0x0,0x8(%ebx)
 804c76e:	75 0f                	jne    804c77f <bin16_set+0x1d>
		var->p = malloc(sizeof(short int));
 804c770:	c7 04 24 02 00 00 00 	movl   $0x2,(%esp)
 804c777:	e8 c4 c6 ff ff       	call   8048e40 <malloc@plt>
 804c77c:	89 43 08             	mov    %eax,0x8(%ebx)
	}

	return 0;
}
 804c77f:	b8 00 00 00 00       	mov    $0x0,%eax
 804c784:	83 c4 18             	add    $0x18,%esp
 804c787:	5b                   	pop    %ebx
 804c788:	c3                   	ret    

0804c789 <bin8_set>:

	return 0;
}

int bin8_set(struct conf_var *var, const char *s)
{
 804c789:	53                   	push   %ebx
 804c78a:	83 ec 18             	sub    $0x18,%esp
 804c78d:	8b 5c 24 20          	mov    0x20(%esp),%ebx
	if (var->p == NULL) {
 804c791:	83 7b 08 00          	cmpl   $0x0,0x8(%ebx)
 804c795:	75 0f                	jne    804c7a6 <bin8_set+0x1d>
		var->p = malloc(sizeof(unsigned char));
 804c797:	c7 04 24 01 00 00 00 	movl   $0x1,(%esp)
 804c79e:	e8 9d c6 ff ff       	call   8048e40 <malloc@plt>
 804c7a3:	89 43 08             	mov    %eax,0x8(%ebx)
	}

	return 0;
}
 804c7a6:	b8 00 00 00 00       	mov    $0x0,%eax
 804c7ab:	83 c4 18             	add    $0x18,%esp
 804c7ae:	5b                   	pop    %ebx
 804c7af:	c3                   	ret    

0804c7b0 <void_get>:
{
	return write_section(stdout, root, NULL);
}

int void_get(struct conf_var *var, char *s)
{
 804c7b0:	83 ec 2c             	sub    $0x2c,%esp
 804c7b3:	8b 54 24 34          	mov    0x34(%esp),%edx
	if (var->p == NULL) {
 804c7b7:	8b 44 24 30          	mov    0x30(%esp),%eax
 804c7bb:	8b 40 08             	mov    0x8(%eax),%eax
 804c7be:	85 c0                	test   %eax,%eax
 804c7c0:	75 0c                	jne    804c7ce <void_get+0x1e>

#ifdef __va_arg_pack
__extern_always_inline int
__NTH (sprintf (char *__restrict __s, __const char *__restrict __fmt, ...))
{
  return __builtin___sprintf_chk (__s, __USE_FORTIFY_LEVEL - 1,
 804c7c2:	c7 02 4e 55 4c 4c    	movl   $0x4c4c554e,(%edx)
 804c7c8:	c6 42 04 00          	movb   $0x0,0x4(%edx)
		sprintf(s, "NULL");
		return 0;
 804c7cc:	eb 29                	jmp    804c7f7 <void_get+0x47>
 804c7ce:	89 44 24 10          	mov    %eax,0x10(%esp)
 804c7d2:	c7 44 24 0c 24 e0 04 08 	movl   $0x804e024,0xc(%esp)
 804c7da:	c7 44 24 08 ff ff ff ff 	movl   $0xffffffff,0x8(%esp)
 804c7e2:	c7 44 24 04 01 00 00 00 	movl   $0x1,0x4(%esp)
 804c7ea:	89 14 24             	mov    %edx,(%esp)
 804c7ed:	e8 de c8 ff ff       	call   80490d0 <__sprintf_chk@plt>
	}

	sprintf(s, "%p", var->p);
	return 1;
 804c7f2:	b8 01 00 00 00       	mov    $0x1,%eax
}
 804c7f7:	83 c4 2c             	add    $0x2c,%esp
 804c7fa:	c3                   	ret    

0804c7fb <int_get>:
	sscanf(s, "%p", &(var->p));
	return 1;
}

int int_get(struct conf_var *var, char *s)
{
 804c7fb:	83 ec 2c             	sub    $0x2c,%esp
 804c7fe:	8b 54 24 34          	mov    0x34(%esp),%edx
	if (var->p == NULL) {
 804c802:	8b 44 24 30          	mov    0x30(%esp),%eax
 804c806:	8b 40 08             	mov    0x8(%eax),%eax
 804c809:	85 c0                	test   %eax,%eax
 804c80b:	75 0c                	jne    804c819 <int_get+0x1e>
 804c80d:	c7 02 4e 55 4c 4c    	movl   $0x4c4c554e,(%edx)
 804c813:	c6 42 04 00          	movb   $0x0,0x4(%edx)
		sprintf(s, "NULL");
		return 0;
 804c817:	eb 2b                	jmp    804c844 <int_get+0x49>
 804c819:	8b 00                	mov    (%eax),%eax
 804c81b:	89 44 24 10          	mov    %eax,0x10(%esp)
 804c81f:	c7 44 24 0c 27 e0 04 08 	movl   $0x804e027,0xc(%esp)
 804c827:	c7 44 24 08 ff ff ff ff 	movl   $0xffffffff,0x8(%esp)
 804c82f:	c7 44 24 04 01 00 00 00 	movl   $0x1,0x4(%esp)
 804c837:	89 14 24             	mov    %edx,(%esp)
 804c83a:	e8 91 c8 ff ff       	call   80490d0 <__sprintf_chk@plt>
	}

	sprintf(s, "%i", *(int *) (var->p));
	return 1;
 804c83f:	b8 01 00 00 00       	mov    $0x1,%eax
}
 804c844:	83 c4 2c             	add    $0x2c,%esp
 804c847:	c3                   	ret    

0804c848 <uint_get>:

	return 1;
}

int uint_get(struct conf_var *var, char *s)
{
 804c848:	83 ec 2c             	sub    $0x2c,%esp
 804c84b:	8b 54 24 34          	mov    0x34(%esp),%edx
	if (var->p == NULL) {
 804c84f:	8b 44 24 30          	mov    0x30(%esp),%eax
 804c853:	8b 40 08             	mov    0x8(%eax),%eax
 804c856:	85 c0                	test   %eax,%eax
 804c858:	75 0c                	jne    804c866 <uint_get+0x1e>
 804c85a:	c7 02 4e 55 4c 4c    	movl   $0x4c4c554e,(%edx)
 804c860:	c6 42 04 00          	movb   $0x0,0x4(%edx)
		sprintf(s, "NULL");
		return 0;
 804c864:	eb 2b                	jmp    804c891 <uint_get+0x49>
 804c866:	8b 00                	mov    (%eax),%eax
 804c868:	89 44 24 10          	mov    %eax,0x10(%esp)
 804c86c:	c7 44 24 0c 2a e0 04 08 	movl   $0x804e02a,0xc(%esp)
 804c874:	c7 44 24 08 ff ff ff ff 	movl   $0xffffffff,0x8(%esp)
 804c87c:	c7 44 24 04 01 00 00 00 	movl   $0x1,0x4(%esp)
 804c884:	89 14 24             	mov    %edx,(%esp)
 804c887:	e8 44 c8 ff ff       	call   80490d0 <__sprintf_chk@plt>
	}

	sprintf(s, "%u", *(unsigned int *) (var->p));
	return 1;
 804c88c:	b8 01 00 00 00       	mov    $0x1,%eax
}
 804c891:	83 c4 2c             	add    $0x2c,%esp
 804c894:	c3                   	ret    

0804c895 <float_get>:

	return 1;
}

int float_get(struct conf_var *var, char *s)
{
 804c895:	83 ec 2c             	sub    $0x2c,%esp
 804c898:	8b 54 24 34          	mov    0x34(%esp),%edx
	if (var->p == NULL) {
 804c89c:	8b 44 24 30          	mov    0x30(%esp),%eax
 804c8a0:	8b 40 08             	mov    0x8(%eax),%eax
 804c8a3:	85 c0                	test   %eax,%eax
 804c8a5:	75 0c                	jne    804c8b3 <float_get+0x1e>
 804c8a7:	c7 02 4e 55 4c 4c    	movl   $0x4c4c554e,(%edx)
 804c8ad:	c6 42 04 00          	movb   $0x0,0x4(%edx)
		sprintf(s, "NULL");
		return 0;
 804c8b1:	eb 2b                	jmp    804c8de <float_get+0x49>
 804c8b3:	dd 00                	fldl   (%eax)
 804c8b5:	dd 5c 24 10          	fstpl  0x10(%esp)
 804c8b9:	c7 44 24 0c 2d e0 04 08 	movl   $0x804e02d,0xc(%esp)
 804c8c1:	c7 44 24 08 ff ff ff ff 	movl   $0xffffffff,0x8(%esp)
 804c8c9:	c7 44 24 04 01 00 00 00 	movl   $0x1,0x4(%esp)
 804c8d1:	89 14 24             	mov    %edx,(%esp)
 804c8d4:	e8 f7 c7 ff ff       	call   80490d0 <__sprintf_chk@plt>
	}

	sprintf(s, "%f", *(double *) (var->p));
	return 1;
 804c8d9:	b8 01 00 00 00       	mov    $0x1,%eax
}
 804c8de:	83 c4 2c             	add    $0x2c,%esp
 804c8e1:	c3                   	ret    

0804c8e2 <string_get>:
	sscanf(s, "%lf", (double *) (var->p));
	return 1;
}

int string_get(struct conf_var *var, char *s)
{
 804c8e2:	83 ec 2c             	sub    $0x2c,%esp
 804c8e5:	8b 54 24 34          	mov    0x34(%esp),%edx
	char * cp;			/* source */

	if (var->p == NULL) {
 804c8e9:	8b 44 24 30          	mov    0x30(%esp),%eax
 804c8ed:	8b 40 08             	mov    0x8(%eax),%eax
 804c8f0:	85 c0                	test   %eax,%eax
 804c8f2:	75 0c                	jne    804c900 <string_get+0x1e>
 804c8f4:	c7 02 4e 55 4c 4c    	movl   $0x4c4c554e,(%edx)
 804c8fa:	c6 42 04 00          	movb   $0x0,0x4(%edx)
		sprintf(s, "NULL");
		return 0;
 804c8fe:	eb 29                	jmp    804c929 <string_get+0x47>
 804c900:	89 44 24 10          	mov    %eax,0x10(%esp)
 804c904:	c7 44 24 0c 79 de 04 08 	movl   $0x804de79,0xc(%esp)
 804c90c:	c7 44 24 08 ff ff ff ff 	movl   $0xffffffff,0x8(%esp)
 804c914:	c7 44 24 04 01 00 00 00 	movl   $0x1,0x4(%esp)
 804c91c:	89 14 24             	mov    %edx,(%esp)
 804c91f:	e8 ac c7 ff ff       	call   80490d0 <__sprintf_chk@plt>
	}

	cp = (char *)(var->p);
	sprintf(s, "\"%s\"", cp);

	return 1;
 804c924:	b8 01 00 00 00       	mov    $0x1,%eax
}
 804c929:	83 c4 2c             	add    $0x2c,%esp
 804c92c:	c3                   	ret    

0804c92d <bool_get>:

	return 1;
}

int bool_get(struct conf_var *var, char *s)
{
 804c92d:	8b 44 24 08          	mov    0x8(%esp),%eax
	if ((*(int *) (var->p)) == 0)
 804c931:	8b 54 24 04          	mov    0x4(%esp),%edx
 804c935:	8b 52 08             	mov    0x8(%edx),%edx
 804c938:	83 3a 00             	cmpl   $0x0,(%edx)
 804c93b:	75 0e                	jne    804c94b <bool_get+0x1e>
 804c93d:	c7 00 46 61 6c 73    	movl   $0x736c6146,(%eax)
 804c943:	66 c7 40 04 65 00    	movw   $0x65,0x4(%eax)
 804c949:	eb 0a                	jmp    804c955 <bool_get+0x28>
 804c94b:	c7 00 54 72 75 65    	movl   $0x65757254,(%eax)
 804c951:	c6 40 04 00          	movb   $0x0,0x4(%eax)
		sprintf(s, "False");
	else
		sprintf(s, "True");
	return 1;
}
 804c955:	b8 01 00 00 00       	mov    $0x1,%eax
 804c95a:	c3                   	ret    

0804c95b <char_get>:

	return 0;
}

int char_get(struct conf_var *var, char *s)
{
 804c95b:	83 ec 2c             	sub    $0x2c,%esp
 804c95e:	8b 54 24 34          	mov    0x34(%esp),%edx
	if (var->p == NULL) {
 804c962:	8b 44 24 30          	mov    0x30(%esp),%eax
 804c966:	8b 40 08             	mov    0x8(%eax),%eax
 804c969:	85 c0                	test   %eax,%eax
 804c96b:	75 0c                	jne    804c979 <char_get+0x1e>
 804c96d:	c7 02 4e 55 4c 4c    	movl   $0x4c4c554e,(%edx)
 804c973:	c6 42 04 00          	movb   $0x0,0x4(%edx)
		sprintf(s, "NULL");
		return 0;
 804c977:	eb 2c                	jmp    804c9a5 <char_get+0x4a>
	}

	//printf("*** %s: var '%s' = '%c'\n", __FUNCTION__, var->name, *(char *)(var->p));

	sprintf(s, "%c", *(char *) (var->p));
 804c979:	0f be 00             	movsbl (%eax),%eax
 804c97c:	89 44 24 10          	mov    %eax,0x10(%esp)
 804c980:	c7 44 24 0c 30 e0 04 08 	movl   $0x804e030,0xc(%esp)
 804c988:	c7 44 24 08 ff ff ff ff 	movl   $0xffffffff,0x8(%esp)
 804c990:	c7 44 24 04 01 00 00 00 	movl   $0x1,0x4(%esp)
 804c998:	89 14 24             	mov    %edx,(%esp)
 804c99b:	e8 30 c7 ff ff       	call   80490d0 <__sprintf_chk@plt>
	return 1;
 804c9a0:	b8 01 00 00 00       	mov    $0x1,%eax
}
 804c9a5:	83 c4 2c             	add    $0x2c,%esp
 804c9a8:	c3                   	ret    

0804c9a9 <hex8_get>:
	sscanf(cp, "%c", (char *) (var->p));
	return 1;
}

int hex8_get(struct conf_var *var, char *s)
{
 804c9a9:	83 ec 2c             	sub    $0x2c,%esp
 804c9ac:	8b 54 24 34          	mov    0x34(%esp),%edx
	if (var->p == NULL) {
 804c9b0:	8b 44 24 30          	mov    0x30(%esp),%eax
 804c9b4:	8b 40 08             	mov    0x8(%eax),%eax
 804c9b7:	85 c0                	test   %eax,%eax
 804c9b9:	75 0c                	jne    804c9c7 <hex8_get+0x1e>
 804c9bb:	c7 02 4e 55 4c 4c    	movl   $0x4c4c554e,(%edx)
 804c9c1:	c6 42 04 00          	movb   $0x0,0x4(%edx)
		sprintf(s, "NULL");
		return 0;
 804c9c5:	eb 2c                	jmp    804c9f3 <hex8_get+0x4a>
	}

	sprintf(s, "0x%02X", *(unsigned char *) (var->p));
 804c9c7:	0f b6 00             	movzbl (%eax),%eax
 804c9ca:	89 44 24 10          	mov    %eax,0x10(%esp)
 804c9ce:	c7 44 24 0c 33 e0 04 08 	movl   $0x804e033,0xc(%esp)
 804c9d6:	c7 44 24 08 ff ff ff ff 	movl   $0xffffffff,0x8(%esp)
 804c9de:	c7 44 24 04 01 00 00 00 	movl   $0x1,0x4(%esp)
 804c9e6:	89 14 24             	mov    %edx,(%esp)
 804c9e9:	e8 e2 c6 ff ff       	call   80490d0 <__sprintf_chk@plt>
	return 1;
 804c9ee:	b8 01 00 00 00       	mov    $0x1,%eax
}
 804c9f3:	83 c4 2c             	add    $0x2c,%esp
 804c9f6:	c3                   	ret    

0804c9f7 <hex16_get>:
	sscanf(s, "%X", (unsigned int *) (var->p));
	return 1;
}

int hex16_get(struct conf_var *var, char *s)
{
 804c9f7:	83 ec 2c             	sub    $0x2c,%esp
 804c9fa:	8b 54 24 34          	mov    0x34(%esp),%edx
	if (var->p == NULL) {
 804c9fe:	8b 44 24 30          	mov    0x30(%esp),%eax
 804ca02:	8b 40 08             	mov    0x8(%eax),%eax
 804ca05:	85 c0                	test   %eax,%eax
 804ca07:	75 0c                	jne    804ca15 <hex16_get+0x1e>
 804ca09:	c7 02 4e 55 4c 4c    	movl   $0x4c4c554e,(%edx)
 804ca0f:	c6 42 04 00          	movb   $0x0,0x4(%edx)
		sprintf(s, "NULL");
		return 0;
 804ca13:	eb 2b                	jmp    804ca40 <hex16_get+0x49>
 804ca15:	8b 00                	mov    (%eax),%eax
 804ca17:	89 44 24 10          	mov    %eax,0x10(%esp)
 804ca1b:	c7 44 24 0c 3a e0 04 08 	movl   $0x804e03a,0xc(%esp)
 804ca23:	c7 44 24 08 ff ff ff ff 	movl   $0xffffffff,0x8(%esp)
 804ca2b:	c7 44 24 04 01 00 00 00 	movl   $0x1,0x4(%esp)
 804ca33:	89 14 24             	mov    %edx,(%esp)
 804ca36:	e8 95 c6 ff ff       	call   80490d0 <__sprintf_chk@plt>
	}

	sprintf(s, "0x%04X", *(unsigned int *) (var->p));
	return 1;
 804ca3b:	b8 01 00 00 00       	mov    $0x1,%eax
}
 804ca40:	83 c4 2c             	add    $0x2c,%esp
 804ca43:	c3                   	ret    

0804ca44 <hex32_get>:
	sscanf(s, "%X", (unsigned int *) (var->p));
	return 1;
}

int hex32_get(struct conf_var *var, char *s)
{
 804ca44:	83 ec 2c             	sub    $0x2c,%esp
 804ca47:	8b 54 24 34          	mov    0x34(%esp),%edx
	if (var->p == NULL) {
 804ca4b:	8b 44 24 30          	mov    0x30(%esp),%eax
 804ca4f:	8b 40 08             	mov    0x8(%eax),%eax
 804ca52:	85 c0                	test   %eax,%eax
 804ca54:	75 0c                	jne    804ca62 <hex32_get+0x1e>
 804ca56:	c7 02 4e 55 4c 4c    	movl   $0x4c4c554e,(%edx)
 804ca5c:	c6 42 04 00          	movb   $0x0,0x4(%edx)
		sprintf(s, "NULL");
		return 0;
 804ca60:	eb 2b                	jmp    804ca8d <hex32_get+0x49>
 804ca62:	8b 00                	mov    (%eax),%eax
 804ca64:	89 44 24 10          	mov    %eax,0x10(%esp)
 804ca68:	c7 44 24 0c 41 e0 04 08 	movl   $0x804e041,0xc(%esp)
 804ca70:	c7 44 24 08 ff ff ff ff 	movl   $0xffffffff,0x8(%esp)
 804ca78:	c7 44 24 04 01 00 00 00 	movl   $0x1,0x4(%esp)
 804ca80:	89 14 24             	mov    %edx,(%esp)
 804ca83:	e8 48 c6 ff ff       	call   80490d0 <__sprintf_chk@plt>
	}

	sprintf(s, "0x%08X", *(unsigned int *) (var->p));
	return 1;
 804ca88:	b8 01 00 00 00       	mov    $0x1,%eax
}
 804ca8d:	83 c4 2c             	add    $0x2c,%esp
 804ca90:	c3                   	ret    

0804ca91 <hex64_get>:
	sscanf(s, "%X", (unsigned int *) (var->p));
	return 1;
}

int hex64_get(struct conf_var *var, char *s)
{
 804ca91:	53                   	push   %ebx
 804ca92:	83 ec 28             	sub    $0x28,%esp
 804ca95:	8b 54 24 34          	mov    0x34(%esp),%edx
	if (var->p == NULL) {
 804ca99:	8b 44 24 30          	mov    0x30(%esp),%eax
 804ca9d:	8b 40 08             	mov    0x8(%eax),%eax
 804caa0:	85 c0                	test   %eax,%eax
 804caa2:	75 0c                	jne    804cab0 <hex64_get+0x1f>
 804caa4:	c7 02 4e 55 4c 4c    	movl   $0x4c4c554e,(%edx)
 804caaa:	c6 42 04 00          	movb   $0x0,0x4(%edx)
		sprintf(s, "NULL");
		return 0;
 804caae:	eb 32                	jmp    804cae2 <hex64_get+0x51>
 804cab0:	8b 08                	mov    (%eax),%ecx
 804cab2:	8b 58 04             	mov    0x4(%eax),%ebx
 804cab5:	89 4c 24 10          	mov    %ecx,0x10(%esp)
 804cab9:	89 5c 24 14          	mov    %ebx,0x14(%esp)
 804cabd:	c7 44 24 0c 48 e0 04 08 	movl   $0x804e048,0xc(%esp)
 804cac5:	c7 44 24 08 ff ff ff ff 	movl   $0xffffffff,0x8(%esp)
 804cacd:	c7 44 24 04 01 00 00 00 	movl   $0x1,0x4(%esp)
 804cad5:	89 14 24             	mov    %edx,(%esp)
 804cad8:	e8 f3 c5 ff ff       	call   80490d0 <__sprintf_chk@plt>
	}

	sprintf(s, "0x%016llX", *(unsigned long long int *) (var->p));

	return 1;
 804cadd:	b8 01 00 00 00       	mov    $0x1,%eax
}
 804cae2:	83 c4 28             	add    $0x28,%esp
 804cae5:	5b                   	pop    %ebx
 804cae6:	c3                   	ret    

0804cae7 <bin8_get>:

	return 1;
}

int bin8_get(struct conf_var *var, char *s)
{
 804cae7:	8b 54 24 08          	mov    0x8(%esp),%edx
	if (var->p == NULL) {
 804caeb:	8b 44 24 04          	mov    0x4(%esp),%eax
 804caef:	83 78 08 00          	cmpl   $0x0,0x8(%eax)
 804caf3:	75 0a                	jne    804caff <bin8_get+0x18>
 804caf5:	c7 02 4e 55 4c 4c    	movl   $0x4c4c554e,(%edx)
 804cafb:	c6 42 04 00          	movb   $0x0,0x4(%edx)
		return 0;
	}
	s = "";

	return 0;
}
 804caff:	b8 00 00 00 00       	mov    $0x0,%eax
 804cb04:	c3                   	ret    

0804cb05 <bin16_get>:

	return 0;
}

int bin16_get(struct conf_var *var, char *s)
{
 804cb05:	8b 54 24 08          	mov    0x8(%esp),%edx
	if (var->p == NULL) {
 804cb09:	8b 44 24 04          	mov    0x4(%esp),%eax
 804cb0d:	83 78 08 00          	cmpl   $0x0,0x8(%eax)
 804cb11:	75 0a                	jne    804cb1d <bin16_get+0x18>
 804cb13:	c7 02 4e 55 4c 4c    	movl   $0x4c4c554e,(%edx)
 804cb19:	c6 42 04 00          	movb   $0x0,0x4(%edx)
		return 0;
	}
	s = "";

	return 0;
}
 804cb1d:	b8 00 00 00 00       	mov    $0x0,%eax
 804cb22:	c3                   	ret    

0804cb23 <bin32_get>:

	return 0;
}

int bin32_get(struct conf_var *var, char *s)
{
 804cb23:	8b 54 24 08          	mov    0x8(%esp),%edx
	if (var->p == NULL) {
 804cb27:	8b 44 24 04          	mov    0x4(%esp),%eax
 804cb2b:	83 78 08 00          	cmpl   $0x0,0x8(%eax)
 804cb2f:	75 0a                	jne    804cb3b <bin32_get+0x18>
 804cb31:	c7 02 4e 55 4c 4c    	movl   $0x4c4c554e,(%edx)
 804cb37:	c6 42 04 00          	movb   $0x0,0x4(%edx)
		return 0;
	}
	s = "";

	return 0;
}
 804cb3b:	b8 00 00 00 00       	mov    $0x0,%eax
 804cb40:	c3                   	ret    

0804cb41 <oct8_get>:

	return 0;
}

int oct8_get(struct conf_var *var, char *s)
{
 804cb41:	8b 54 24 08          	mov    0x8(%esp),%edx
	if (var->p == NULL) {
 804cb45:	8b 44 24 04          	mov    0x4(%esp),%eax
 804cb49:	83 78 08 00          	cmpl   $0x0,0x8(%eax)
 804cb4d:	75 0a                	jne    804cb59 <oct8_get+0x18>
 804cb4f:	c7 02 4e 55 4c 4c    	movl   $0x4c4c554e,(%edx)
 804cb55:	c6 42 04 00          	movb   $0x0,0x4(%edx)
		return 0;
	}
	s = "";

	return 0;
}
 804cb59:	b8 00 00 00 00       	mov    $0x0,%eax
 804cb5e:	c3                   	ret    

0804cb5f <oct16_get>:

	return 0;
}

int oct16_get(struct conf_var *var, char *s)
{
 804cb5f:	8b 54 24 08          	mov    0x8(%esp),%edx
	if (var->p == NULL) {
 804cb63:	8b 44 24 04          	mov    0x4(%esp),%eax
 804cb67:	83 78 08 00          	cmpl   $0x0,0x8(%eax)
 804cb6b:	75 0a                	jne    804cb77 <oct16_get+0x18>
 804cb6d:	c7 02 4e 55 4c 4c    	movl   $0x4c4c554e,(%edx)
 804cb73:	c6 42 04 00          	movb   $0x0,0x4(%edx)
		return 0;
	}
	s = "";

	return 0;
}
 804cb77:	b8 00 00 00 00       	mov    $0x0,%eax
 804cb7c:	c3                   	ret    

0804cb7d <oct64_get>:

	return 0;
}

int oct64_get(struct conf_var *var, char *s)
{
 804cb7d:	8b 54 24 08          	mov    0x8(%esp),%edx
	if (var->p == NULL) {
 804cb81:	8b 44 24 04          	mov    0x4(%esp),%eax
 804cb85:	83 78 08 00          	cmpl   $0x0,0x8(%eax)
 804cb89:	75 0a                	jne    804cb95 <oct64_get+0x18>
 804cb8b:	c7 02 4e 55 4c 4c    	movl   $0x4c4c554e,(%edx)
 804cb91:	c6 42 04 00          	movb   $0x0,0x4(%edx)
		return 0;
	}
	s = "";

	return 0;
}
 804cb95:	b8 00 00 00 00       	mov    $0x0,%eax
 804cb9a:	c3                   	ret    

0804cb9b <rgb_get>:

	return 0;
}

int rgb_get(struct conf_var *var, char *s)
{
 804cb9b:	8b 54 24 08          	mov    0x8(%esp),%edx
	if (var->p == NULL) {
 804cb9f:	8b 44 24 04          	mov    0x4(%esp),%eax
 804cba3:	83 78 08 00          	cmpl   $0x0,0x8(%eax)
 804cba7:	75 0a                	jne    804cbb3 <rgb_get+0x18>
 804cba9:	c7 02 4e 55 4c 4c    	movl   $0x4c4c554e,(%edx)
 804cbaf:	c6 42 04 00          	movb   $0x0,0x4(%edx)
		return 0;
	}
	s = "";

	return 0;
}
 804cbb3:	b8 00 00 00 00       	mov    $0x0,%eax
 804cbb8:	c3                   	ret    

0804cbb9 <rgbi_get>:

	return 0;
}

int rgbi_get(struct conf_var *var, char *s)
{
 804cbb9:	8b 54 24 08          	mov    0x8(%esp),%edx
	if (var->p == NULL) {
 804cbbd:	8b 44 24 04          	mov    0x4(%esp),%eax
 804cbc1:	83 78 08 00          	cmpl   $0x0,0x8(%eax)
 804cbc5:	75 0a                	jne    804cbd1 <rgbi_get+0x18>
 804cbc7:	c7 02 4e 55 4c 4c    	movl   $0x4c4c554e,(%edx)
 804cbcd:	c6 42 04 00          	movb   $0x0,0x4(%edx)
		return 0;
	}
	s = "";

	return 0;
}
 804cbd1:	b8 00 00 00 00       	mov    $0x0,%eax
 804cbd6:	c3                   	ret    

0804cbd7 <cymk_get>:

	return 0;
}

int cymk_get(struct conf_var *var, char *s)
{
 804cbd7:	8b 54 24 08          	mov    0x8(%esp),%edx
	if (var->p == NULL) {
 804cbdb:	8b 44 24 04          	mov    0x4(%esp),%eax
 804cbdf:	83 78 08 00          	cmpl   $0x0,0x8(%eax)
 804cbe3:	75 0a                	jne    804cbef <cymk_get+0x18>
 804cbe5:	c7 02 4e 55 4c 4c    	movl   $0x4c4c554e,(%edx)
 804cbeb:	c6 42 04 00          	movb   $0x0,0x4(%edx)
		return 0;
	}
	s = "";

	return 0;
}
 804cbef:	b8 00 00 00 00       	mov    $0x0,%eax
 804cbf4:	c3                   	ret    

0804cbf5 <ratio_get>:

	return 0;
}

int ratio_get(struct conf_var *var, char *s)
{
 804cbf5:	8b 54 24 08          	mov    0x8(%esp),%edx
	if (var->p == NULL) {
 804cbf9:	8b 44 24 04          	mov    0x4(%esp),%eax
 804cbfd:	83 78 08 00          	cmpl   $0x0,0x8(%eax)
 804cc01:	75 0a                	jne    804cc0d <ratio_get+0x18>
 804cc03:	c7 02 4e 55 4c 4c    	movl   $0x4c4c554e,(%edx)
 804cc09:	c6 42 04 00          	movb   $0x0,0x4(%edx)
		return 0;
	}
	s = "";

	return 0;
}
 804cc0d:	b8 00 00 00 00       	mov    $0x0,%eax
 804cc12:	c3                   	ret    

0804cc13 <hex64_set>:

	return 1;
}

int hex64_set(struct conf_var *var, const char *s)
{
 804cc13:	53                   	push   %ebx
 804cc14:	83 ec 18             	sub    $0x18,%esp
 804cc17:	8b 5c 24 20          	mov    0x20(%esp),%ebx
	if (var->p == NULL) {
 804cc1b:	83 7b 08 00          	cmpl   $0x0,0x8(%ebx)
 804cc1f:	75 0f                	jne    804cc30 <hex64_set+0x1d>
		var->p = malloc(sizeof(unsigned long long int));
 804cc21:	c7 04 24 08 00 00 00 	movl   $0x8,(%esp)
 804cc28:	e8 13 c2 ff ff       	call   8048e40 <malloc@plt>
 804cc2d:	89 43 08             	mov    %eax,0x8(%ebx)
	}

	sscanf(s, "%llX", (unsigned long long int *) (var->p));
 804cc30:	8b 43 08             	mov    0x8(%ebx),%eax
 804cc33:	89 44 24 08          	mov    %eax,0x8(%esp)
 804cc37:	c7 44 24 04 52 e0 04 08 	movl   $0x804e052,0x4(%esp)
 804cc3f:	8b 44 24 24          	mov    0x24(%esp),%eax
 804cc43:	89 04 24             	mov    %eax,(%esp)
 804cc46:	e8 e5 c2 ff ff       	call   8048f30 <__isoc99_sscanf@plt>

	return 1;
}
 804cc4b:	b8 01 00 00 00       	mov    $0x1,%eax
 804cc50:	83 c4 18             	add    $0x18,%esp
 804cc53:	5b                   	pop    %ebx
 804cc54:	c3                   	ret    

0804cc55 <hex32_set>:
	sprintf(s, "0x%08X", *(unsigned int *) (var->p));
	return 1;
}

int hex32_set(struct conf_var *var, const char *s)
{
 804cc55:	53                   	push   %ebx
 804cc56:	83 ec 18             	sub    $0x18,%esp
 804cc59:	8b 5c 24 20          	mov    0x20(%esp),%ebx
	if (var->p == NULL) {
 804cc5d:	83 7b 08 00          	cmpl   $0x0,0x8(%ebx)
 804cc61:	75 0f                	jne    804cc72 <hex32_set+0x1d>
		var->p = malloc(sizeof(unsigned int));
 804cc63:	c7 04 24 04 00 00 00 	movl   $0x4,(%esp)
 804cc6a:	e8 d1 c1 ff ff       	call   8048e40 <malloc@plt>
 804cc6f:	89 43 08             	mov    %eax,0x8(%ebx)
	}

	sscanf(s, "%X", (unsigned int *) (var->p));
 804cc72:	8b 43 08             	mov    0x8(%ebx),%eax
 804cc75:	89 44 24 08          	mov    %eax,0x8(%esp)
 804cc79:	c7 44 24 04 57 e0 04 08 	movl   $0x804e057,0x4(%esp)
 804cc81:	8b 44 24 24          	mov    0x24(%esp),%eax
 804cc85:	89 04 24             	mov    %eax,(%esp)
 804cc88:	e8 a3 c2 ff ff       	call   8048f30 <__isoc99_sscanf@plt>
	return 1;
}
 804cc8d:	b8 01 00 00 00       	mov    $0x1,%eax
 804cc92:	83 c4 18             	add    $0x18,%esp
 804cc95:	5b                   	pop    %ebx
 804cc96:	c3                   	ret    

0804cc97 <hex16_set>:
	sprintf(s, "0x%04X", *(unsigned int *) (var->p));
	return 1;
}

int hex16_set(struct conf_var *var, const char *s)
{
 804cc97:	53                   	push   %ebx
 804cc98:	83 ec 18             	sub    $0x18,%esp
 804cc9b:	8b 5c 24 20          	mov    0x20(%esp),%ebx
	if (var->p == NULL) {
 804cc9f:	83 7b 08 00          	cmpl   $0x0,0x8(%ebx)
 804cca3:	75 0f                	jne    804ccb4 <hex16_set+0x1d>
		var->p = malloc(sizeof(unsigned int));
 804cca5:	c7 04 24 04 00 00 00 	movl   $0x4,(%esp)
 804ccac:	e8 8f c1 ff ff       	call   8048e40 <malloc@plt>
 804ccb1:	89 43 08             	mov    %eax,0x8(%ebx)
	}
	sscanf(s, "%X", (unsigned int *) (var->p));
 804ccb4:	8b 43 08             	mov    0x8(%ebx),%eax
 804ccb7:	89 44 24 08          	mov    %eax,0x8(%esp)
 804ccbb:	c7 44 24 04 57 e0 04 08 	movl   $0x804e057,0x4(%esp)
 804ccc3:	8b 44 24 24          	mov    0x24(%esp),%eax
 804ccc7:	89 04 24             	mov    %eax,(%esp)
 804ccca:	e8 61 c2 ff ff       	call   8048f30 <__isoc99_sscanf@plt>
	return 1;
}
 804cccf:	b8 01 00 00 00       	mov    $0x1,%eax
 804ccd4:	83 c4 18             	add    $0x18,%esp
 804ccd7:	5b                   	pop    %ebx
 804ccd8:	c3                   	ret    

0804ccd9 <hex8_set>:
	sprintf(s, "0x%02X", *(unsigned char *) (var->p));
	return 1;
}

int hex8_set(struct conf_var *var, const char *s)
{
 804ccd9:	53                   	push   %ebx
 804ccda:	83 ec 18             	sub    $0x18,%esp
 804ccdd:	8b 5c 24 20          	mov    0x20(%esp),%ebx
	if (var->p == NULL) {
 804cce1:	83 7b 08 00          	cmpl   $0x0,0x8(%ebx)
 804cce5:	75 0f                	jne    804ccf6 <hex8_set+0x1d>
		var->p = malloc(sizeof(unsigned int));
 804cce7:	c7 04 24 04 00 00 00 	movl   $0x4,(%esp)
 804ccee:	e8 4d c1 ff ff       	call   8048e40 <malloc@plt>
 804ccf3:	89 43 08             	mov    %eax,0x8(%ebx)
	}
	sscanf(s, "%X", (unsigned int *) (var->p));
 804ccf6:	8b 43 08             	mov    0x8(%ebx),%eax
 804ccf9:	89 44 24 08          	mov    %eax,0x8(%esp)
 804ccfd:	c7 44 24 04 57 e0 04 08 	movl   $0x804e057,0x4(%esp)
 804cd05:	8b 44 24 24          	mov    0x24(%esp),%eax
 804cd09:	89 04 24             	mov    %eax,(%esp)
 804cd0c:	e8 1f c2 ff ff       	call   8048f30 <__isoc99_sscanf@plt>
	return 1;
}
 804cd11:	b8 01 00 00 00       	mov    $0x1,%eax
 804cd16:	83 c4 18             	add    $0x18,%esp
 804cd19:	5b                   	pop    %ebx
 804cd1a:	c3                   	ret    

0804cd1b <float_set>:
	sprintf(s, "%f", *(double *) (var->p));
	return 1;
}

int float_set(struct conf_var *var, const char *s)
{
 804cd1b:	53                   	push   %ebx
 804cd1c:	83 ec 18             	sub    $0x18,%esp
 804cd1f:	8b 5c 24 20          	mov    0x20(%esp),%ebx
	if (var->p == NULL) {
 804cd23:	83 7b 08 00          	cmpl   $0x0,0x8(%ebx)
 804cd27:	75 0f                	jne    804cd38 <float_set+0x1d>
		var->p = malloc(sizeof(double));
 804cd29:	c7 04 24 08 00 00 00 	movl   $0x8,(%esp)
 804cd30:	e8 0b c1 ff ff       	call   8048e40 <malloc@plt>
 804cd35:	89 43 08             	mov    %eax,0x8(%ebx)
	}
	sscanf(s, "%lf", (double *) (var->p));
 804cd38:	8b 43 08             	mov    0x8(%ebx),%eax
 804cd3b:	89 44 24 08          	mov    %eax,0x8(%esp)
 804cd3f:	c7 44 24 04 5a e0 04 08 	movl   $0x804e05a,0x4(%esp)
 804cd47:	8b 44 24 24          	mov    0x24(%esp),%eax
 804cd4b:	89 04 24             	mov    %eax,(%esp)
 804cd4e:	e8 dd c1 ff ff       	call   8048f30 <__isoc99_sscanf@plt>
	return 1;
}
 804cd53:	b8 01 00 00 00       	mov    $0x1,%eax
 804cd58:	83 c4 18             	add    $0x18,%esp
 804cd5b:	5b                   	pop    %ebx
 804cd5c:	c3                   	ret    

0804cd5d <void_set>:
	sprintf(s, "%p", var->p);
	return 1;
}

int void_set(struct conf_var *var, const char *s)
{
 804cd5d:	83 ec 1c             	sub    $0x1c,%esp
	sscanf(s, "%p", &(var->p));
 804cd60:	8b 44 24 20          	mov    0x20(%esp),%eax
 804cd64:	83 c0 08             	add    $0x8,%eax
 804cd67:	89 44 24 08          	mov    %eax,0x8(%esp)
 804cd6b:	c7 44 24 04 24 e0 04 08 	movl   $0x804e024,0x4(%esp)
 804cd73:	8b 44 24 24          	mov    0x24(%esp),%eax
 804cd77:	89 04 24             	mov    %eax,(%esp)
 804cd7a:	e8 b1 c1 ff ff       	call   8048f30 <__isoc99_sscanf@plt>
	return 1;
}
 804cd7f:	b8 01 00 00 00       	mov    $0x1,%eax
 804cd84:	83 c4 1c             	add    $0x1c,%esp
 804cd87:	c3                   	ret    

0804cd88 <char_set>:
	sprintf(s, "%c", *(char *) (var->p));
	return 1;
}

int char_set(struct conf_var *var, const char *s)
{
 804cd88:	56                   	push   %esi
 804cd89:	53                   	push   %ebx
 804cd8a:	83 ec 14             	sub    $0x14,%esp
 804cd8d:	8b 5c 24 20          	mov    0x20(%esp),%ebx
	char *cp;			/* source */

	if (var->p == NULL) {
 804cd91:	83 7b 08 00          	cmpl   $0x0,0x8(%ebx)
 804cd95:	75 0f                	jne    804cda6 <char_set+0x1e>
		var->p = malloc(sizeof(char));
 804cd97:	c7 04 24 01 00 00 00 	movl   $0x1,(%esp)
 804cd9e:	e8 9d c0 ff ff       	call   8048e40 <malloc@plt>
 804cda3:	89 43 08             	mov    %eax,0x8(%ebx)
	}

	cp = (char *) s;
	LTRIM(cp);
 804cda6:	e8 15 c3 ff ff       	call   80490c0 <__ctype_b_loc@plt>
 804cdab:	8b 30                	mov    (%eax),%esi
 804cdad:	8b 44 24 24          	mov    0x24(%esp),%eax
 804cdb1:	eb 03                	jmp    804cdb6 <char_set+0x2e>
 804cdb3:	83 c0 01             	add    $0x1,%eax
 804cdb6:	0f b6 10             	movzbl (%eax),%edx
 804cdb9:	0f be ca             	movsbl %dl,%ecx
 804cdbc:	f6 44 4e 01 20       	testb  $0x20,0x1(%esi,%ecx,2)
 804cdc1:	74 04                	je     804cdc7 <char_set+0x3f>
 804cdc3:	84 d2                	test   %dl,%dl
 804cdc5:	75 ec                	jne    804cdb3 <char_set+0x2b>

	//printf("*** %s: var '%s' source='%s'\n", __FUNCTION__, var->name, cp);

	sscanf(cp, "%c", (char *) (var->p));
 804cdc7:	8b 53 08             	mov    0x8(%ebx),%edx
 804cdca:	89 54 24 08          	mov    %edx,0x8(%esp)
 804cdce:	c7 44 24 04 30 e0 04 08 	movl   $0x804e030,0x4(%esp)
 804cdd6:	89 04 24             	mov    %eax,(%esp)
 804cdd9:	e8 52 c1 ff ff       	call   8048f30 <__isoc99_sscanf@plt>
	return 1;
}
 804cdde:	b8 01 00 00 00       	mov    $0x1,%eax
 804cde3:	83 c4 14             	add    $0x14,%esp
 804cde6:	5b                   	pop    %ebx
 804cde7:	5e                   	pop    %esi
 804cde8:	c3                   	ret    

0804cde9 <bool_set>:
		sprintf(s, "True");
	return 1;
}

int bool_set(struct conf_var *var, const char *s)
{
 804cde9:	56                   	push   %esi
 804cdea:	53                   	push   %ebx
 804cdeb:	83 ec 14             	sub    $0x14,%esp
 804cdee:	8b 74 24 20          	mov    0x20(%esp),%esi
	char *cp;			/* source */

	if (var->p == NULL) {
 804cdf2:	83 7e 08 00          	cmpl   $0x0,0x8(%esi)
 804cdf6:	75 0f                	jne    804ce07 <bool_set+0x1e>
		var->p = malloc(sizeof(int));
 804cdf8:	c7 04 24 04 00 00 00 	movl   $0x4,(%esp)
 804cdff:	e8 3c c0 ff ff       	call   8048e40 <malloc@plt>
 804ce04:	89 46 08             	mov    %eax,0x8(%esi)
	}

	cp = (char *) s;
	LTRIM(cp);
 804ce07:	e8 b4 c2 ff ff       	call   80490c0 <__ctype_b_loc@plt>
 804ce0c:	8b 08                	mov    (%eax),%ecx
 804ce0e:	8b 5c 24 24          	mov    0x24(%esp),%ebx
 804ce12:	eb 03                	jmp    804ce17 <bool_set+0x2e>
 804ce14:	83 c3 01             	add    $0x1,%ebx
 804ce17:	0f b6 03             	movzbl (%ebx),%eax
 804ce1a:	0f be d0             	movsbl %al,%edx
 804ce1d:	f6 44 51 01 20       	testb  $0x20,0x1(%ecx,%edx,2)
 804ce22:	74 04                	je     804ce28 <bool_set+0x3f>
 804ce24:	84 c0                	test   %al,%al
 804ce26:	75 ec                	jne    804ce14 <bool_set+0x2b>

	if (!strncasecmp(cp, "TRUE", 4) ||
 804ce28:	c7 44 24 08 04 00 00 00 	movl   $0x4,0x8(%esp)
 804ce30:	c7 44 24 04 5e e0 04 08 	movl   $0x804e05e,0x4(%esp)
 804ce38:	89 1c 24             	mov    %ebx,(%esp)
 804ce3b:	e8 40 c1 ff ff       	call   8048f80 <strncasecmp@plt>
 804ce40:	85 c0                	test   %eax,%eax
 804ce42:	74 54                	je     804ce98 <bool_set+0xaf>
		!strncasecmp(cp, "YES", 3) ||
 804ce44:	c7 44 24 08 03 00 00 00 	movl   $0x3,0x8(%esp)
 804ce4c:	c7 44 24 04 63 e0 04 08 	movl   $0x804e063,0x4(%esp)
 804ce54:	89 1c 24             	mov    %ebx,(%esp)
 804ce57:	e8 24 c1 ff ff       	call   8048f80 <strncasecmp@plt>
	}

	cp = (char *) s;
	LTRIM(cp);

	if (!strncasecmp(cp, "TRUE", 4) ||
 804ce5c:	85 c0                	test   %eax,%eax
 804ce5e:	74 38                	je     804ce98 <bool_set+0xaf>
		!strncasecmp(cp, "YES", 3) ||
		!strncasecmp(cp, "ON", 2) || !strncasecmp(cp, "1", 1)) {
 804ce60:	c7 44 24 08 02 00 00 00 	movl   $0x2,0x8(%esp)
 804ce68:	c7 44 24 04 67 e0 04 08 	movl   $0x804e067,0x4(%esp)
 804ce70:	89 1c 24             	mov    %ebx,(%esp)
 804ce73:	e8 08 c1 ff ff       	call   8048f80 <strncasecmp@plt>

	cp = (char *) s;
	LTRIM(cp);

	if (!strncasecmp(cp, "TRUE", 4) ||
		!strncasecmp(cp, "YES", 3) ||
 804ce78:	85 c0                	test   %eax,%eax
 804ce7a:	74 1c                	je     804ce98 <bool_set+0xaf>
		!strncasecmp(cp, "ON", 2) || !strncasecmp(cp, "1", 1)) {
 804ce7c:	c7 44 24 08 01 00 00 00 	movl   $0x1,0x8(%esp)
 804ce84:	c7 44 24 04 ff df 04 08 	movl   $0x804dfff,0x4(%esp)
 804ce8c:	89 1c 24             	mov    %ebx,(%esp)
 804ce8f:	e8 ec c0 ff ff       	call   8048f80 <strncasecmp@plt>
 804ce94:	85 c0                	test   %eax,%eax
 804ce96:	75 13                	jne    804ceab <bool_set+0xc2>

		*((int *) var->p) = 1;
 804ce98:	8b 46 08             	mov    0x8(%esi),%eax
 804ce9b:	c7 00 01 00 00 00    	movl   $0x1,(%eax)
		return 1;
 804cea1:	b8 01 00 00 00       	mov    $0x1,%eax
 804cea6:	e9 85 00 00 00       	jmp    804cf30 <bool_set+0x147>
	}

	if (!strncasecmp(cp, "FALSE", 5) ||
 804ceab:	c7 44 24 08 05 00 00 00 	movl   $0x5,0x8(%esp)
 804ceb3:	c7 44 24 04 6a e0 04 08 	movl   $0x804e06a,0x4(%esp)
 804cebb:	89 1c 24             	mov    %ebx,(%esp)
 804cebe:	e8 bd c0 ff ff       	call   8048f80 <strncasecmp@plt>
 804cec3:	85 c0                	test   %eax,%eax
 804cec5:	74 5b                	je     804cf22 <bool_set+0x139>
		!strncasecmp(cp, "NO", 2) ||
 804cec7:	c7 44 24 08 02 00 00 00 	movl   $0x2,0x8(%esp)
 804cecf:	c7 44 24 04 70 e0 04 08 	movl   $0x804e070,0x4(%esp)
 804ced7:	89 1c 24             	mov    %ebx,(%esp)
 804ceda:	e8 a1 c0 ff ff       	call   8048f80 <strncasecmp@plt>

		*((int *) var->p) = 1;
		return 1;
	}

	if (!strncasecmp(cp, "FALSE", 5) ||
 804cedf:	85 c0                	test   %eax,%eax
 804cee1:	74 3f                	je     804cf22 <bool_set+0x139>
		!strncasecmp(cp, "NO", 2) ||
		!strncasecmp(cp, "OFF", 3) || !strncasecmp(cp, "0", 1)) {
 804cee3:	c7 44 24 08 03 00 00 00 	movl   $0x3,0x8(%esp)
 804ceeb:	c7 44 24 04 73 e0 04 08 	movl   $0x804e073,0x4(%esp)
 804cef3:	89 1c 24             	mov    %ebx,(%esp)
 804cef6:	e8 85 c0 ff ff       	call   8048f80 <strncasecmp@plt>
		*((int *) var->p) = 1;
		return 1;
	}

	if (!strncasecmp(cp, "FALSE", 5) ||
		!strncasecmp(cp, "NO", 2) ||
 804cefb:	85 c0                	test   %eax,%eax
 804cefd:	74 23                	je     804cf22 <bool_set+0x139>
		!strncasecmp(cp, "OFF", 3) || !strncasecmp(cp, "0", 1)) {
 804ceff:	c7 44 24 08 01 00 00 00 	movl   $0x1,0x8(%esp)
 804cf07:	c7 44 24 04 77 e0 04 08 	movl   $0x804e077,0x4(%esp)
 804cf0f:	89 1c 24             	mov    %ebx,(%esp)
 804cf12:	e8 69 c0 ff ff       	call   8048f80 <strncasecmp@plt>
 804cf17:	89 c2                	mov    %eax,%edx

		*((int *) var->p) = 0;
		return 1;
	}

	return 0;
 804cf19:	b8 00 00 00 00       	mov    $0x0,%eax
		return 1;
	}

	if (!strncasecmp(cp, "FALSE", 5) ||
		!strncasecmp(cp, "NO", 2) ||
		!strncasecmp(cp, "OFF", 3) || !strncasecmp(cp, "0", 1)) {
 804cf1e:	85 d2                	test   %edx,%edx
 804cf20:	75 0e                	jne    804cf30 <bool_set+0x147>

		*((int *) var->p) = 0;
 804cf22:	8b 46 08             	mov    0x8(%esi),%eax
 804cf25:	c7 00 00 00 00 00    	movl   $0x0,(%eax)
		return 1;
 804cf2b:	b8 01 00 00 00       	mov    $0x1,%eax
	}

	return 0;
}
 804cf30:	83 c4 14             	add    $0x14,%esp
 804cf33:	5b                   	pop    %ebx
 804cf34:	5e                   	pop    %esi
 804cf35:	c3                   	ret    

0804cf36 <string_set>:

	return 1;
}

int string_set(struct conf_var *var, const char *s)
{
 804cf36:	57                   	push   %edi
 804cf37:	56                   	push   %esi
 804cf38:	53                   	push   %ebx
 804cf39:	83 ec 10             	sub    $0x10,%esp
 804cf3c:	8b 5c 24 20          	mov    0x20(%esp),%ebx
 804cf40:	8b 7c 24 24          	mov    0x24(%esp),%edi
	char *cp;			/* source */
	int len;
	char quote;
	char *ep;

	if ((!s) || (!var))
 804cf44:	85 ff                	test   %edi,%edi
 804cf46:	0f 84 d2 00 00 00    	je     804d01e <string_set+0xe8>
 804cf4c:	85 db                	test   %ebx,%ebx
 804cf4e:	0f 84 ca 00 00 00    	je     804d01e <string_set+0xe8>
		return 0;

	cp = (char *) s;
	LTRIM(cp);
 804cf54:	e8 67 c1 ff ff       	call   80490c0 <__ctype_b_loc@plt>
 804cf59:	8b 30                	mov    (%eax),%esi
 804cf5b:	89 fa                	mov    %edi,%edx
 804cf5d:	eb 03                	jmp    804cf62 <string_set+0x2c>
 804cf5f:	83 c2 01             	add    $0x1,%edx
 804cf62:	0f b6 02             	movzbl (%edx),%eax
 804cf65:	0f be c8             	movsbl %al,%ecx
 804cf68:	f6 44 4e 01 20       	testb  $0x20,0x1(%esi,%ecx,2)
 804cf6d:	74 08                	je     804cf77 <string_set+0x41>
 804cf6f:	84 c0                	test   %al,%al
 804cf71:	75 ec                	jne    804cf5f <string_set+0x29>
 804cf73:	89 d7                	mov    %edx,%edi
 804cf75:	eb 53                	jmp    804cfca <string_set+0x94>
 804cf77:	89 d6                	mov    %edx,%esi
	if ((*cp == '"') || (*cp == '\'')) {
 804cf79:	3c 22                	cmp    $0x22,%al
 804cf7b:	74 05                	je     804cf82 <string_set+0x4c>
 804cf7d:	3c 27                	cmp    $0x27,%al
 804cf7f:	90                   	nop
 804cf80:	75 46                	jne    804cfc8 <string_set+0x92>
		quote = *cp;
		cp++;
 804cf82:	83 c6 01             	add    $0x1,%esi
		if ((ep = strchr(cp, quote)) != NULL)
 804cf85:	0f be c0             	movsbl %al,%eax
 804cf88:	89 44 24 04          	mov    %eax,0x4(%esp)
 804cf8c:	89 34 24             	mov    %esi,(%esp)
 804cf8f:	e8 3c bf ff ff       	call   8048ed0 <strchr@plt>
			len = ep - cp;
 804cf94:	89 c7                	mov    %eax,%edi
 804cf96:	29 f7                	sub    %esi,%edi
	cp = (char *) s;
	LTRIM(cp);
	if ((*cp == '"') || (*cp == '\'')) {
		quote = *cp;
		cp++;
		if ((ep = strchr(cp, quote)) != NULL)
 804cf98:	85 c0                	test   %eax,%eax
 804cf9a:	75 41                	jne    804cfdd <string_set+0xa7>

# ifdef __va_arg_pack
__extern_always_inline int
fprintf (FILE *__restrict __stream, __const char *__restrict __fmt, ...)
{
  return __fprintf_chk (__stream, __USE_FORTIFY_LEVEL - 1, __fmt,
 804cf9c:	a1 40 13 05 08       	mov    0x8051340,%eax
 804cfa1:	89 44 24 0c          	mov    %eax,0xc(%esp)
 804cfa5:	c7 44 24 08 15 00 00 00 	movl   $0x15,0x8(%esp)
 804cfad:	c7 44 24 04 01 00 00 00 	movl   $0x1,0x4(%esp)
 804cfb5:	c7 04 24 79 e0 04 08 	movl   $0x804e079,(%esp)
 804cfbc:	e8 4f be ff ff       	call   8048e10 <fwrite@plt>
			len = ep - cp;
		else {
#ifdef DEBUG
			fprintf(stderr, "Unterminated string.\n");
#endif
			len = 0;
 804cfc1:	bf 00 00 00 00       	mov    $0x0,%edi
 804cfc6:	eb 15                	jmp    804cfdd <string_set+0xa7>
	if ((!s) || (!var))
		return 0;

	cp = (char *) s;
	LTRIM(cp);
	if ((*cp == '"') || (*cp == '\'')) {
 804cfc8:	89 d7                	mov    %edx,%edi
#endif
			len = 0;
		}

	} else {
		len = strlen(cp);
 804cfca:	b8 00 00 00 00       	mov    $0x0,%eax
 804cfcf:	b9 ff ff ff ff       	mov    $0xffffffff,%ecx
 804cfd4:	f2 ae                	repnz scas %es:(%edi),%al
 804cfd6:	f7 d1                	not    %ecx
 804cfd8:	8d 79 ff             	lea    -0x1(%ecx),%edi
 804cfdb:	89 d6                	mov    %edx,%esi
	}

	if (var->p == NULL) {
 804cfdd:	83 7b 08 00          	cmpl   $0x0,0x8(%ebx)
 804cfe1:	75 0e                	jne    804cff1 <string_set+0xbb>
		var->p = malloc(len + 1);
 804cfe3:	8d 47 01             	lea    0x1(%edi),%eax
 804cfe6:	89 04 24             	mov    %eax,(%esp)
 804cfe9:	e8 52 be ff ff       	call   8048e40 <malloc@plt>
 804cfee:	89 43 08             	mov    %eax,0x8(%ebx)
	}

	if (var->len > 0)
 804cff1:	8b 43 0c             	mov    0xc(%ebx),%eax
 804cff4:	85 c0                	test   %eax,%eax
 804cff6:	7e 05                	jle    804cffd <string_set+0xc7>
		len = MIN(len, var->len);
 804cff8:	39 c7                	cmp    %eax,%edi
 804cffa:	0f 4f f8             	cmovg  %eax,%edi

__extern_always_inline char *
__NTH (strncpy (char *__restrict __dest, __const char *__restrict __src,
		size_t __len))
{
  return __builtin___strncpy_chk (__dest, __src, __len, __bos (__dest));
 804cffd:	89 7c 24 08          	mov    %edi,0x8(%esp)
 804d001:	89 74 24 04          	mov    %esi,0x4(%esp)
 804d005:	8b 43 08             	mov    0x8(%ebx),%eax
 804d008:	89 04 24             	mov    %eax,(%esp)
 804d00b:	e8 60 bf ff ff       	call   8048f70 <strncpy@plt>

	strncpy((char *) (var->p), cp, len);
	cp = (char *)(var->p);
	cp[len] = '\0';
 804d010:	8b 43 08             	mov    0x8(%ebx),%eax
 804d013:	c6 04 38 00          	movb   $0x0,(%eax,%edi,1)

	return 1;
 804d017:	b8 01 00 00 00       	mov    $0x1,%eax
 804d01c:	eb 05                	jmp    804d023 <string_set+0xed>
	int len;
	char quote;
	char *ep;

	if ((!s) || (!var))
		return 0;
 804d01e:	b8 00 00 00 00       	mov    $0x0,%eax
	strncpy((char *) (var->p), cp, len);
	cp = (char *)(var->p);
	cp[len] = '\0';

	return 1;
}
 804d023:	83 c4 10             	add    $0x10,%esp
 804d026:	5b                   	pop    %ebx
 804d027:	5e                   	pop    %esi
 804d028:	5f                   	pop    %edi
 804d029:	c3                   	ret    

0804d02a <uint_set>:
	sprintf(s, "%u", *(unsigned int *) (var->p));
	return 1;
}

int uint_set(struct conf_var *var, const char *s)
{
 804d02a:	53                   	push   %ebx
 804d02b:	83 ec 18             	sub    $0x18,%esp
 804d02e:	8b 5c 24 20          	mov    0x20(%esp),%ebx
	unsigned int *p;

	if (var->p == NULL) {
 804d032:	83 7b 08 00          	cmpl   $0x0,0x8(%ebx)
 804d036:	75 0f                	jne    804d047 <uint_set+0x1d>
		var->p = malloc(sizeof(unsigned int));
 804d038:	c7 04 24 04 00 00 00 	movl   $0x4,(%esp)
 804d03f:	e8 fc bd ff ff       	call   8048e40 <malloc@plt>
 804d044:	89 43 08             	mov    %eax,0x8(%ebx)
	}

	p = (unsigned int *) var->p;
 804d047:	8b 5b 08             	mov    0x8(%ebx),%ebx

	*p = strtoul(s, NULL, 0);
 804d04a:	c7 44 24 08 00 00 00 00 	movl   $0x0,0x8(%esp)
 804d052:	c7 44 24 04 00 00 00 00 	movl   $0x0,0x4(%esp)
 804d05a:	8b 44 24 24          	mov    0x24(%esp),%eax
 804d05e:	89 04 24             	mov    %eax,(%esp)
 804d061:	e8 5a be ff ff       	call   8048ec0 <strtoul@plt>
 804d066:	89 03                	mov    %eax,(%ebx)

	return 1;
}
 804d068:	b8 01 00 00 00       	mov    $0x1,%eax
 804d06d:	83 c4 18             	add    $0x18,%esp
 804d070:	5b                   	pop    %ebx
 804d071:	c3                   	ret    

0804d072 <int_set>:
	sprintf(s, "%i", *(int *) (var->p));
	return 1;
}

int int_set(struct conf_var *var, const char *s)
{
 804d072:	53                   	push   %ebx
 804d073:	83 ec 18             	sub    $0x18,%esp
 804d076:	8b 5c 24 20          	mov    0x20(%esp),%ebx
	int *p;

	if (var->p == NULL) {
 804d07a:	83 7b 08 00          	cmpl   $0x0,0x8(%ebx)
 804d07e:	75 0f                	jne    804d08f <int_set+0x1d>
		var->p = malloc(sizeof(int));
 804d080:	c7 04 24 04 00 00 00 	movl   $0x4,(%esp)
 804d087:	e8 b4 bd ff ff       	call   8048e40 <malloc@plt>
 804d08c:	89 43 08             	mov    %eax,0x8(%ebx)
	}

	p = (int *) var->p;
 804d08f:	8b 5b 08             	mov    0x8(%ebx),%ebx

	*p = strtol(s, NULL, 0);
 804d092:	c7 44 24 08 00 00 00 00 	movl   $0x0,0x8(%esp)
 804d09a:	c7 44 24 04 00 00 00 00 	movl   $0x0,0x4(%esp)
 804d0a2:	8b 44 24 24          	mov    0x24(%esp),%eax
 804d0a6:	89 04 24             	mov    %eax,(%esp)
 804d0a9:	e8 d2 bf ff ff       	call   8049080 <strtol@plt>
 804d0ae:	89 03                	mov    %eax,(%ebx)

	return 1;
}
 804d0b0:	b8 01 00 00 00       	mov    $0x1,%eax
 804d0b5:	83 c4 18             	add    $0x18,%esp
 804d0b8:	5b                   	pop    %ebx
 804d0b9:	c3                   	ret    

0804d0ba <write_section>:
/*
* Recursive writes a section into a stream
*
*/
static int write_section(FILE * f, struct conf_var *section, char *branch)
{
 804d0ba:	55                   	push   %ebp
 804d0bb:	57                   	push   %edi
 804d0bc:	56                   	push   %esi
 804d0bd:	53                   	push   %ebx
 804d0be:	81 ec 4c 18 00 00    	sub    $0x184c,%esp
 804d0c4:	89 44 24 20          	mov    %eax,0x20(%esp)
 804d0c8:	65 a1 14 00 00 00    	mov    %gs:0x14,%eax
 804d0ce:	89 84 24 3c 18 00 00 	mov    %eax,0x183c(%esp)
 804d0d5:	31 c0                	xor    %eax,%eax
	struct conf_var *queue[1024];
	int head = 0;
	int tail = 0;

	if (section == NULL)
		return 0;
 804d0d7:	c7 44 24 24 00 00 00 00 	movl   $0x0,0x24(%esp)
	/* define a queue for sections */
	struct conf_var *queue[1024];
	int head = 0;
	int tail = 0;

	if (section == NULL)
 804d0df:	85 d2                	test   %edx,%edx
 804d0e1:	0f 84 69 01 00 00    	je     804d250 <write_section+0x196>
		return 0;

	entry = section;
	while (entry->name != NULL) {
 804d0e7:	83 3a 00             	cmpl   $0x0,(%edx)
 804d0ea:	0f 84 60 01 00 00    	je     804d250 <write_section+0x196>
 804d0f0:	89 d3                	mov    %edx,%ebx
 804d0f2:	c7 44 24 28 00 00 00 00 	movl   $0x0,0x28(%esp)

		if (entry->type == CONF_TYPE(CONF_SECTION)) {
			queue[tail++] = (struct conf_var *) entry;
		} else {
			if (entry->type->t_get(entry, buf)) {
 804d0fa:	8d b4 24 3c 10 00 00 	lea    0x103c(%esp),%esi
 804d101:	bf 00 00 00 00       	mov    $0x0,%edi
 804d106:	89 4c 24 2c          	mov    %ecx,0x2c(%esp)
 804d10a:	bd 00 00 00 00       	mov    $0x0,%ebp
		return 0;

	entry = section;
	while (entry->name != NULL) {

		if (entry->type == CONF_TYPE(CONF_SECTION)) {
 804d10f:	8b 43 04             	mov    0x4(%ebx),%eax
 804d112:	3d b0 11 05 08       	cmp    $0x80511b0,%eax
 804d117:	75 09                	jne    804d122 <write_section+0x68>
			queue[tail++] = (struct conf_var *) entry;
 804d119:	89 5c ac 3c          	mov    %ebx,0x3c(%esp,%ebp,4)
 804d11d:	83 c5 01             	add    $0x1,%ebp
 804d120:	eb 63                	jmp    804d185 <write_section+0xcb>
		} else {
			if (entry->type->t_get(entry, buf)) {
 804d122:	89 74 24 04          	mov    %esi,0x4(%esp)
 804d126:	89 1c 24             	mov    %ebx,(%esp)
 804d129:	ff 50 08             	call   *0x8(%eax)
 804d12c:	85 c0                	test   %eax,%eax
 804d12e:	74 28                	je     804d158 <write_section+0x9e>
				fprintf(f, "%s = %s\n", entry->name, buf);
 804d130:	89 74 24 10          	mov    %esi,0x10(%esp)
 804d134:	8b 03                	mov    (%ebx),%eax
 804d136:	89 44 24 0c          	mov    %eax,0xc(%esp)
 804d13a:	c7 44 24 08 8f e0 04 08 	movl   $0x804e08f,0x8(%esp)
 804d142:	c7 44 24 04 01 00 00 00 	movl   $0x1,0x4(%esp)
 804d14a:	8b 44 24 20          	mov    0x20(%esp),%eax
 804d14e:	89 04 24             	mov    %eax,(%esp)
 804d151:	e8 ea be ff ff       	call   8049040 <__fprintf_chk@plt>
 804d156:	eb 2a                	jmp    804d182 <write_section+0xc8>
 804d158:	c7 44 24 10 d4 e1 04 08 	movl   $0x804e1d4,0x10(%esp)
 804d160:	8b 03                	mov    (%ebx),%eax
 804d162:	89 44 24 0c          	mov    %eax,0xc(%esp)
 804d166:	c7 44 24 08 8f e0 04 08 	movl   $0x804e08f,0x8(%esp)
 804d16e:	c7 44 24 04 01 00 00 00 	movl   $0x1,0x4(%esp)
 804d176:	8b 44 24 20          	mov    0x20(%esp),%eax
 804d17a:	89 04 24             	mov    %eax,(%esp)
 804d17d:	e8 be be ff ff       	call   8049040 <__fprintf_chk@plt>
			} else {
				/* Assuming the above failure means configuration stub. */
				fprintf(f, "%s = %s\n", entry->name, STUB_STRING);
			}
			count++;
 804d182:	83 c7 01             	add    $0x1,%edi
		}
		entry++;
 804d185:	83 c3 10             	add    $0x10,%ebx

	if (section == NULL)
		return 0;

	entry = section;
	while (entry->name != NULL) {
 804d188:	83 3b 00             	cmpl   $0x0,(%ebx)
 804d18b:	75 82                	jne    804d10f <write_section+0x55>
 804d18d:	89 7c 24 24          	mov    %edi,0x24(%esp)
 804d191:	89 6c 24 28          	mov    %ebp,0x28(%esp)
 804d195:	8b 6c 24 2c          	mov    0x2c(%esp),%ebp
			count++;
		}
		entry++;
	}

	for (head = 0; head < tail; head++) {
 804d199:	83 7c 24 28 00       	cmpl   $0x0,0x28(%esp)
 804d19e:	0f 8f c2 00 00 00    	jg     804d266 <write_section+0x1ac>
 804d1a4:	e9 a7 00 00 00       	jmp    804d250 <write_section+0x196>
		entry = queue[head];
 804d1a9:	8b 74 9c 3c          	mov    0x3c(%esp,%ebx,4),%esi
		if (head != 0)
 804d1ad:	85 db                	test   %ebx,%ebx
 804d1af:	74 14                	je     804d1c5 <write_section+0x10b>
 804d1b1:	8b 44 24 20          	mov    0x20(%esp),%eax
 804d1b5:	89 44 24 04          	mov    %eax,0x4(%esp)
 804d1b9:	c7 04 24 0a 00 00 00 	movl   $0xa,(%esp)
 804d1c0:	e8 2b be ff ff       	call   8048ff0 <fputc@plt>
			fprintf(f, "\n");
		if ((branch != NULL) && (*branch != '\0'))
 804d1c5:	85 ed                	test   %ebp,%ebp
 804d1c7:	74 32                	je     804d1fb <write_section+0x141>
 804d1c9:	80 7d 00 00          	cmpb   $0x0,0x0(%ebp)
 804d1cd:	74 2c                	je     804d1fb <write_section+0x141>

#ifdef __va_arg_pack
__extern_always_inline int
__NTH (sprintf (char *__restrict __s, __const char *__restrict __fmt, ...))
{
  return __builtin___sprintf_chk (__s, __USE_FORTIFY_LEVEL - 1,
 804d1cf:	8b 06                	mov    (%esi),%eax
 804d1d1:	89 44 24 14          	mov    %eax,0x14(%esp)
 804d1d5:	89 6c 24 10          	mov    %ebp,0x10(%esp)
 804d1d9:	c7 44 24 0c 98 e0 04 08 	movl   $0x804e098,0xc(%esp)
 804d1e1:	c7 44 24 08 00 08 00 00 	movl   $0x800,0x8(%esp)
 804d1e9:	c7 44 24 04 01 00 00 00 	movl   $0x1,0x4(%esp)
			sprintf(buf, "%s/%s", branch, entry->name);
 804d1f1:	89 3c 24             	mov    %edi,(%esp)
 804d1f4:	e8 d7 be ff ff       	call   80490d0 <__sprintf_chk@plt>
 804d1f9:	eb 16                	jmp    804d211 <write_section+0x157>
#endif

__extern_always_inline char *
__NTH (strcpy (char *__restrict __dest, __const char *__restrict __src))
{
  return __builtin___strcpy_chk (__dest, __src, __bos (__dest));
 804d1fb:	c7 44 24 08 00 08 00 00 	movl   $0x800,0x8(%esp)
 804d203:	8b 06                	mov    (%esi),%eax
 804d205:	89 44 24 04          	mov    %eax,0x4(%esp)
		else
			strcpy(buf, entry->name);
 804d209:	89 3c 24             	mov    %edi,(%esp)
 804d20c:	e8 7f bd ff ff       	call   8048f90 <__strcpy_chk@plt>
		fprintf(f, "[%s]\n", buf);
 804d211:	89 7c 24 0c          	mov    %edi,0xc(%esp)

# ifdef __va_arg_pack
__extern_always_inline int
fprintf (FILE *__restrict __stream, __const char *__restrict __fmt, ...)
{
  return __fprintf_chk (__stream, __USE_FORTIFY_LEVEL - 1, __fmt,
 804d215:	c7 44 24 08 9e e0 04 08 	movl   $0x804e09e,0x8(%esp)
 804d21d:	c7 44 24 04 01 00 00 00 	movl   $0x1,0x4(%esp)
 804d225:	8b 44 24 20          	mov    0x20(%esp),%eax
 804d229:	89 04 24             	mov    %eax,(%esp)
 804d22c:	e8 0f be ff ff       	call   8049040 <__fprintf_chk@plt>
		count += write_section(f, (struct conf_var *) entry->p, buf);
 804d231:	8b 56 08             	mov    0x8(%esi),%edx
 804d234:	89 f9                	mov    %edi,%ecx
 804d236:	8b 44 24 20          	mov    0x20(%esp),%eax
 804d23a:	e8 7b fe ff ff       	call   804d0ba <write_section>
 804d23f:	01 44 24 24          	add    %eax,0x24(%esp)
			count++;
		}
		entry++;
	}

	for (head = 0; head < tail; head++) {
 804d243:	83 c3 01             	add    $0x1,%ebx
 804d246:	3b 5c 24 28          	cmp    0x28(%esp),%ebx
 804d24a:	0f 85 59 ff ff ff    	jne    804d1a9 <write_section+0xef>
		fprintf(f, "[%s]\n", buf);
		count += write_section(f, (struct conf_var *) entry->p, buf);
	}

	return count;
}
 804d250:	8b 44 24 24          	mov    0x24(%esp),%eax
 804d254:	8b 94 24 3c 18 00 00 	mov    0x183c(%esp),%edx
 804d25b:	65 33 15 14 00 00 00 	xor    %gs:0x14,%edx
 804d262:	74 1c                	je     804d280 <write_section+0x1c6>
 804d264:	eb 15                	jmp    804d27b <write_section+0x1c1>
		}
		entry++;
	}

	for (head = 0; head < tail; head++) {
		entry = queue[head];
 804d266:	8b 74 24 3c          	mov    0x3c(%esp),%esi
 804d26a:	bb 00 00 00 00       	mov    $0x0,%ebx
		if (head != 0)
			fprintf(f, "\n");
		if ((branch != NULL) && (*branch != '\0'))
			sprintf(buf, "%s/%s", branch, entry->name);
 804d26f:	8d bc 24 3c 10 00 00 	lea    0x103c(%esp),%edi
 804d276:	e9 4a ff ff ff       	jmp    804d1c5 <write_section+0x10b>
		fprintf(f, "[%s]\n", buf);
		count += write_section(f, (struct conf_var *) entry->p, buf);
	}

	return count;
}
 804d27b:	e8 30 bb ff ff       	call   8048db0 <__stack_chk_fail@plt>
 804d280:	81 c4 4c 18 00 00    	add    $0x184c,%esp
 804d286:	5b                   	pop    %ebx
 804d287:	5e                   	pop    %esi
 804d288:	5f                   	pop    %edi
 804d289:	5d                   	pop    %ebp
 804d28a:	c3                   	ret    

0804d28b <var_lookup>:
	/* {CONF_IPPORT, "ip_port", ipport_get, ipport_set} */
	{CONF_IPPORT, "ip_port", string_get, string_set}
};

struct conf_var *var_lookup(struct conf_var *section, const char *name)
{
 804d28b:	56                   	push   %esi
 804d28c:	53                   	push   %ebx
 804d28d:	83 ec 14             	sub    $0x14,%esp
 804d290:	8b 54 24 20          	mov    0x20(%esp),%edx
 804d294:	8b 74 24 24          	mov    0x24(%esp),%esi
	struct conf_var *entry;

	if ((name == NULL) || (*name == '\0')) {
 804d298:	85 f6                	test   %esi,%esi
 804d29a:	74 36                	je     804d2d2 <var_lookup+0x47>
		//      fprintf(stderr, "name invalid\n");
		return NULL;
 804d29c:	bb 00 00 00 00       	mov    $0x0,%ebx

struct conf_var *var_lookup(struct conf_var *section, const char *name)
{
	struct conf_var *entry;

	if ((name == NULL) || (*name == '\0')) {
 804d2a1:	80 3e 00             	cmpb   $0x0,(%esi)
 804d2a4:	74 38                	je     804d2de <var_lookup+0x53>
		//      fprintf(stderr, "name invalid\n");
		return NULL;
	}

	if ((entry = section) == NULL) {
 804d2a6:	85 d2                	test   %edx,%edx
 804d2a8:	74 2f                	je     804d2d9 <var_lookup+0x4e>
		//      fprintf(stderr, "section invalid\n");
		return NULL;
	}

	while (entry->name != NULL) {
 804d2aa:	8b 02                	mov    (%edx),%eax
 804d2ac:	85 c0                	test   %eax,%eax
 804d2ae:	74 2e                	je     804d2de <var_lookup+0x53>
 804d2b0:	89 d3                	mov    %edx,%ebx
		if (strcmp(entry->name, name) == 0)
 804d2b2:	89 74 24 04          	mov    %esi,0x4(%esp)
 804d2b6:	89 04 24             	mov    %eax,(%esp)
 804d2b9:	e8 32 ba ff ff       	call   8048cf0 <strcmp@plt>
 804d2be:	85 c0                	test   %eax,%eax
 804d2c0:	74 1c                	je     804d2de <var_lookup+0x53>
			return entry;
		entry++;
 804d2c2:	83 c3 10             	add    $0x10,%ebx
	if ((entry = section) == NULL) {
		//      fprintf(stderr, "section invalid\n");
		return NULL;
	}

	while (entry->name != NULL) {
 804d2c5:	8b 03                	mov    (%ebx),%eax
 804d2c7:	85 c0                	test   %eax,%eax
 804d2c9:	75 e7                	jne    804d2b2 <var_lookup+0x27>
			return entry;
		entry++;
	}

//      fprintf(stderr, "name not found\n");
	return NULL;
 804d2cb:	bb 00 00 00 00       	mov    $0x0,%ebx
 804d2d0:	eb 0c                	jmp    804d2de <var_lookup+0x53>
{
	struct conf_var *entry;

	if ((name == NULL) || (*name == '\0')) {
		//      fprintf(stderr, "name invalid\n");
		return NULL;
 804d2d2:	bb 00 00 00 00       	mov    $0x0,%ebx
 804d2d7:	eb 05                	jmp    804d2de <var_lookup+0x53>
	}

	if ((entry = section) == NULL) {
		//      fprintf(stderr, "section invalid\n");
		return NULL;
 804d2d9:	bb 00 00 00 00       	mov    $0x0,%ebx
		entry++;
	}

//      fprintf(stderr, "name not found\n");
	return NULL;
}
 804d2de:	89 d8                	mov    %ebx,%eax
 804d2e0:	83 c4 14             	add    $0x14,%esp
 804d2e3:	5b                   	pop    %ebx
 804d2e4:	5e                   	pop    %esi
 804d2e5:	c3                   	ret    

0804d2e6 <var_set>:

int var_set(struct conf_var *section, const char *name, const char *value)
{
 804d2e6:	53                   	push   %ebx
 804d2e7:	83 ec 18             	sub    $0x18,%esp
 804d2ea:	8b 5c 24 28          	mov    0x28(%esp),%ebx
	struct conf_var *entry;

	entry = var_lookup(section, name);
 804d2ee:	8b 44 24 24          	mov    0x24(%esp),%eax
 804d2f2:	89 44 24 04          	mov    %eax,0x4(%esp)
 804d2f6:	8b 44 24 20          	mov    0x20(%esp),%eax
 804d2fa:	89 04 24             	mov    %eax,(%esp)
 804d2fd:	e8 89 ff ff ff       	call   804d28b <var_lookup>
	if (entry == NULL)
 804d302:	85 c0                	test   %eax,%eax
 804d304:	74 1e                	je     804d324 <var_set+0x3e>
		return -1;

	/* Assuming NULL set as a stub configuration. */
	if (value == NULL)
		value = STUB_STRING;
 804d306:	85 db                	test   %ebx,%ebx
 804d308:	ba d4 e1 04 08       	mov    $0x804e1d4,%edx
 804d30d:	0f 44 da             	cmove  %edx,%ebx
	
	if (entry->type->t_set(entry, value))
 804d310:	8b 50 04             	mov    0x4(%eax),%edx
 804d313:	89 5c 24 04          	mov    %ebx,0x4(%esp)
 804d317:	89 04 24             	mov    %eax,(%esp)
 804d31a:	ff 52 0c             	call   *0xc(%edx)
		return 0;
 804d31d:	83 f8 01             	cmp    $0x1,%eax
 804d320:	19 c0                	sbb    %eax,%eax
 804d322:	eb 05                	jmp    804d329 <var_set+0x43>
{
	struct conf_var *entry;

	entry = var_lookup(section, name);
	if (entry == NULL)
		return -1;
 804d324:	b8 ff ff ff ff       	mov    $0xffffffff,%eax
	
	if (entry->type->t_set(entry, value))
		return 0;

	return -1;
}
 804d329:	83 c4 18             	add    $0x18,%esp
 804d32c:	5b                   	pop    %ebx
 804d32d:	c3                   	ret    

0804d32e <var_get>:

int var_get(struct conf_var *section, const char *name, char *value)
{
 804d32e:	53                   	push   %ebx
 804d32f:	83 ec 18             	sub    $0x18,%esp
 804d332:	8b 5c 24 28          	mov    0x28(%esp),%ebx
	struct conf_var *entry;

	if (value == NULL)
 804d336:	85 db                	test   %ebx,%ebx
 804d338:	74 41                	je     804d37b <var_get+0x4d>
		return -1;

	entry = var_lookup(section, name);
 804d33a:	8b 44 24 24          	mov    0x24(%esp),%eax
 804d33e:	89 44 24 04          	mov    %eax,0x4(%esp)
 804d342:	8b 44 24 20          	mov    0x20(%esp),%eax
 804d346:	89 04 24             	mov    %eax,(%esp)
 804d349:	e8 3d ff ff ff       	call   804d28b <var_lookup>
	if (entry == NULL)
 804d34e:	85 c0                	test   %eax,%eax
 804d350:	74 30                	je     804d382 <var_get+0x54>
		return -1;

	if (entry->type->t_get(entry, value))
 804d352:	8b 50 04             	mov    0x4(%eax),%edx
 804d355:	89 5c 24 04          	mov    %ebx,0x4(%esp)
 804d359:	89 04 24             	mov    %eax,(%esp)
 804d35c:	ff 52 08             	call   *0x8(%edx)
		return 0;
 804d35f:	ba 00 00 00 00       	mov    $0x0,%edx

	entry = var_lookup(section, name);
	if (entry == NULL)
		return -1;

	if (entry->type->t_get(entry, value))
 804d364:	85 c0                	test   %eax,%eax
 804d366:	75 1f                	jne    804d387 <var_get+0x59>
 804d368:	a1 d4 e1 04 08       	mov    0x804e1d4,%eax
 804d36d:	89 03                	mov    %eax,(%ebx)
 804d36f:	0f b6 05 d8 e1 04 08 	movzbl 0x804e1d8,%eax
 804d376:	88 43 04             	mov    %al,0x4(%ebx)
		return 0;
	else {
		strcpy(value, STUB_STRING);
		return 0;
 804d379:	eb 0c                	jmp    804d387 <var_get+0x59>
int var_get(struct conf_var *section, const char *name, char *value)
{
	struct conf_var *entry;

	if (value == NULL)
		return -1;
 804d37b:	ba ff ff ff ff       	mov    $0xffffffff,%edx
 804d380:	eb 05                	jmp    804d387 <var_get+0x59>

	entry = var_lookup(section, name);
	if (entry == NULL)
		return -1;
 804d382:	ba ff ff ff ff       	mov    $0xffffffff,%edx
		strcpy(value, STUB_STRING);
		return 0;
	}

	return -1;
}
 804d387:	89 d0                	mov    %edx,%eax
 804d389:	83 c4 18             	add    $0x18,%esp
 804d38c:	5b                   	pop    %ebx
 804d38d:	c3                   	ret    

0804d38e <conf_load>:

int conf_load(const char *path, struct conf_var *root)
{
 804d38e:	55                   	push   %ebp
 804d38f:	57                   	push   %edi
 804d390:	56                   	push   %esi
 804d391:	53                   	push   %ebx
 804d392:	81 ec 5c 08 00 00    	sub    $0x85c,%esp
 804d398:	8b 84 24 70 08 00 00 	mov    0x870(%esp),%eax
 804d39f:	89 44 24 30          	mov    %eax,0x30(%esp)
 804d3a3:	8b 94 24 74 08 00 00 	mov    0x874(%esp),%edx
 804d3aa:	89 54 24 38          	mov    %edx,0x38(%esp)
 804d3ae:	65 a1 14 00 00 00    	mov    %gs:0x14,%eax
 804d3b4:	89 84 24 4c 08 00 00 	mov    %eax,0x84c(%esp)
 804d3bb:	31 c0                	xor    %eax,%eax
			"int load_conf(const char *path, struct conf_var *root)\n"
			"path = %p \"%s\",\nroot = %p\n{\n",
			path, path, root);
	#endif

	if (!(f = fopen(path, "r"))) {
 804d3bd:	c7 44 24 04 46 e1 04 08 	movl   $0x804e146,0x4(%esp)
 804d3c5:	8b 54 24 30          	mov    0x30(%esp),%edx
 804d3c9:	89 14 24             	mov    %edx,(%esp)
 804d3cc:	e8 6f bb ff ff       	call   8048f40 <fopen@plt>
 804d3d1:	89 44 24 28          	mov    %eax,0x28(%esp)
 804d3d5:	85 c0                	test   %eax,%eax
 804d3d7:	0f 84 eb 03 00 00    	je     804d7c8 <conf_load+0x43a>
 804d3dd:	8b 44 24 38          	mov    0x38(%esp),%eax
 804d3e1:	89 44 24 3c          	mov    %eax,0x3c(%esp)
 804d3e5:	c7 44 24 2c 00 00 00 00 	movl   $0x0,0x2c(%esp)
 804d3ed:	c7 44 24 20 00 00 00 00 	movl   $0x0,0x20(%esp)
 804d3f5:	c7 44 24 34 00 00 00 00 	movl   $0x0,0x34(%esp)
 804d3fd:	e9 94 03 00 00       	jmp    804d796 <conf_load+0x408>
			"\tif (!(f = fopen(path, \"r\"))) {\n\t\treturn -1;\n\t};\n"
			"\tsection = root;\n\twhile (fgets(buf, 1024, f)) {\n");
	#endif
	
	while (fgets(buf, 1024, f)) {
		line++;
 804d402:	83 44 24 20 01       	addl   $0x1,0x20(%esp)
		
		#ifdef _CONF_DEBUG
		fprintf(stderr,"\t\tcp = buf;\t(buf: %p)\n", buf);
		#endif

		LTRIM(cp);
 804d407:	e8 b4 bc ff ff       	call   80490c0 <__ctype_b_loc@plt>
 804d40c:	89 44 24 24          	mov    %eax,0x24(%esp)
 804d410:	8b 18                	mov    (%eax),%ebx
		line++;
		#ifdef _CONF_DEBUG
		fprintf(stderr,"\t\tline++\t(interaction#: %i)\n", line);
		#endif

		cp = buf;
 804d412:	8d 54 24 4c          	lea    0x4c(%esp),%edx
		
		#ifdef _CONF_DEBUG
		fprintf(stderr,"\t\tcp = buf;\t(buf: %p)\n", buf);
		#endif

		LTRIM(cp);
 804d416:	eb 03                	jmp    804d41b <conf_load+0x8d>
 804d418:	83 c2 01             	add    $0x1,%edx
 804d41b:	0f b6 02             	movzbl (%edx),%eax
 804d41e:	0f be c8             	movsbl %al,%ecx
 804d421:	f6 44 4b 01 20       	testb  $0x20,0x1(%ebx,%ecx,2)
 804d426:	74 08                	je     804d430 <conf_load+0xa2>
 804d428:	84 c0                	test   %al,%al
 804d42a:	75 ec                	jne    804d418 <conf_load+0x8a>
 804d42c:	89 d6                	mov    %edx,%esi
 804d42e:	eb 02                	jmp    804d432 <conf_load+0xa4>
 804d430:	89 d6                	mov    %edx,%esi
		RTRIM(cp);
 804d432:	89 f7                	mov    %esi,%edi
 804d434:	b8 00 00 00 00       	mov    $0x0,%eax
 804d439:	b9 ff ff ff ff       	mov    $0xffffffff,%ecx
 804d43e:	f2 ae                	repnz scas %es:(%edi),%al
 804d440:	f7 d1                	not    %ecx
 804d442:	8d 44 0e fe          	lea    -0x2(%esi,%ecx,1),%eax
 804d446:	39 c6                	cmp    %eax,%esi
 804d448:	74 1b                	je     804d465 <conf_load+0xd7>
 804d44a:	0f be 08             	movsbl (%eax),%ecx
 804d44d:	f6 44 4b 01 20       	testb  $0x20,0x1(%ebx,%ecx,2)
 804d452:	74 11                	je     804d465 <conf_load+0xd7>
 804d454:	83 e8 01             	sub    $0x1,%eax
 804d457:	39 c6                	cmp    %eax,%esi
 804d459:	74 0a                	je     804d465 <conf_load+0xd7>
 804d45b:	0f be 08             	movsbl (%eax),%ecx
 804d45e:	f6 44 4b 01 20       	testb  $0x20,0x1(%ebx,%ecx,2)
 804d463:	75 ef                	jne    804d454 <conf_load+0xc6>
 804d465:	c6 40 01 00          	movb   $0x0,0x1(%eax)
		#ifdef _CONF_DEBUG
		fprintf(stderr,"\t\tLTRIM(cp);\n\t\tRTRIM(cp);\t(cp: %p,", cp);
		fprintf(stderr," *cp: %c)\n", *cp);
		#endif

		if ((*cp == '\0') || (*cp == '#') || (*cp == ';') || (*cp == '\n'))
 804d469:	0f b6 06             	movzbl (%esi),%eax
 804d46c:	84 c0                	test   %al,%al
 804d46e:	0f 84 22 03 00 00    	je     804d796 <conf_load+0x408>
 804d474:	3c 23                	cmp    $0x23,%al
 804d476:	0f 84 1a 03 00 00    	je     804d796 <conf_load+0x408>
 804d47c:	3c 3b                	cmp    $0x3b,%al
 804d47e:	0f 84 12 03 00 00    	je     804d796 <conf_load+0x408>
 804d484:	3c 0a                	cmp    $0xa,%al
 804d486:	0f 84 0a 03 00 00    	je     804d796 <conf_load+0x408>
			continue;

		if (*cp == '[') {
 804d48c:	3c 5b                	cmp    $0x5b,%al
 804d48e:	66 90                	xchg   %ax,%ax
 804d490:	0f 85 5c 01 00 00    	jne    804d5f2 <conf_load+0x264>

			cp++;
			LTRIM(cp);
 804d496:	8d 6e 01             	lea    0x1(%esi),%ebp
 804d499:	0f b6 46 01          	movzbl 0x1(%esi),%eax
 804d49d:	0f be d0             	movsbl %al,%edx
 804d4a0:	f6 44 53 01 20       	testb  $0x20,0x1(%ebx,%edx,2)
 804d4a5:	74 19                	je     804d4c0 <conf_load+0x132>
 804d4a7:	84 c0                	test   %al,%al
 804d4a9:	74 15                	je     804d4c0 <conf_load+0x132>
 804d4ab:	83 c5 01             	add    $0x1,%ebp
 804d4ae:	0f b6 45 00          	movzbl 0x0(%ebp),%eax
 804d4b2:	0f be d0             	movsbl %al,%edx
 804d4b5:	f6 44 53 01 20       	testb  $0x20,0x1(%ebx,%edx,2)
 804d4ba:	74 04                	je     804d4c0 <conf_load+0x132>
 804d4bc:	84 c0                	test   %al,%al
 804d4be:	75 eb                	jne    804d4ab <conf_load+0x11d>

			if ((ep = strchr(cp, ']')) != NULL)
 804d4c0:	c7 44 24 04 5d 00 00 00 	movl   $0x5d,0x4(%esp)
 804d4c8:	89 2c 24             	mov    %ebp,(%esp)
 804d4cb:	e8 00 ba ff ff       	call   8048ed0 <strchr@plt>
 804d4d0:	85 c0                	test   %eax,%eax
 804d4d2:	74 2d                	je     804d501 <conf_load+0x173>
				*ep = '\0';
 804d4d4:	c6 00 00             	movb   $0x0,(%eax)
			else {
				fprintf(stderr, "%s:%d: parse error.\n", path, line);
				ignore = 1;
				continue;
			}
			RTRIM(cp);
 804d4d7:	89 ef                	mov    %ebp,%edi
 804d4d9:	b8 00 00 00 00       	mov    $0x0,%eax
 804d4de:	b9 ff ff ff ff       	mov    $0xffffffff,%ecx
 804d4e3:	f2 ae                	repnz scas %es:(%edi),%al
 804d4e5:	f7 d1                	not    %ecx
 804d4e7:	8d 44 0d fe          	lea    -0x2(%ebp,%ecx,1),%eax
 804d4eb:	39 e8                	cmp    %ebp,%eax
 804d4ed:	74 5d                	je     804d54c <conf_load+0x1be>
 804d4ef:	8b 54 24 24          	mov    0x24(%esp),%edx
 804d4f3:	8b 0a                	mov    (%edx),%ecx
 804d4f5:	0f be 10             	movsbl (%eax),%edx
 804d4f8:	f6 44 51 01 20       	testb  $0x20,0x1(%ecx,%edx,2)
 804d4fd:	75 3c                	jne    804d53b <conf_load+0x1ad>
 804d4ff:	eb 4b                	jmp    804d54c <conf_load+0x1be>
 804d501:	8b 44 24 20          	mov    0x20(%esp),%eax
 804d505:	89 44 24 10          	mov    %eax,0x10(%esp)
 804d509:	8b 54 24 30          	mov    0x30(%esp),%edx
 804d50d:	89 54 24 0c          	mov    %edx,0xc(%esp)
 804d511:	c7 44 24 08 a4 e0 04 08 	movl   $0x804e0a4,0x8(%esp)
 804d519:	c7 44 24 04 01 00 00 00 	movl   $0x1,0x4(%esp)
 804d521:	a1 40 13 05 08       	mov    0x8051340,%eax
 804d526:	89 04 24             	mov    %eax,(%esp)
 804d529:	e8 12 bb ff ff       	call   8049040 <__fprintf_chk@plt>

			if ((ep = strchr(cp, ']')) != NULL)
				*ep = '\0';
			else {
				fprintf(stderr, "%s:%d: parse error.\n", path, line);
				ignore = 1;
 804d52e:	c7 44 24 2c 01 00 00 00 	movl   $0x1,0x2c(%esp)
				continue;
 804d536:	e9 5b 02 00 00       	jmp    804d796 <conf_load+0x408>
			}
			RTRIM(cp);
 804d53b:	83 e8 01             	sub    $0x1,%eax
 804d53e:	39 e8                	cmp    %ebp,%eax
 804d540:	74 0a                	je     804d54c <conf_load+0x1be>
 804d542:	0f be 10             	movsbl (%eax),%edx
 804d545:	f6 44 51 01 20       	testb  $0x20,0x1(%ecx,%edx,2)
 804d54a:	75 ef                	jne    804d53b <conf_load+0x1ad>
 804d54c:	c6 40 01 00          	movb   $0x0,0x1(%eax)

			/* search for a valid section entry, in the root section */
			entry = var_lookup(root, cp);
 804d550:	89 6c 24 04          	mov    %ebp,0x4(%esp)
 804d554:	8b 44 24 38          	mov    0x38(%esp),%eax
 804d558:	89 04 24             	mov    %eax,(%esp)
 804d55b:	e8 2b fd ff ff       	call   804d28b <var_lookup>
 804d560:	89 c3                	mov    %eax,%ebx
			if (entry == NULL) {
 804d562:	85 c0                	test   %eax,%eax
 804d564:	75 3e                	jne    804d5a4 <conf_load+0x216>
 804d566:	89 6c 24 14          	mov    %ebp,0x14(%esp)
 804d56a:	8b 54 24 20          	mov    0x20(%esp),%edx
 804d56e:	89 54 24 10          	mov    %edx,0x10(%esp)
 804d572:	8b 44 24 30          	mov    0x30(%esp),%eax
 804d576:	89 44 24 0c          	mov    %eax,0xc(%esp)
 804d57a:	c7 44 24 08 b9 e0 04 08 	movl   $0x804e0b9,0x8(%esp)
 804d582:	c7 44 24 04 01 00 00 00 	movl   $0x1,0x4(%esp)
 804d58a:	a1 40 13 05 08       	mov    0x8051340,%eax
 804d58f:	89 04 24             	mov    %eax,(%esp)
 804d592:	e8 a9 ba ff ff       	call   8049040 <__fprintf_chk@plt>
				/* section not found */
				fprintf(stderr, "%s:%d: section unknown '%s'\n",
						path, line, cp);
				ignore = 1;
 804d597:	c7 44 24 2c 01 00 00 00 	movl   $0x1,0x2c(%esp)
				continue;
 804d59f:	e9 f2 01 00 00       	jmp    804d796 <conf_load+0x408>
			}
			if (entry->type != CONF_TYPE(CONF_SECTION)) {
 804d5a4:	81 78 04 b0 11 05 08 	cmpl   $0x80511b0,0x4(%eax)
 804d5ab:	74 31                	je     804d5de <conf_load+0x250>
 804d5ad:	89 6c 24 14          	mov    %ebp,0x14(%esp)
 804d5b1:	8b 54 24 20          	mov    0x20(%esp),%edx
 804d5b5:	89 54 24 10          	mov    %edx,0x10(%esp)
 804d5b9:	8b 44 24 30          	mov    0x30(%esp),%eax
 804d5bd:	89 44 24 0c          	mov    %eax,0xc(%esp)
 804d5c1:	c7 44 24 08 d6 e0 04 08 	movl   $0x804e0d6,0x8(%esp)
 804d5c9:	c7 44 24 04 01 00 00 00 	movl   $0x1,0x4(%esp)
 804d5d1:	a1 40 13 05 08       	mov    0x8051340,%eax
 804d5d6:	89 04 24             	mov    %eax,(%esp)
 804d5d9:	e8 62 ba ff ff       	call   8049040 <__fprintf_chk@plt>
				fprintf(stderr, "%s:%d: not a section '%s'\n", path, line,
						cp);
				ignore = 1;
			}

			section = (struct conf_var *) entry->p;
 804d5de:	8b 5b 08             	mov    0x8(%ebx),%ebx
 804d5e1:	89 5c 24 3c          	mov    %ebx,0x3c(%esp)
			ignore = 0;
 804d5e5:	c7 44 24 2c 00 00 00 00 	movl   $0x0,0x2c(%esp)
			continue;
 804d5ed:	e9 a4 01 00 00       	jmp    804d796 <conf_load+0x408>
		}

		if (ignore)
 804d5f2:	83 7c 24 2c 00       	cmpl   $0x0,0x2c(%esp)
 804d5f7:	0f 85 99 01 00 00    	jne    804d796 <conf_load+0x408>

		#ifdef _CONF_DEBUG
		fprintf(stderr,"\t\tfor (ap = cp; (*cp != '\\0') && (*cp != '='); cp++);"
				"\t(*cp: %c, conf.c, 255)", *cp);
		#endif
		for (ap = cp; (*cp != '\0') && (*cp != '='); cp++);
 804d5fd:	84 c0                	test   %al,%al
 804d5ff:	74 17                	je     804d618 <conf_load+0x28a>
 804d601:	3c 3d                	cmp    $0x3d,%al
 804d603:	74 13                	je     804d618 <conf_load+0x28a>
 804d605:	89 d5                	mov    %edx,%ebp
 804d607:	83 c5 01             	add    $0x1,%ebp
 804d60a:	0f b6 45 00          	movzbl 0x0(%ebp),%eax
 804d60e:	84 c0                	test   %al,%al
 804d610:	74 08                	je     804d61a <conf_load+0x28c>
 804d612:	3c 3d                	cmp    $0x3d,%al
 804d614:	75 f1                	jne    804d607 <conf_load+0x279>
 804d616:	eb 02                	jmp    804d61a <conf_load+0x28c>
 804d618:	89 d5                	mov    %edx,%ebp

		#ifdef _CONF_DEBUG
		fprintf(stderr,"\n\t\tif (*cp == '\\0') {...}\t(cp: %p, *cp: %c)",cp,*cp);
		#endif
		if (*cp == '\0') {
 804d61a:	84 c0                	test   %al,%al
 804d61c:	8d 74 26 00          	lea    0x0(%esi,%eiz,1),%esi
 804d620:	75 32                	jne    804d654 <conf_load+0x2c6>
 804d622:	8b 54 24 20          	mov    0x20(%esp),%edx
 804d626:	89 54 24 10          	mov    %edx,0x10(%esp)
 804d62a:	8b 44 24 30          	mov    0x30(%esp),%eax
 804d62e:	89 44 24 0c          	mov    %eax,0xc(%esp)
 804d632:	c7 44 24 08 a4 e0 04 08 	movl   $0x804e0a4,0x8(%esp)
 804d63a:	c7 44 24 04 01 00 00 00 	movl   $0x1,0x4(%esp)
 804d642:	a1 40 13 05 08       	mov    0x8051340,%eax
 804d647:	89 04 24             	mov    %eax,(%esp)
 804d64a:	e8 f1 b9 ff ff       	call   8049040 <__fprintf_chk@plt>
			fprintf(stderr, "%s:%d: parse error.\n", path, line);
			continue;
 804d64f:	e9 42 01 00 00       	jmp    804d796 <conf_load+0x408>

		cp--;
		#ifdef _CONF_DEBUG
		fprintf(stderr,"\n\t\tcp--\t(cp: %p)\n\t*cp = '\\0';", cp);
		#endif
		*cp = '\0';
 804d654:	c6 45 ff 00          	movb   $0x0,-0x1(%ebp)
		cp++;
		cp++;
 804d658:	83 c5 01             	add    $0x1,%ebp
		#ifdef _CONF_DEBUG
		fprintf(stderr,"\n\t\tcp++;\n\tcp++;\t(cp: %p)\n", cp);
		#endif


		LTRIM(ap);
 804d65b:	0f b6 0e             	movzbl (%esi),%ecx
 804d65e:	0f be f1             	movsbl %cl,%esi
 804d661:	89 d0                	mov    %edx,%eax
 804d663:	f6 44 73 01 20       	testb  $0x20,0x1(%ebx,%esi,2)
 804d668:	74 18                	je     804d682 <conf_load+0x2f4>
 804d66a:	84 c9                	test   %cl,%cl
 804d66c:	74 14                	je     804d682 <conf_load+0x2f4>
 804d66e:	83 c0 01             	add    $0x1,%eax
 804d671:	0f b6 10             	movzbl (%eax),%edx
 804d674:	0f be ca             	movsbl %dl,%ecx
 804d677:	f6 44 4b 01 20       	testb  $0x20,0x1(%ebx,%ecx,2)
 804d67c:	74 04                	je     804d682 <conf_load+0x2f4>
 804d67e:	84 d2                	test   %dl,%dl
 804d680:	75 ec                	jne    804d66e <conf_load+0x2e0>
 804d682:	c7 44 24 08 00 02 00 00 	movl   $0x200,0x8(%esp)
 804d68a:	89 44 24 04          	mov    %eax,0x4(%esp)
		#ifdef _CONF_DEBUG
		fprintf(stderr,"\t\tLTRIM(ap);\t(ap: %p, *ap: %c)\n", ap, *ap);
		#endif
		strcpy(name, ap);
 804d68e:	8d 94 24 4c 04 00 00 	lea    0x44c(%esp),%edx
 804d695:	89 14 24             	mov    %edx,(%esp)
 804d698:	e8 f3 b8 ff ff       	call   8048f90 <__strcpy_chk@plt>
		#ifdef _CONF_DEBUG
		fprintf(stderr,"\t\tstrcpy(name, ap);\t(ap[]: %s\n", ap);
		#endif

		RTRIM(cp);
 804d69d:	89 ef                	mov    %ebp,%edi
 804d69f:	b8 00 00 00 00       	mov    $0x0,%eax
 804d6a4:	b9 ff ff ff ff       	mov    $0xffffffff,%ecx
 804d6a9:	f2 ae                	repnz scas %es:(%edi),%al
 804d6ab:	f7 d1                	not    %ecx
 804d6ad:	8d 44 0d fe          	lea    -0x2(%ebp,%ecx,1),%eax
 804d6b1:	39 c5                	cmp    %eax,%ebp
 804d6b3:	74 21                	je     804d6d6 <conf_load+0x348>
 804d6b5:	8b 54 24 24          	mov    0x24(%esp),%edx
 804d6b9:	8b 0a                	mov    (%edx),%ecx
 804d6bb:	0f be 10             	movsbl (%eax),%edx
 804d6be:	f6 44 51 01 20       	testb  $0x20,0x1(%ecx,%edx,2)
 804d6c3:	74 11                	je     804d6d6 <conf_load+0x348>
 804d6c5:	83 e8 01             	sub    $0x1,%eax
 804d6c8:	39 c5                	cmp    %eax,%ebp
 804d6ca:	74 0a                	je     804d6d6 <conf_load+0x348>
 804d6cc:	0f be 10             	movsbl (%eax),%edx
 804d6cf:	f6 44 51 01 20       	testb  $0x20,0x1(%ecx,%edx,2)
 804d6d4:	75 ef                	jne    804d6c5 <conf_load+0x337>
 804d6d6:	c6 40 01 00          	movb   $0x0,0x1(%eax)
 804d6da:	c7 44 24 08 00 02 00 00 	movl   $0x200,0x8(%esp)
 804d6e2:	89 6c 24 04          	mov    %ebp,0x4(%esp)
		strcpy(value, cp);
 804d6e6:	8d 84 24 4c 06 00 00 	lea    0x64c(%esp),%eax
 804d6ed:	89 04 24             	mov    %eax,(%esp)
 804d6f0:	e8 9b b8 ff ff       	call   8048f90 <__strcpy_chk@plt>
		#ifdef _CONF_DEBUG
		fprintf(stderr,"\t\tRTRIM(cp);\n\t\tstrcpy(value, cp);\t(cp[]: %s)\n",cp);
		#endif

		entry = var_lookup(section, name);
 804d6f5:	8d 84 24 4c 04 00 00 	lea    0x44c(%esp),%eax
 804d6fc:	89 44 24 04          	mov    %eax,0x4(%esp)
 804d700:	8b 54 24 3c          	mov    0x3c(%esp),%edx
 804d704:	89 14 24             	mov    %edx,(%esp)
 804d707:	e8 7f fb ff ff       	call   804d28b <var_lookup>
		#ifdef _CONF_DEBUG
		fprintf(stderr,"\t\tentry = var_lookup(section, name);\n");
		#endif

		if (entry == NULL) {
 804d70c:	85 c0                	test   %eax,%eax
 804d70e:	75 3a                	jne    804d74a <conf_load+0x3bc>
			fprintf(stderr, "%s:%d: symbol unknown '%s'\n", path, line, name);
 804d710:	8d 84 24 4c 04 00 00 	lea    0x44c(%esp),%eax
 804d717:	89 44 24 14          	mov    %eax,0x14(%esp)
 804d71b:	8b 54 24 20          	mov    0x20(%esp),%edx
 804d71f:	89 54 24 10          	mov    %edx,0x10(%esp)
 804d723:	8b 44 24 30          	mov    0x30(%esp),%eax
 804d727:	89 44 24 0c          	mov    %eax,0xc(%esp)
 804d72b:	c7 44 24 08 f1 e0 04 08 	movl   $0x804e0f1,0x8(%esp)
 804d733:	c7 44 24 04 01 00 00 00 	movl   $0x1,0x4(%esp)
 804d73b:	a1 40 13 05 08       	mov    0x8051340,%eax
 804d740:	89 04 24             	mov    %eax,(%esp)
 804d743:	e8 f8 b8 ff ff       	call   8049040 <__fprintf_chk@plt>
			continue;
 804d748:	eb 4c                	jmp    804d796 <conf_load+0x408>
		fprintf(stderr,"(entry: %p, entry->type: %p, entry->type->t_set: %p,"
				" value[]: %s)\n", entry, entry->type, entry->type->t_set, value);
		#endif

		/* set the variable */
		if (entry->type->t_set(entry, value))
 804d74a:	8b 50 04             	mov    0x4(%eax),%edx
 804d74d:	8d 8c 24 4c 06 00 00 	lea    0x64c(%esp),%ecx
 804d754:	89 4c 24 04          	mov    %ecx,0x4(%esp)
 804d758:	89 04 24             	mov    %eax,(%esp)
 804d75b:	ff 52 0c             	call   *0xc(%edx)
 804d75e:	85 c0                	test   %eax,%eax
 804d760:	74 07                	je     804d769 <conf_load+0x3db>
			count++;
 804d762:	83 44 24 34 01       	addl   $0x1,0x34(%esp)
 804d767:	eb 2d                	jmp    804d796 <conf_load+0x408>
 804d769:	8b 54 24 20          	mov    0x20(%esp),%edx
 804d76d:	89 54 24 10          	mov    %edx,0x10(%esp)
 804d771:	8b 44 24 30          	mov    0x30(%esp),%eax
 804d775:	89 44 24 0c          	mov    %eax,0xc(%esp)
 804d779:	c7 44 24 08 a4 e0 04 08 	movl   $0x804e0a4,0x8(%esp)
 804d781:	c7 44 24 04 01 00 00 00 	movl   $0x1,0x4(%esp)
 804d789:	a1 40 13 05 08       	mov    0x8051340,%eax
 804d78e:	89 04 24             	mov    %eax,(%esp)
 804d791:	e8 aa b8 ff ff       	call   8049040 <__fprintf_chk@plt>
	return __fgets_chk (__s, __bos (__s), __n, __stream);

      if ((size_t) __n > __bos (__s))
	return __fgets_chk_warn (__s, __bos (__s), __n, __stream);
    }
  return __fgets_alias (__s, __n, __stream);
 804d796:	8b 44 24 28          	mov    0x28(%esp),%eax
 804d79a:	89 44 24 08          	mov    %eax,0x8(%esp)
 804d79e:	c7 44 24 04 00 04 00 00 	movl   $0x400,0x4(%esp)
	fprintf(stderr,
			"\tif (!(f = fopen(path, \"r\"))) {\n\t\treturn -1;\n\t};\n"
			"\tsection = root;\n\twhile (fgets(buf, 1024, f)) {\n");
	#endif
	
	while (fgets(buf, 1024, f)) {
 804d7a6:	8d 54 24 4c          	lea    0x4c(%esp),%edx
 804d7aa:	89 14 24             	mov    %edx,(%esp)
 804d7ad:	e8 8e b5 ff ff       	call   8048d40 <fgets@plt>
 804d7b2:	85 c0                	test   %eax,%eax
 804d7b4:	0f 85 48 fc ff ff    	jne    804d402 <conf_load+0x74>
			fprintf(stderr, "%s:%d: parse error.\n", path, line);
		#ifdef _CONF_DEBUG
		fprintf(stderr,"\t\tif (entry->type->t_set(entry, value))\n");
		#endif
	}
	fclose(f);
 804d7ba:	8b 44 24 28          	mov    0x28(%esp),%eax
 804d7be:	89 04 24             	mov    %eax,(%esp)
 804d7c1:	e8 8a b5 ff ff       	call   8048d50 <fclose@plt>

	return count;
 804d7c6:	eb 08                	jmp    804d7d0 <conf_load+0x442>
			"path = %p \"%s\",\nroot = %p\n{\n",
			path, path, root);
	#endif

	if (!(f = fopen(path, "r"))) {
		return -1;
 804d7c8:	c7 44 24 34 ff ff ff ff 	movl   $0xffffffff,0x34(%esp)
		#endif
	}
	fclose(f);

	return count;
}
 804d7d0:	8b 44 24 34          	mov    0x34(%esp),%eax
 804d7d4:	8b 94 24 4c 08 00 00 	mov    0x84c(%esp),%edx
 804d7db:	65 33 15 14 00 00 00 	xor    %gs:0x14,%edx
 804d7e2:	74 05                	je     804d7e9 <conf_load+0x45b>
 804d7e4:	e8 c7 b5 ff ff       	call   8048db0 <__stack_chk_fail@plt>
 804d7e9:	81 c4 5c 08 00 00    	add    $0x85c,%esp
 804d7ef:	5b                   	pop    %ebx
 804d7f0:	5e                   	pop    %esi
 804d7f1:	5f                   	pop    %edi
 804d7f2:	5d                   	pop    %ebp
 804d7f3:	c3                   	ret    

0804d7f4 <conf_save>:

	return count;
}

int conf_save(const char *path, struct conf_var *root)
{
 804d7f4:	83 ec 1c             	sub    $0x1c,%esp
 804d7f7:	89 5c 24 14          	mov    %ebx,0x14(%esp)
 804d7fb:	89 74 24 18          	mov    %esi,0x18(%esp)
	FILE *f;
	int count;

	if (!(f = fopen(path, "w+"))) {
 804d7ff:	c7 44 24 04 0d e1 04 08 	movl   $0x804e10d,0x4(%esp)
 804d807:	8b 44 24 20          	mov    0x20(%esp),%eax
 804d80b:	89 04 24             	mov    %eax,(%esp)
 804d80e:	e8 2d b7 ff ff       	call   8048f40 <fopen@plt>
 804d813:	89 c3                	mov    %eax,%ebx
 804d815:	85 c0                	test   %eax,%eax
 804d817:	74 1a                	je     804d833 <conf_save+0x3f>
		return -1;
	};

	count = write_section(f, root, NULL);
 804d819:	b9 00 00 00 00       	mov    $0x0,%ecx
 804d81e:	8b 54 24 24          	mov    0x24(%esp),%edx
 804d822:	e8 93 f8 ff ff       	call   804d0ba <write_section>
 804d827:	89 c6                	mov    %eax,%esi

	fclose(f);
 804d829:	89 1c 24             	mov    %ebx,(%esp)
 804d82c:	e8 1f b5 ff ff       	call   8048d50 <fclose@plt>

	return count;
 804d831:	eb 05                	jmp    804d838 <conf_save+0x44>
{
	FILE *f;
	int count;

	if (!(f = fopen(path, "w+"))) {
		return -1;
 804d833:	be ff ff ff ff       	mov    $0xffffffff,%esi
	count = write_section(f, root, NULL);

	fclose(f);

	return count;
}
 804d838:	89 f0                	mov    %esi,%eax
 804d83a:	8b 5c 24 14          	mov    0x14(%esp),%ebx
 804d83e:	8b 74 24 18          	mov    0x18(%esp),%esi
 804d842:	83 c4 1c             	add    $0x1c,%esp
 804d845:	c3                   	ret    

0804d846 <conf_dump>:

int conf_dump(struct conf_var *root)
{
 804d846:	83 ec 0c             	sub    $0xc,%esp
	return write_section(stdout, root, NULL);
 804d849:	b9 00 00 00 00       	mov    $0x0,%ecx
 804d84e:	8b 54 24 10          	mov    0x10(%esp),%edx
 804d852:	a1 60 13 05 08       	mov    0x8051360,%eax
 804d857:	e8 5e f8 ff ff       	call   804d0ba <write_section>
}
 804d85c:	83 c4 0c             	add    $0xc,%esp
 804d85f:	c3                   	ret    

0804d860 <ipaddr_get>:
int ipaddr_get(struct conf_var *var, char *s)
{
	s = "";

	return 0;
}
 804d860:	b8 00 00 00 00       	mov    $0x0,%eax
 804d865:	c3                   	ret    

0804d866 <ipaddr_set>:

int ipaddr_set(struct conf_var *var, const char *s)
{
 804d866:	53                   	push   %ebx
 804d867:	83 ec 18             	sub    $0x18,%esp
 804d86a:	8b 5c 24 20          	mov    0x20(%esp),%ebx
	if (var->p == NULL) {
 804d86e:	83 7b 08 00          	cmpl   $0x0,0x8(%ebx)
 804d872:	75 0f                	jne    804d883 <ipaddr_set+0x1d>
		var->p = malloc(sizeof(unsigned int));
 804d874:	c7 04 24 04 00 00 00 	movl   $0x4,(%esp)
 804d87b:	e8 c0 b5 ff ff       	call   8048e40 <malloc@plt>
 804d880:	89 43 08             	mov    %eax,0x8(%ebx)
	}

	return 0;
}
 804d883:	b8 00 00 00 00       	mov    $0x0,%eax
 804d888:	83 c4 18             	add    $0x18,%esp
 804d88b:	5b                   	pop    %ebx
 804d88c:	c3                   	ret    

0804d88d <ipport_get>:
int ipport_get(struct conf_var *var, char *s)
{
	s = "";

	return 0;
}
 804d88d:	b8 00 00 00 00       	mov    $0x0,%eax
 804d892:	c3                   	ret    

0804d893 <ipport_set>:

int ipport_set(struct conf_var *var, const char *s)
{
 804d893:	53                   	push   %ebx
 804d894:	83 ec 18             	sub    $0x18,%esp
 804d897:	8b 5c 24 20          	mov    0x20(%esp),%ebx
	if (var->p == NULL) {
 804d89b:	83 7b 08 00          	cmpl   $0x0,0x8(%ebx)
 804d89f:	75 0f                	jne    804d8b0 <ipport_set+0x1d>
		var->p = malloc(sizeof(unsigned int));
 804d8a1:	c7 04 24 04 00 00 00 	movl   $0x4,(%esp)
 804d8a8:	e8 93 b5 ff ff       	call   8048e40 <malloc@plt>
 804d8ad:	89 43 08             	mov    %eax,0x8(%ebx)
	}

	return 0;
}
 804d8b0:	b8 00 00 00 00       	mov    $0x0,%eax
 804d8b5:	83 c4 18             	add    $0x18,%esp
 804d8b8:	5b                   	pop    %ebx
 804d8b9:	c3                   	ret    
 804d8ba:	90                   	nop
 804d8bb:	90                   	nop
 804d8bc:	90                   	nop
 804d8bd:	90                   	nop
 804d8be:	90                   	nop
 804d8bf:	90                   	nop

0804d8c0 <__libc_csu_init>:
 804d8c0:	55                   	push   %ebp
 804d8c1:	57                   	push   %edi
 804d8c2:	56                   	push   %esi
 804d8c3:	53                   	push   %ebx
 804d8c4:	e8 69 00 00 00       	call   804d932 <__i686.get_pc_thunk.bx>
 804d8c9:	81 c3 2b 37 00 00    	add    $0x372b,%ebx
 804d8cf:	83 ec 1c             	sub    $0x1c,%esp
 804d8d2:	8b 6c 24 30          	mov    0x30(%esp),%ebp
 804d8d6:	8d bb 18 ff ff ff    	lea    -0xe8(%ebx),%edi
 804d8dc:	e8 b3 b3 ff ff       	call   8048c94 <_init>
 804d8e1:	8d 83 18 ff ff ff    	lea    -0xe8(%ebx),%eax
 804d8e7:	29 c7                	sub    %eax,%edi
 804d8e9:	c1 ff 02             	sar    $0x2,%edi
 804d8ec:	85 ff                	test   %edi,%edi
 804d8ee:	74 29                	je     804d919 <__libc_csu_init+0x59>
 804d8f0:	31 f6                	xor    %esi,%esi
 804d8f2:	8d b6 00 00 00 00    	lea    0x0(%esi),%esi
 804d8f8:	8b 44 24 38          	mov    0x38(%esp),%eax
 804d8fc:	89 2c 24             	mov    %ebp,(%esp)
 804d8ff:	89 44 24 08          	mov    %eax,0x8(%esp)
 804d903:	8b 44 24 34          	mov    0x34(%esp),%eax
 804d907:	89 44 24 04          	mov    %eax,0x4(%esp)
 804d90b:	ff 94 b3 18 ff ff ff 	call   *-0xe8(%ebx,%esi,4)
 804d912:	83 c6 01             	add    $0x1,%esi
 804d915:	39 fe                	cmp    %edi,%esi
 804d917:	75 df                	jne    804d8f8 <__libc_csu_init+0x38>
 804d919:	83 c4 1c             	add    $0x1c,%esp
 804d91c:	5b                   	pop    %ebx
 804d91d:	5e                   	pop    %esi
 804d91e:	5f                   	pop    %edi
 804d91f:	5d                   	pop    %ebp
 804d920:	c3                   	ret    
 804d921:	eb 0d                	jmp    804d930 <__libc_csu_fini>
 804d923:	90                   	nop
 804d924:	90                   	nop
 804d925:	90                   	nop
 804d926:	90                   	nop
 804d927:	90                   	nop
 804d928:	90                   	nop
 804d929:	90                   	nop
 804d92a:	90                   	nop
 804d92b:	90                   	nop
 804d92c:	90                   	nop
 804d92d:	90                   	nop
 804d92e:	90                   	nop
 804d92f:	90                   	nop

0804d930 <__libc_csu_fini>:
 804d930:	f3 c3                	repz ret 

0804d932 <__i686.get_pc_thunk.bx>:
 804d932:	8b 1c 24             	mov    (%esp),%ebx
 804d935:	c3                   	ret    
 804d936:	90                   	nop
 804d937:	90                   	nop
 804d938:	90                   	nop
 804d939:	90                   	nop
 804d93a:	90                   	nop
 804d93b:	90                   	nop
 804d93c:	90                   	nop
 804d93d:	90                   	nop
 804d93e:	90                   	nop
 804d93f:	90                   	nop

0804d940 <__do_global_ctors_aux>:
 804d940:	55                   	push   %ebp
 804d941:	89 e5                	mov    %esp,%ebp
 804d943:	53                   	push   %ebx
 804d944:	83 ec 04             	sub    $0x4,%esp
 804d947:	a1 0c 0f 05 08       	mov    0x8050f0c,%eax
 804d94c:	83 f8 ff             	cmp    $0xffffffff,%eax
 804d94f:	74 13                	je     804d964 <__do_global_ctors_aux+0x24>
 804d951:	bb 0c 0f 05 08       	mov    $0x8050f0c,%ebx
 804d956:	66 90                	xchg   %ax,%ax
 804d958:	83 eb 04             	sub    $0x4,%ebx
 804d95b:	ff d0                	call   *%eax
 804d95d:	8b 03                	mov    (%ebx),%eax
 804d95f:	83 f8 ff             	cmp    $0xffffffff,%eax
 804d962:	75 f4                	jne    804d958 <__do_global_ctors_aux+0x18>
 804d964:	83 c4 04             	add    $0x4,%esp
 804d967:	5b                   	pop    %ebx
 804d968:	5d                   	pop    %ebp
 804d969:	c3                   	ret    
 804d96a:	90                   	nop
 804d96b:	90                   	nop

Disassembly of section .fini:

0804d96c <_fini>:
 804d96c:	53                   	push   %ebx
 804d96d:	83 ec 08             	sub    $0x8,%esp
 804d970:	e8 00 00 00 00       	call   804d975 <_fini+0x9>
 804d975:	5b                   	pop    %ebx
 804d976:	81 c3 7f 36 00 00    	add    $0x367f,%ebx
 804d97c:	e8 8f b7 ff ff       	call   8049110 <__do_global_dtors_aux>
 804d981:	83 c4 08             	add    $0x8,%esp
 804d984:	5b                   	pop    %ebx
 804d985:	c3                   	ret    

Disassembly of section .rodata:

0804d9a0 <_fp_hw>:
 804d9a0:	03 00                	add    (%eax),%eax
 804d9a2:	00 00                	add    %al,(%eax)

0804d9a4 <_IO_stdin_used>:
 804d9a4:	01 00                	add    %eax,(%eax)
 804d9a6:	02 00                	add    (%eax),%al
 804d9a8:	2a 20                	sub    (%eax),%ah
 804d9aa:	43                   	inc    %ebx
 804d9ab:	6c                   	insb   (%dx),%es:(%edi)
 804d9ac:	65                   	gs
 804d9ad:	61                   	popa   
 804d9ae:	6e                   	outsb  %ds:(%esi),(%dx)
 804d9af:	75 70                	jne    804da21 <_IO_stdin_used+0x7d>
 804d9b1:	00 0a                	add    %cl,(%edx)
 804d9b3:	2a 20                	sub    (%eax),%ah
 804d9b5:	53                   	push   %ebx
 804d9b6:	69 67 6e 61 6c 20 25 	imul   $0x25206c61,0x6e(%edi),%esp
 804d9bd:	64 0a 00             	or     %fs:(%eax),%al
 804d9c0:	2f                   	das    
 804d9c1:	74 6d                	je     804da30 <_IO_stdin_used+0x8c>
 804d9c3:	70 00                	jo     804d9c5 <_IO_stdin_used+0x21>
 804d9c5:	25 73 3a 20 00       	and    $0x203a73,%eax
 804d9ca:	54                   	push   %esp
 804d9cb:	52                   	push   %edx
 804d9cc:	41                   	inc    %ecx
 804d9cd:	43                   	inc    %ebx
 804d9ce:	45                   	inc    %ebp
 804d9cf:	3a 20                	cmp    (%eax),%ah
 804d9d1:	00 57 41             	add    %dl,0x41(%edi)
 804d9d4:	52                   	push   %edx
 804d9d5:	4e                   	dec    %esi
 804d9d6:	49                   	dec    %ecx
 804d9d7:	4e                   	dec    %esi
 804d9d8:	47                   	inc    %edi
 804d9d9:	3a 20                	cmp    (%eax),%ah
 804d9db:	00 6f 70             	add    %ch,0x70(%edi)
 804d9de:	65 6e                	outsb  %gs:(%esi),(%dx)
 804d9e0:	28 25 73 29 00 61    	sub    %ah,0x61002973
 804d9e6:	70 70                	jo     804da58 <_IO_stdin_used+0xb4>
 804d9e8:	5f                   	pop    %edi
 804d9e9:	63 6f 6e             	arpl   %bp,0x6e(%edi)
 804d9ec:	66 5f                	pop    %di
 804d9ee:	70 61                	jo     804da51 <_IO_stdin_used+0xad>
 804d9f0:	74 68                	je     804da5a <_IO_stdin_used+0xb6>
 804d9f2:	28 22                	sub    %ah,(%edx)
 804d9f4:	25 73 22 29 00       	and    $0x292273,%eax
 804d9f9:	61                   	popa   
 804d9fa:	70 70                	jo     804da6c <_IO_stdin_used+0xc8>
 804d9fc:	6c                   	insb   (%dx),%es:(%edi)
 804d9fd:	69 63 61 74 69 6f 6e 	imul   $0x6e6f6974,0x61(%ebx),%esp
 804da04:	00 55 73             	add    %dl,0x73(%ebp)
 804da07:	61                   	popa   
 804da08:	67 65 3a 20          	cmp    %gs:(%bx,%si),%ah
 804da0c:	25 73 20 5b 4f       	and    $0x4f5b2073,%eax
 804da11:	50                   	push   %eax
 804da12:	54                   	push   %esp
 804da13:	49                   	dec    %ecx
 804da14:	4f                   	dec    %edi
 804da15:	4e                   	dec    %esi
 804da16:	2e                   	cs
 804da17:	2e                   	cs
 804da18:	2e                   	cs
 804da19:	5d                   	pop    %ebp
 804da1a:	0a 00                	or     (%eax),%al
 804da1c:	20 20                	and    %ah,(%eax)
 804da1e:	2d 76 20 20 09       	sub    $0x9202076,%eax
 804da23:	53                   	push   %ebx
 804da24:	68 6f 77 20 76       	push   $0x7620776f
 804da29:	65                   	gs
 804da2a:	72 73                	jb     804da9f <_IO_stdin_used+0xfb>
 804da2c:	69 6f 6e 0a 00 25 73 	imul   $0x7325000a,0x6e(%edi),%ebp
 804da33:	3a 20                	cmp    (%eax),%ah
 804da35:	69 6e 76 61 6c 69 64 	imul   $0x64696c61,0x76(%esi),%ebp
 804da3c:	20 6f 70             	and    %ch,0x70(%edi)
 804da3f:	74 69                	je     804daaa <_IO_stdin_used+0x106>
 804da41:	6f                   	outsl  %ds:(%esi),(%dx)
 804da42:	6e                   	outsb  %ds:(%esi),(%dx)
 804da43:	20 22                	and    %ah,(%edx)
 804da45:	25 73 22 0a 00       	and    $0xa2273,%eax
 804da4a:	76 68                	jbe    804dab4 <_IO_stdin_used+0x110>
 804da4c:	64 6e                	outsb  %fs:(%esi),(%dx)
 804da4e:	00 73 79             	add    %dh,0x79(%ebx)
 804da51:	73 74                	jae    804dac7 <_IO_stdin_used+0x123>
 804da53:	65                   	gs
 804da54:	6d                   	insl   (%dx),%es:(%edi)
 804da55:	5f                   	pop    %edi
 804da56:	69 6e 69 74 28 29 20 	imul   $0x20292874,0x69(%esi),%ebp
 804da5d:	66 61                	popaw  
 804da5f:	69 6c 21 00 73 79 73 74 	imul   $0x74737973,0x0(%ecx,%eiz,1),%ebp
 804da67:	65                   	gs
 804da68:	6d                   	insl   (%dx),%es:(%edi)
 804da69:	5f                   	pop    %edi
 804da6a:	6c                   	insb   (%dx),%es:(%edi)
 804da6b:	6f                   	outsl  %ds:(%esi),(%dx)
 804da6c:	61                   	popa   
 804da6d:	64                   	fs
 804da6e:	5f                   	pop    %edi
 804da6f:	63 6f 6e             	arpl   %bp,0x6e(%edi)
 804da72:	66 69 67 28 29 20    	imul   $0x2029,0x28(%edi),%sp
 804da78:	66 61                	popaw  
 804da7a:	69 6c 21 00 63 74 72 6c 	imul   $0x6c727463,0x0(%ecx,%eiz,1),%ebp
 804da82:	5f                   	pop    %edi
 804da83:	73 74                	jae    804daf9 <_IO_stdin_used+0x155>
 804da85:	61                   	popa   
 804da86:	72 74                	jb     804dafc <_IO_stdin_used+0x158>
 804da88:	28 25 73 29 20 66    	sub    %ah,0x66202973
 804da8e:	61                   	popa   
 804da8f:	69 6c 21 00 73 65 72 76 	imul   $0x76726573,0x0(%ecx,%eiz,1),%ebp
 804da97:	65                   	gs
 804da98:	72 5f                	jb     804daf9 <_IO_stdin_used+0x155>
 804da9a:	73 74                	jae    804db10 <_IO_stdin_used+0x16c>
 804da9c:	61                   	popa   
 804da9d:	72 74                	jb     804db13 <_IO_stdin_used+0x16f>
 804da9f:	28 29                	sub    %ch,(%ecx)
 804daa1:	20 66 61             	and    %ah,0x61(%esi)
 804daa4:	69 6c 21 00 74 61 73 6b 	imul   $0x6b736174,0x0(%ecx,%eiz,1),%ebp
 804daac:	73 5f                	jae    804db0d <_IO_stdin_used+0x169>
 804daae:	73 74                	jae    804db24 <_IO_stdin_used+0x180>
 804dab0:	61                   	popa   
 804dab1:	72 74                	jb     804db27 <_IO_stdin_used+0x183>
 804dab3:	28 29                	sub    %ch,(%ecx)
 804dab5:	20 66 61             	and    %ah,0x61(%esi)
 804dab8:	69 6c 21 00 74 69 63 6b 	imul   $0x6b636974,0x0(%ecx,%eiz,1),%ebp
 804dac0:	00 74 61 63          	add    %dh,0x63(%ecx,%eiz,2)
 804dac4:	6b 00 6c             	imul   $0x6c,(%eax),%eax
 804dac7:	6f                   	outsl  %ds:(%esi),(%dx)
 804dac8:	67 00 68 61          	add    %ch,0x61(%bx,%si)
 804dacc:	62 69 6c             	bound  %ebp,0x6c(%ecx)
 804dacf:	69 74 61 64 6f 00 2f 6f 	imul   $0x6f2f006f,0x64(%ecx,%eiz,2),%esi
 804dad7:	70 74                	jo     804db4d <_IO_stdin_used+0x1a9>
 804dad9:	2f                   	das    
 804dada:	61                   	popa   
 804dadb:	70 70                	jo     804db4d <_IO_stdin_used+0x1a9>
 804dadd:	2e 69 6e 69 00 2f 74 6d 	imul   $0x6d742f00,%cs:0x69(%esi),%ebp
 804dae5:	70 2f                	jo     804db16 <_IO_stdin_used+0x172>
 804dae7:	61                   	popa   
 804dae8:	70 70                	jo     804db5a <_IO_stdin_used+0x1b6>
 804daea:	2e 66 69 66 6f 00 2f 	imul   $0x2f00,%cs:0x6f(%esi),%sp
 804daf1:	76 61                	jbe    804db54 <_IO_stdin_used+0x1b0>
 804daf3:	72 2f                	jb     804db24 <_IO_stdin_used+0x180>
 804daf5:	72 75                	jb     804db6c <_IO_stdin_used+0x1c8>
 804daf7:	6e                   	outsb  %ds:(%esi),(%dx)
 804daf8:	2f                   	das    
 804daf9:	61                   	popa   
 804dafa:	70 70                	jo     804db6c <_IO_stdin_used+0x1c8>
 804dafc:	2e 70 69             	jo,pn  804db68 <_IO_stdin_used+0x1c4>
 804daff:	64 00 00             	add    %al,%fs:(%eax)
 804db02:	00 00                	add    %al,(%eax)
 804db04:	25 73 20 25 64       	and    $0x64252073,%eax
 804db09:	2e                   	cs
 804db0a:	25 64 20 28 62       	and    $0x62282064,%eax
 804db0f:	75 69                	jne    804db7a <_IO_stdin_used+0x1d6>
 804db11:	6c                   	insb   (%dx),%es:(%edi)
 804db12:	74 20                	je     804db34 <_IO_stdin_used+0x190>
 804db14:	6f                   	outsl  %ds:(%esi),(%dx)
 804db15:	6e                   	outsb  %ds:(%esi),(%dx)
 804db16:	20 4f 63             	and    %cl,0x63(%edi)
 804db19:	74 20                	je     804db3b <_IO_stdin_used+0x197>
 804db1b:	20 37                	and    %dh,(%edi)
 804db1d:	20 32                	and    %dh,(%edx)
 804db1f:	30 31                	xor    %dh,(%ecx)
 804db21:	34 20                	xor    $0x20,%al
 804db23:	31 37                	xor    %esi,(%edi)
 804db25:	3a 32                	cmp    (%edx),%dh
 804db27:	32 3a                	xor    (%edx),%bh
 804db29:	34 39                	xor    $0x39,%al
 804db2b:	29 0a                	sub    %ecx,(%edx)
 804db2d:	00 00                	add    %al,(%eax)
 804db2f:	00 20                	add    %ah,(%eax)
 804db31:	20 2d 68 20 20 09    	and    %ch,0x9202068
 804db37:	53                   	push   %ebx
 804db38:	68 6f 77 20 74       	push   $0x7420776f
 804db3d:	68 69 73 20 68       	push   $0x68207369
 804db42:	65                   	gs
 804db43:	6c                   	insb   (%dx),%es:(%edi)
 804db44:	70 20                	jo     804db66 <_IO_stdin_used+0x1c2>
 804db46:	6d                   	insl   (%dx),%es:(%edi)
 804db47:	65                   	gs
 804db48:	73 73                	jae    804dbbd <_IO_stdin_used+0x219>
 804db4a:	61                   	popa   
 804db4b:	67 65 0a 00          	or     %gs:(%bx,%si),%al
 804db4f:	00 20                	add    %ah,(%eax)
 804db51:	20 2d 6e 20 20 09    	and    %ch,0x920206e
 804db57:	70 72                	jo     804dbcb <_IO_stdin_used+0x227>
 804db59:	65                   	gs
 804db5a:	76 65                	jbe    804dbc1 <_IO_stdin_used+0x21d>
 804db5c:	6e                   	outsb  %ds:(%esi),(%dx)
 804db5d:	74 20                	je     804db7f <_IO_stdin_used+0x1db>
 804db5f:	74 68                	je     804dbc9 <_IO_stdin_used+0x225>
 804db61:	65 20 70 72          	and    %dh,%gs:0x72(%eax)
 804db65:	6f                   	outsl  %ds:(%esi),(%dx)
 804db66:	63 65 73             	arpl   %sp,0x73(%ebp)
 804db69:	73 20                	jae    804db8b <_IO_stdin_used+0x1e7>
 804db6b:	66                   	data16
 804db6c:	72 6f                	jb     804dbdd <_IO_stdin_used+0x239>
 804db6e:	6d                   	insl   (%dx),%es:(%edi)
 804db6f:	20 72 75             	and    %dh,0x75(%edx)
 804db72:	6e                   	outsb  %ds:(%esi),(%dx)
 804db73:	6e                   	outsb  %ds:(%esi),(%dx)
 804db74:	69 6e 67 20 61 73 20 	imul   $0x20736120,0x67(%esi),%ebp
 804db7b:	61                   	popa   
 804db7c:	20 64 61 65          	and    %ah,0x65(%ecx,%eiz,2)
 804db80:	6d                   	insl   (%dx),%es:(%edi)
 804db81:	6f                   	outsl  %ds:(%esi),(%dx)
 804db82:	6e                   	outsb  %ds:(%esi),(%dx)
 804db83:	0a 00                	or     (%eax),%al
 804db85:	00 00                	add    %al,(%eax)
 804db87:	00 2d 2d 2d 2d 2d    	add    %ch,0x2d2d2d2d
 804db8d:	2d 2d 2d 2d 2d       	sub    $0x2d2d2d2d,%eax
 804db92:	2d 2d 2d 2d 2d       	sub    $0x2d2d2d2d,%eax
 804db97:	2d 2d 2d 2d 2d       	sub    $0x2d2d2d2d,%eax
 804db9c:	2d 2d 2d 2d 2d       	sub    $0x2d2d2d2d,%eax
 804dba1:	2d 2d 2d 2d 2d       	sub    $0x2d2d2d2d,%eax
 804dba6:	2d 2d 2d 2d 2d       	sub    $0x2d2d2d2d,%eax
 804dbab:	2d 2d 2d 2d 2d       	sub    $0x2d2d2d2d,%eax
 804dbb0:	2d 2d 2d 2d 2d       	sub    $0x2d2d2d2d,%eax
 804dbb5:	2d 2d 2d 2d 2d       	sub    $0x2d2d2d2d,%eax
 804dbba:	2d 2d 2d 2d 2d       	sub    $0x2d2d2d2d,%eax
 804dbbf:	2d 2d 2d 00 00       	sub    $0x2d2d,%eax
 804dbc4:	20 25 73 20 25 64    	and    %ah,0x64252073
 804dbca:	2e                   	cs
 804dbcb:	25 64 20 28 62       	and    $0x62282064,%eax
 804dbd0:	75 69                	jne    804dc3b <__FUNCTION__.5306+0x25>
 804dbd2:	6c                   	insb   (%dx),%es:(%edi)
 804dbd3:	74 20                	je     804dbf5 <__FUNCTION__.5273+0x6>
 804dbd5:	6f                   	outsl  %ds:(%esi),(%dx)
 804dbd6:	6e                   	outsb  %ds:(%esi),(%dx)
 804dbd7:	20 4f 63             	and    %cl,0x63(%edi)
 804dbda:	74 20                	je     804dbfc <__FUNCTION__.5273+0xd>
 804dbdc:	20 37                	and    %dh,(%edi)
 804dbde:	20 32                	and    %dh,(%edx)
 804dbe0:	30 31                	xor    %dh,(%ecx)
 804dbe2:	34 20                	xor    $0x20,%al
 804dbe4:	31 37                	xor    %esi,(%edi)
 804dbe6:	3a 32                	cmp    (%edx),%dh
 804dbe8:	32 3a                	xor    (%edx),%bh
 804dbea:	34 39                	xor    $0x39,%al
 804dbec:	29 0a                	sub    %ecx,(%edx)
 804dbee:	00 61 70             	add    %ah,0x70(%ecx)

0804dbef <__FUNCTION__.5273>:
 804dbef:	61                   	popa   
 804dbf0:	70 70                	jo     804dc62 <__FUNCTION__.5306+0x4c>
 804dbf2:	5f                   	pop    %edi
 804dbf3:	73 79                	jae    804dc6e <__FUNCTION__.5306+0x58>
 804dbf5:	73 74                	jae    804dc6b <__FUNCTION__.5306+0x55>
 804dbf7:	65                   	gs
 804dbf8:	6d                   	insl   (%dx),%es:(%edi)
 804dbf9:	5f                   	pop    %edi
 804dbfa:	69 6e 69 74 00 61 70 	imul   $0x70610074,0x69(%esi),%ebp

0804dbff <__FUNCTION__.5277>:
 804dbff:	61                   	popa   
 804dc00:	70 70                	jo     804dc72 <__FUNCTION__.5306+0x5c>
 804dc02:	5f                   	pop    %edi
 804dc03:	73 79                	jae    804dc7e <__FUNCTION__.5306+0x68>
 804dc05:	73 74                	jae    804dc7b <__FUNCTION__.5306+0x65>
 804dc07:	65                   	gs
 804dc08:	6d                   	insl   (%dx),%es:(%edi)
 804dc09:	5f                   	pop    %edi
 804dc0a:	6c                   	insb   (%dx),%es:(%edi)
 804dc0b:	6f                   	outsl  %ds:(%esi),(%dx)
 804dc0c:	61                   	popa   
 804dc0d:	64                   	fs
 804dc0e:	5f                   	pop    %edi
 804dc0f:	63 6f 6e             	arpl   %bp,0x6e(%edi)
 804dc12:	66 69 67 00 6d 61    	imul   $0x616d,0x0(%edi),%sp

0804dc16 <__FUNCTION__.5306>:
 804dc16:	6d                   	insl   (%dx),%es:(%edi)
 804dc17:	61                   	popa   
 804dc18:	69 6e 00 75 73 61 67 	imul   $0x67617375,0x0(%esi),%ebp
 804dc1f:	65 3a 20             	cmp    %gs:(%eax),%ah
 804dc22:	25 73 20 25 73       	and    $0x73252073,%eax
 804dc27:	0a 00                	or     (%eax),%al
 804dc29:	25 73 2e 0a 00       	and    $0xa2e73,%eax
 804dc2e:	20 25 2d 31 32 73    	and    %ah,0x7332312d
 804dc34:	20 25 73 0a 00 42    	and    %ah,0x42000a73
 804dc3a:	79 65                	jns    804dca1 <__FUNCTION__.5306+0x8b>
 804dc3c:	2e 2e 2e 00 43 6f    	cs cs add %al,%cs:0x6f(%ebx)
 804dc42:	6d                   	insl   (%dx),%es:(%edi)
 804dc43:	6d                   	insl   (%dx),%es:(%edi)
 804dc44:	61                   	popa   
 804dc45:	6e                   	outsb  %ds:(%esi),(%dx)
 804dc46:	64 20 69 6e          	and    %ch,%fs:0x6e(%ecx)
 804dc4a:	76 61                	jbe    804dcad <__FUNCTION__.5306+0x97>
 804dc4c:	6c                   	insb   (%dx),%es:(%edi)
 804dc4d:	69 64 2e 20 54 79 70 65 	imul   $0x65707954,0x20(%esi,%ebp,1),%esp
 804dc55:	20 27                	and    %ah,(%edi)
 804dc57:	68 65 6c 70 27       	push   $0x27706c65
 804dc5c:	2e 00 6d 6f          	add    %ch,%cs:0x6f(%ebp)
 804dc60:	73 74                	jae    804dcd6 <cmd_tab+0x16>
 804dc62:	72 61                	jb     804dcc5 <cmd_tab+0x5>
 804dc64:	72 20                	jb     804dc86 <__FUNCTION__.5306+0x70>
 804dc66:	65                   	gs
 804dc67:	73 73                	jae    804dcdc <cmd_tab+0x1c>
 804dc69:	61                   	popa   
 804dc6a:	20 6d 65             	and    %ch,0x65(%ebp)
 804dc6d:	6e                   	outsb  %ds:(%esi),(%dx)
 804dc6e:	73 61                	jae    804dcd1 <cmd_tab+0x11>
 804dc70:	67                   	addr16
 804dc71:	65                   	gs
 804dc72:	6d                   	insl   (%dx),%es:(%edi)
 804dc73:	20 64 65 20          	and    %ah,0x20(%ebp,%eiz,2)
 804dc77:	68 65 6c 70 00       	push   $0x706c65
 804dc7c:	65 6e                	outsb  %gs:(%esi),(%dx)
 804dc7e:	63 65 72             	arpl   %sp,0x72(%ebp)
 804dc81:	72 61                	jb     804dce4 <cmd_tab+0x24>
 804dc83:	72 20                	jb     804dca5 <__FUNCTION__.5306+0x8f>
 804dc85:	61                   	popa   
 804dc86:	20 61 70             	and    %ah,0x70(%ecx)
 804dc89:	6c                   	insb   (%dx),%es:(%edi)
 804dc8a:	69 63 61 63 61 6f 00 	imul   $0x6f6163,0x61(%ebx),%esp
 804dc91:	65                   	gs
 804dc92:	78 69                	js     804dcfd <cmd_tab+0x3d>
 804dc94:	62 69 72             	bound  %ebp,0x72(%ecx)
 804dc97:	20 61 20             	and    %ah,0x20(%ecx)
 804dc9a:	76 65                	jbe    804dd01 <cmd_tab+0x41>
 804dc9c:	72 73                	jb     804dd11 <cmd_tab+0x51>
 804dc9e:	61                   	popa   
 804dc9f:	6f                   	outsl  %ds:(%esi),(%dx)
 804dca0:	20 64 6f 20          	and    %ah,0x20(%edi,%ebp,2)
 804dca4:	61                   	popa   
 804dca5:	70 6c                	jo     804dd13 <cmd_tab+0x53>
 804dca7:	69 63 61 74 69 76 6f 	imul   $0x6f766974,0x61(%ebx),%esp
 804dcae:	00 00                	add    %al,(%eax)
 804dcb0:	00 00                	add    %al,(%eax)
 804dcb2:	00 00                	add    %al,(%eax)
 804dcb4:	00 00                	add    %al,(%eax)
 804dcb6:	00 00                	add    %al,(%eax)
 804dcb8:	00 00                	add    %al,(%eax)
 804dcba:	00 00                	add    %al,(%eax)
 804dcbc:	00 00                	add    %al,(%eax)
 804dcbe:	00 00                	add    %al,(%eax)

0804dcc0 <cmd_tab>:
 804dcc0:	20 9c 04 08 68 65 6c 	and    %bl,0x6c656808(%esp,%eax,1)
 804dcc7:	70 00                	jo     804dcc9 <cmd_tab+0x9>
 804dcc9:	00 00                	add    %al,(%eax)
 804dccb:	00 00                	add    %al,(%eax)
 804dccd:	00 00                	add    %al,(%eax)
 804dccf:	00 00                	add    %al,(%eax)
 804dcd1:	00 00                	add    %al,(%eax)
 804dcd3:	00 49 da             	add    %cl,-0x26(%ecx)
 804dcd6:	04 08                	add    $0x8,%al
 804dcd8:	5e                   	pop    %esi
 804dcd9:	dc 04 08             	faddl  (%eax,%ecx,1)
 804dcdc:	83 9d 04 08 71 75 69 	sbbl   $0x69,0x75710804(%ebp)
 804dce3:	74 00                	je     804dce5 <cmd_tab+0x25>
 804dce5:	00 00                	add    %al,(%eax)
 804dce7:	00 00                	add    %al,(%eax)
 804dce9:	00 00                	add    %al,(%eax)
 804dceb:	00 00                	add    %al,(%eax)
 804dced:	00 00                	add    %al,(%eax)
 804dcef:	00 49 da             	add    %cl,-0x26(%ecx)
 804dcf2:	04 08                	add    $0x8,%al
 804dcf4:	7c dc                	jl     804dcd2 <cmd_tab+0x12>
 804dcf6:	04 08                	add    $0x8,%al
 804dcf8:	42                   	inc    %edx
 804dcf9:	9d                   	popf   
 804dcfa:	04 08                	add    $0x8,%al
 804dcfc:	76 65                	jbe    804dd63 <cmd_tab+0xa3>
 804dcfe:	72 00                	jb     804dd00 <cmd_tab+0x40>
 804dd00:	00 00                	add    %al,(%eax)
 804dd02:	00 00                	add    %al,(%eax)
 804dd04:	00 00                	add    %al,(%eax)
 804dd06:	00 00                	add    %al,(%eax)
 804dd08:	00 00                	add    %al,(%eax)
 804dd0a:	00 00                	add    %al,(%eax)
 804dd0c:	49                   	dec    %ecx
 804dd0d:	da 04 08             	fiaddl (%eax,%ecx,1)
 804dd10:	91                   	xchg   %eax,%ecx
 804dd11:	dc 04 08             	faddl  (%eax,%ecx,1)
 804dd14:	00 00                	add    %al,(%eax)
 804dd16:	00 00                	add    %al,(%eax)
 804dd18:	00 00                	add    %al,(%eax)
 804dd1a:	00 00                	add    %al,(%eax)
 804dd1c:	00 00                	add    %al,(%eax)
 804dd1e:	00 00                	add    %al,(%eax)
 804dd20:	00 00                	add    %al,(%eax)
 804dd22:	00 00                	add    %al,(%eax)
 804dd24:	00 00                	add    %al,(%eax)
 804dd26:	00 00                	add    %al,(%eax)
 804dd28:	00 00                	add    %al,(%eax)
 804dd2a:	00 00                	add    %al,(%eax)
 804dd2c:	00 00                	add    %al,(%eax)
 804dd2e:	00 00                	add    %al,(%eax)
 804dd30:	50                   	push   %eax
 804dd31:	49                   	dec    %ecx
 804dd32:	44                   	inc    %esp
 804dd33:	3a 20                	cmp    (%eax),%ah
 804dd35:	25 64 2c 20 50       	and    $0x50202c64,%eax
 804dd3a:	50                   	push   %eax
 804dd3b:	49                   	dec    %ecx
 804dd3c:	44                   	inc    %esp
 804dd3d:	3a 20                	cmp    (%eax),%ah
 804dd3f:	25 64 00 63 61       	and    $0x61630064,%eax
 804dd44:	6e                   	outsb  %ds:(%esi),(%dx)
 804dd45:	27                   	daa    
 804dd46:	74 20                	je     804dd68 <cmd_tab+0xa8>
 804dd48:	6f                   	outsl  %ds:(%esi),(%dx)
 804dd49:	70 65                	jo     804ddb0 <cmd_tab+0xf0>
 804dd4b:	6e                   	outsb  %ds:(%esi),(%dx)
 804dd4c:	20 70 69             	and    %dh,0x69(%eax)
 804dd4f:	70 65                	jo     804ddb6 <__FUNCTION__.4825>
 804dd51:	3a 20                	cmp    (%eax),%ah
 804dd53:	25 73 00 63 6d       	and    $0x6d630073,%eax
 804dd58:	64                   	fs
 804dd59:	5f                   	pop    %edi
 804dd5a:	65                   	gs
 804dd5b:	78 65                	js     804ddc2 <__FUNCTION__.4817+0x1>
 804dd5d:	63 28                	arpl   %bp,(%eax)
 804dd5f:	25 73 29 20 66       	and    $0x66202973,%eax
 804dd64:	61                   	popa   
 804dd65:	69 6c 00 72 65 61 64 28 	imul   $0x28646165,0x72(%eax,%eax,1),%ebp
 804dd6d:	29 3a                	sub    %edi,(%edx)
 804dd6f:	20 6e 3d             	and    %ch,0x3d(%esi)
 804dd72:	25 64 00 6d 6b       	and    $0x6b6d0064,%eax
 804dd77:	66 69 66 6f 28 25    	imul   $0x2528,0x6f(%esi),%sp
 804dd7d:	73 29                	jae    804dda8 <cmd_tab+0xe8>
 804dd7f:	2e 2e 2e 00 63 61    	cs cs add %ah,%cs:0x61(%ebx)
 804dd85:	6e                   	outsb  %ds:(%esi),(%dx)
 804dd86:	27                   	daa    
 804dd87:	74 20                	je     804dda9 <cmd_tab+0xe9>
 804dd89:	63 72 65             	arpl   %si,0x65(%edx)
 804dd8c:	61                   	popa   
 804dd8d:	74 65                	je     804ddf4 <__FUNCTION__.4830+0x29>
 804dd8f:	20 70 69             	and    %dh,0x69(%eax)
 804dd92:	70 65                	jo     804ddf9 <__FUNCTION__.4830+0x2e>
 804dd94:	3a 20                	cmp    (%eax),%ah
 804dd96:	25 73 00 70 74       	and    $0x74700073,%eax
 804dd9b:	68 72 65 61 64       	push   $0x64616572
 804dda0:	5f                   	pop    %edi
 804dda1:	63 72 65             	arpl   %si,0x65(%edx)
 804dda4:	61                   	popa   
 804dda5:	74 65                	je     804de0c <__FUNCTION__.4830+0x41>
 804dda7:	28 29                	sub    %ch,(%ecx)
 804dda9:	2e 2e 2e 00 62 79    	cs cs add %ah,%cs:0x79(%edx)
 804ddaf:	65                   	gs
 804ddb0:	2d 62 79 65 21       	sub    $0x21657962,%eax
 804ddb5:	00 63 74             	add    %ah,0x74(%ebx)

0804ddb6 <__FUNCTION__.4825>:
 804ddb6:	63 74 72 6c          	arpl   %si,0x6c(%edx,%esi,2)
 804ddba:	5f                   	pop    %edi
 804ddbb:	73 74                	jae    804de31 <__FUNCTION__.4830+0x66>
 804ddbd:	61                   	popa   
 804ddbe:	72 74                	jb     804de34 <__FUNCTION__.4830+0x69>
 804ddc0:	00 63 74             	add    %ah,0x74(%ebx)

0804ddc1 <__FUNCTION__.4817>:
 804ddc1:	63 74 72 6c          	arpl   %si,0x6c(%edx,%esi,2)
 804ddc5:	5f                   	pop    %edi
 804ddc6:	74 61                	je     804de29 <__FUNCTION__.4830+0x5e>
 804ddc8:	73 6b                	jae    804de35 <__FUNCTION__.4830+0x6a>
 804ddca:	00 63 74             	add    %ah,0x74(%ebx)

0804ddcb <__FUNCTION__.4830>:
 804ddcb:	63 74 72 6c          	arpl   %si,0x6c(%edx,%esi,2)
 804ddcf:	5f                   	pop    %edi
 804ddd0:	73 74                	jae    804de46 <__FUNCTION__.4830+0x7b>
 804ddd2:	6f                   	outsl  %ds:(%esi),(%dx)
 804ddd3:	70 00                	jo     804ddd5 <__FUNCTION__.4830+0xa>
 804ddd5:	24 25                	and    $0x25,%al
 804ddd7:	73 2c                	jae    804de05 <__FUNCTION__.4830+0x3a>
 804ddd9:	25 73 0a 00 24       	and    $0x24000a73,%eax
 804ddde:	25 73 0a 00 25       	and    $0x25000a73,%eax
 804dde3:	64                   	fs
 804dde4:	2c 25                	sub    $0x25,%al
 804dde6:	64 00 56 45          	add    %dl,%fs:0x45(%esi)
 804ddea:	52                   	push   %edx
 804ddeb:	00 54 31 52          	add    %dl,0x52(%ecx,%esi,1)
 804ddef:	55                   	push   %ebp
 804ddf0:	4e                   	dec    %esi
 804ddf1:	00 54 31 53          	add    %dl,0x53(%ecx,%esi,1)
 804ddf5:	54                   	push   %esp
 804ddf6:	4f                   	dec    %edi
 804ddf7:	50                   	push   %eax
 804ddf8:	00 54 32 52          	add    %dl,0x52(%edx,%esi,1)
 804ddfc:	55                   	push   %ebp
 804ddfd:	4e                   	dec    %esi
 804ddfe:	00 54 32 53          	add    %dl,0x53(%edx,%esi,1)
 804de02:	54                   	push   %esp
 804de03:	4f                   	dec    %edi
 804de04:	50                   	push   %eax
 804de05:	00 54 32 54          	add    %dl,0x54(%edx,%esi,1)
 804de09:	49                   	dec    %ecx
 804de0a:	4d                   	dec    %ebp
 804de0b:	45                   	inc    %ebp
 804de0c:	52                   	push   %edx
 804de0d:	00 0a                	add    %cl,(%edx)
 804de0f:	44                   	inc    %esp
 804de10:	65                   	gs
 804de11:	73 63                	jae    804de76 <__FUNCTION__.4830+0xab>
 804de13:	6f                   	outsl  %ds:(%esi),(%dx)
 804de14:	6e                   	outsb  %ds:(%esi),(%dx)
 804de15:	65 63 74 61 64       	arpl   %si,%gs:0x64(%ecx,%eiz,2)
 804de1a:	6f                   	outsl  %ds:(%esi),(%dx)
 804de1b:	20 64 6f 20          	and    %ah,0x20(%edi,%ebp,2)
 804de1f:	63 6c 69 65          	arpl   %bp,0x65(%ecx,%ebp,2)
 804de23:	6e                   	outsb  %ds:(%esi),(%dx)
 804de24:	74 00                	je     804de26 <__FUNCTION__.4830+0x5b>
 804de26:	45                   	inc    %ebp
 804de27:	52                   	push   %edx
 804de28:	52                   	push   %edx
 804de29:	4f                   	dec    %edi
 804de2a:	52                   	push   %edx
 804de2b:	3a 20                	cmp    (%eax),%ah
 804de2d:	00 43 6f             	add    %al,0x6f(%ebx)
 804de30:	6d                   	insl   (%dx),%es:(%edi)
 804de31:	6d                   	insl   (%dx),%es:(%edi)
 804de32:	61                   	popa   
 804de33:	6e                   	outsb  %ds:(%esi),(%dx)
 804de34:	64 20 22             	and    %ah,%fs:(%edx)
 804de37:	25 73 22 20 75       	and    $0x75202273,%eax
 804de3c:	6e                   	outsb  %ds:(%esi),(%dx)
 804de3d:	6b 6e 6f 77          	imul   $0x77,0x6f(%esi),%ebp
 804de41:	00 73 6f             	add    %dh,0x6f(%ebx)
 804de44:	63 6b 65             	arpl   %bp,0x65(%ebx)
 804de47:	74 00                	je     804de49 <__FUNCTION__.4830+0x7e>
 804de49:	62 69 6e             	bound  %ebp,0x6e(%ecx)
 804de4c:	64 28 29             	sub    %ch,%fs:(%ecx)
 804de4f:	3a 20                	cmp    (%eax),%ah
 804de51:	70 6f                	jo     804dec2 <__FUNCTION__.4830+0xf7>
 804de53:	72 74                	jb     804dec9 <__FUNCTION__.4830+0xfe>
 804de55:	20 25 64 00 6c 69    	and    %ah,0x696c0064
 804de5b:	73 74                	jae    804ded1 <__FUNCTION__.4830+0x106>
 804de5d:	65 6e                	outsb  %gs:(%esi),(%dx)
 804de5f:	28 29                	sub    %ch,(%ecx)
 804de61:	00 61 63             	add    %ah,0x63(%ecx)
 804de64:	63 65 70             	arpl   %sp,0x70(%ebp)
 804de67:	74 28                	je     804de91 <__FUNCTION__.4830+0xc6>
 804de69:	29 00                	sub    %eax,(%eax)
 804de6b:	73 65                	jae    804ded2 <__FUNCTION__.4830+0x107>
 804de6d:	6c                   	insb   (%dx),%es:(%edi)
 804de6e:	65 63 74 28 29       	arpl   %si,%gs:0x29(%eax,%ebp,1)
 804de73:	0a 00                	or     (%eax),%al
 804de75:	52                   	push   %edx
 804de76:	58                   	pop    %eax
 804de77:	3a 20                	cmp    (%eax),%ah
 804de79:	22 25 73 22 00 61    	and    0x61002273,%ah
 804de7f:	72 67                	jb     804dee8 <__FUNCTION__.4830+0x11d>
 804de81:	63 28                	arpl   %bp,(%eax)
 804de83:	25 64 29 00 70       	and    $0x70002964,%eax
 804de88:	74 68                	je     804def2 <__FUNCTION__.4830+0x127>
 804de8a:	72 65                	jb     804def1 <__FUNCTION__.4830+0x126>
 804de8c:	61                   	popa   
 804de8d:	64                   	fs
 804de8e:	5f                   	pop    %edi
 804de8f:	63 72 65             	arpl   %si,0x65(%edx)
 804de92:	61                   	popa   
 804de93:	74 65                	je     804defa <__FUNCTION__.4830+0x12f>
 804de95:	28 29                	sub    %ch,(%ecx)
 804de97:	00 0a                	add    %cl,(%edx)
 804de99:	43                   	inc    %ebx
 804de9a:	6f                   	outsl  %ds:(%esi),(%dx)
 804de9b:	6e                   	outsb  %ds:(%esi),(%dx)
 804de9c:	65 63 74 61 64       	arpl   %si,%gs:0x64(%ecx,%eiz,2)
 804dea1:	6f                   	outsl  %ds:(%esi),(%dx)
 804dea2:	20 63 6f             	and    %ah,0x6f(%ebx)
 804dea5:	6d                   	insl   (%dx),%es:(%edi)
 804dea6:	20 6f 20             	and    %ch,0x20(%edi)
 804dea9:	63 6c 69 65          	arpl   %bp,0x65(%ecx,%ebp,2)
 804dead:	6e                   	outsb  %ds:(%esi),(%dx)
 804deae:	74 20                	je     804ded0 <__FUNCTION__.4830+0x105>
 804deb0:	25 73 20 3a 20       	and    $0x203a2073,%eax
 804deb5:	25 64 0a 00 00       	and    $0xa64,%eax
 804deba:	00 00                	add    %al,(%eax)
 804debc:	71 75                	jno    804df33 <__FUNCTION__.4830+0x168>
 804debe:	61                   	popa   
 804debf:	6e                   	outsb  %ds:(%esi),(%dx)
 804dec0:	74 69                	je     804df2b <__FUNCTION__.4830+0x160>
 804dec2:	64                   	fs
 804dec3:	61                   	popa   
 804dec4:	64 65 20 64 65 20    	fs and %ah,%fs:%gs:0x20(%ebp,%eiz,2)
 804deca:	61                   	popa   
 804decb:	72 67                	jb     804df34 <__FUNCTION__.4830+0x169>
 804decd:	75 6d                	jne    804df3c <__FUNCTION__.5856+0x4>
 804decf:	65 6e                	outsb  %gs:(%esi),(%dx)
 804ded1:	74 6f                	je     804df42 <__FUNCTION__.5856+0xa>
 804ded3:	73 20                	jae    804def5 <__FUNCTION__.4830+0x12a>
 804ded5:	28 25 64 29 20 65    	sub    %ah,0x65202964
 804dedb:	68 20 69 6e 73       	push   $0x736e6920
 804dee0:	75 66                	jne    804df48 <__FUNCTION__.5856+0x10>
 804dee2:	69 63 69 65 6e 74 65 	imul   $0x65746e65,0x69(%ebx),%esp
 804dee9:	00 00                	add    %al,(%eax)
 804deeb:	00 57 61             	add    %dl,0x61(%edi)
 804deee:	69 74 69 6e 67 20 66 6f 	imul   $0x6f662067,0x6e(%ecx,%ebp,2),%esi
 804def6:	72 20                	jb     804df18 <__FUNCTION__.4830+0x14d>
 804def8:	63 6f 6e             	arpl   %bp,0x6e(%edi)
 804defb:	6e                   	outsb  %ds:(%esi),(%dx)
 804defc:	65 63 74 69 6f       	arpl   %si,%gs:0x6f(%ecx,%ebp,2)
 804df01:	6e                   	outsb  %ds:(%esi),(%dx)
 804df02:	20 6f 6e             	and    %ch,0x6e(%edi)
 804df05:	20 70 6f             	and    %dh,0x6f(%eax)
 804df08:	72 74                	jb     804df7e <__FUNCTION__.5951+0x23>
 804df0a:	20 25 64 00 00 00    	and    %ah,0x64
 804df10:	65                   	gs
 804df11:	72 72                	jb     804df85 <__FUNCTION__.5951+0x2a>
 804df13:	6f                   	outsl  %ds:(%esi),(%dx)
 804df14:	28 25 64 29 20 70    	sub    %ah,0x70202964
 804df1a:	61                   	popa   
 804df1b:	63 6b 61             	arpl   %bp,0x61(%ebx)
 804df1e:	67 65 20 72 65       	and    %dh,%gs:0x65(%bp,%si)
 804df23:	63 65 62             	arpl   %sp,0x62(%ebp)
 804df26:	69 64 6f 20 65 68 20 69 	imul   $0x69206865,0x20(%edi,%ebp,2),%esp
 804df2e:	6e                   	outsb  %ds:(%esi),(%dx)
 804df2f:	76 61                	jbe    804df92 <__FUNCTION__.5951+0x37>
 804df31:	6c                   	insb   (%dx),%es:(%edi)
 804df32:	69 64 6f 00 00 00 73 65 	imul   $0x65730000,0x0(%edi,%ebp,2),%esp

0804df38 <__FUNCTION__.5856>:
 804df38:	73 65                	jae    804df9f <__FUNCTION__.5951+0x44>
 804df3a:	72 76                	jb     804dfb2 <__FUNCTION__.5951+0x57>
 804df3c:	65                   	gs
 804df3d:	72 5f                	jb     804df9e <__FUNCTION__.5951+0x43>
 804df3f:	6f                   	outsl  %ds:(%esi),(%dx)
 804df40:	6e                   	outsb  %ds:(%esi),(%dx)
 804df41:	5f                   	pop    %edi
 804df42:	63 6d 64             	arpl   %bp,0x64(%ebp)
 804df45:	5f                   	pop    %edi
 804df46:	72 65                	jb     804dfad <__FUNCTION__.5951+0x52>
 804df48:	63 65 69             	arpl   %sp,0x69(%ebp)
 804df4b:	76 65                	jbe    804dfb2 <__FUNCTION__.5951+0x57>
 804df4d:	64 00 73 65          	add    %dh,%fs:0x65(%ebx)

0804df4f <__FUNCTION__.5926>:
 804df4f:	73 65                	jae    804dfb6 <__FUNCTION__.5951+0x5b>
 804df51:	72 76                	jb     804dfc9 <__FUNCTION__.5951+0x6e>
 804df53:	65                   	gs
 804df54:	72 5f                	jb     804dfb5 <__FUNCTION__.5951+0x5a>
 804df56:	74 61                	je     804dfb9 <__FUNCTION__.5951+0x5e>
 804df58:	73 6b                	jae    804dfc5 <__FUNCTION__.5951+0x6a>
 804df5a:	00 73 65             	add    %dh,0x65(%ebx)

0804df5b <__FUNCTION__.5951>:
 804df5b:	73 65                	jae    804dfc2 <__FUNCTION__.5951+0x67>
 804df5d:	72 76                	jb     804dfd5 <__FUNCTION__.5951+0x7a>
 804df5f:	65                   	gs
 804df60:	72 5f                	jb     804dfc1 <__FUNCTION__.5951+0x66>
 804df62:	73 74                	jae    804dfd8 <__FUNCTION__.5951+0x7d>
 804df64:	61                   	popa   
 804df65:	72 74                	jb     804dfdb <__FUNCTION__.5951+0x80>
 804df67:	00 5b 25             	add    %bl,0x25(%ebx)
 804df6a:	59                   	pop    %ecx
 804df6b:	2d 25 6d 2d 25       	sub    $0x252d6d25,%eax
 804df70:	64 20 25 48 3a 25 4d 	and    %ah,%fs:0x4d253a48
 804df77:	3a 25 53 5d 3a 20    	cmp    0x203a5d53,%ah
 804df7d:	00 45 72             	add    %al,0x72(%ebp)
 804df80:	72 6f                	jb     804dff1 <__FUNCTION__.5951+0x96>
 804df82:	72 3a                	jb     804dfbe <__FUNCTION__.5951+0x63>
 804df84:	20 25 64 0a 00 74    	and    %ah,0x74000a64
 804df8a:	61                   	popa   
 804df8b:	73 6b                	jae    804dff8 <__FUNCTION__.5951+0x9d>
 804df8d:	32 20                	xor    (%eax),%ah
 804df8f:	73 74                	jae    804e005 <__FUNCTION__.4869+0x4>
 804df91:	6f                   	outsl  %ds:(%esi),(%dx)
 804df92:	70 70                	jo     804e004 <__FUNCTION__.4869+0x3>
 804df94:	65                   	gs
 804df95:	64                   	fs
 804df96:	2c 20                	sub    $0x20,%al
 804df98:	77 61                	ja     804dffb <__FUNCTION__.5951+0xa0>
 804df9a:	69 74 69 6e 67 2e 2e 2e 	imul   $0x2e2e2e67,0x6e(%ecx,%ebp,2),%esi
 804dfa2:	00 74 61 73          	add    %dh,0x73(%ecx,%eiz,2)
 804dfa6:	6b 32 5f             	imul   $0x5f,(%edx),%esi
 804dfa9:	64                   	fs
 804dfaa:	65                   	gs
 804dfab:	6c                   	insb   (%dx),%es:(%edi)
 804dfac:	61                   	popa   
 804dfad:	79 28                	jns    804dfd7 <__FUNCTION__.5951+0x7c>
 804dfaf:	25 64 29 00 76       	and    $0x76002964,%eax
 804dfb4:	6f                   	outsl  %ds:(%esi),(%dx)
 804dfb5:	6c                   	insb   (%dx),%es:(%edi)
 804dfb6:	74 61                	je     804e019 <__FUNCTION__.4875>
 804dfb8:	6e                   	outsb  %ds:(%esi),(%dx)
 804dfb9:	64 6f                	outsl  %fs:(%esi),(%dx)
 804dfbb:	20 61 20             	and    %ah,0x20(%ecx)
 804dfbe:	64 6f                	outsl  %fs:(%esi),(%dx)
 804dfc0:	72 6d                	jb     804e02f <__FUNCTION__.4875+0x16>
 804dfc2:	69 72 2e 00 74 61 73 	imul   $0x73617400,0x2e(%edx),%esi
 804dfc9:	6b 31 20             	imul   $0x20,(%ecx),%esi
 804dfcc:	73 74                	jae    804e042 <__FUNCTION__.4875+0x29>
 804dfce:	6f                   	outsl  %ds:(%esi),(%dx)
 804dfcf:	70 70                	jo     804e041 <__FUNCTION__.4875+0x28>
 804dfd1:	65                   	gs
 804dfd2:	64                   	fs
 804dfd3:	2c 20                	sub    $0x20,%al
 804dfd5:	77 61                	ja     804e038 <__FUNCTION__.4875+0x1f>
 804dfd7:	69 74 69 6e 67 2e 2e 2e 	imul   $0x2e2e2e67,0x6e(%ecx,%ebp,2),%esi
 804dfdf:	00 66 61             	add    %ah,0x61(%esi)
 804dfe2:	7a 65                	jp     804e049 <__FUNCTION__.4875+0x30>
 804dfe4:	6e                   	outsb  %ds:(%esi),(%dx)
 804dfe5:	64 6f                	outsl  %fs:(%esi),(%dx)
 804dfe7:	20 61 6c             	and    %ah,0x6c(%ecx)
 804dfea:	67 6f                	outsl  %ds:(%si),(%dx)
 804dfec:	2e 2e 2e 00 25 64 20 00 66 	cs cs add %ah,%cs:0x66002064
 804dff5:	69 6d 20 64 61 20 74 	imul   $0x74206164,0x20(%ebp),%ebp
 804dffc:	61                   	popa   
 804dffd:	73 6b                	jae    804e06a <__FUNCTION__.4875+0x51>
 804dfff:	31 00                	xor    %eax,(%eax)

0804e001 <__FUNCTION__.4869>:
 804e001:	74 61                	je     804e064 <__FUNCTION__.4875+0x4b>
 804e003:	73 6b                	jae    804e070 <__FUNCTION__.4875+0x57>
 804e005:	73 5f                	jae    804e066 <__FUNCTION__.4875+0x4d>
 804e007:	73 74                	jae    804e07d <__FUNCTION__.4875+0x64>
 804e009:	61                   	popa   
 804e00a:	72 74                	jb     804e080 <__FUNCTION__.4875+0x67>
 804e00c:	00 74 61 73          	add    %dh,0x73(%ecx,%eiz,2)

0804e00d <__FUNCTION__.4851>:
 804e00d:	74 61                	je     804e070 <__FUNCTION__.4875+0x57>
 804e00f:	73 6b                	jae    804e07c <__FUNCTION__.4875+0x63>
 804e011:	32 00                	xor    (%eax),%al

0804e013 <__FUNCTION__.4831>:
 804e013:	74 61                	je     804e076 <__FUNCTION__.4875+0x5d>
 804e015:	73 6b                	jae    804e082 <__FUNCTION__.4875+0x69>
 804e017:	31 00                	xor    %eax,(%eax)

0804e019 <__FUNCTION__.4875>:
 804e019:	74 61                	je     804e07c <__FUNCTION__.4875+0x63>
 804e01b:	73 6b                	jae    804e088 <__FUNCTION__.4875+0x6f>
 804e01d:	73 5f                	jae    804e07e <__FUNCTION__.4875+0x65>
 804e01f:	73 74                	jae    804e095 <__FUNCTION__.4875+0x7c>
 804e021:	6f                   	outsl  %ds:(%esi),(%dx)
 804e022:	70 00                	jo     804e024 <__FUNCTION__.4875+0xb>
 804e024:	25 70 00 25 69       	and    $0x69250070,%eax
 804e029:	00 25 75 00 25 66    	add    %ah,0x66250075
 804e02f:	00 25 63 00 30 78    	add    %ah,0x78300063
 804e035:	25 30 32 58 00       	and    $0x583230,%eax
 804e03a:	30 78 25             	xor    %bh,0x25(%eax)
 804e03d:	30 34 58             	xor    %dh,(%eax,%ebx,2)
 804e040:	00 30                	add    %dh,(%eax)
 804e042:	78 25                	js     804e069 <__FUNCTION__.4875+0x50>
 804e044:	30 38                	xor    %bh,(%eax)
 804e046:	58                   	pop    %eax
 804e047:	00 30                	add    %dh,(%eax)
 804e049:	78 25                	js     804e070 <__FUNCTION__.4875+0x57>
 804e04b:	30 31                	xor    %dh,(%ecx)
 804e04d:	36                   	ss
 804e04e:	6c                   	insb   (%dx),%es:(%edi)
 804e04f:	6c                   	insb   (%dx),%es:(%edi)
 804e050:	58                   	pop    %eax
 804e051:	00 25 6c 6c 58 00    	add    %ah,0x586c6c
 804e057:	25 58 00 25 6c       	and    $0x6c250058,%eax
 804e05c:	66                   	data16
 804e05d:	00 54 52 55          	add    %dl,0x55(%edx,%edx,2)
 804e061:	45                   	inc    %ebp
 804e062:	00 59 45             	add    %bl,0x45(%ecx)
 804e065:	53                   	push   %ebx
 804e066:	00 4f 4e             	add    %cl,0x4e(%edi)
 804e069:	00 46 41             	add    %al,0x41(%esi)
 804e06c:	4c                   	dec    %esp
 804e06d:	53                   	push   %ebx
 804e06e:	45                   	inc    %ebp
 804e06f:	00 4e 4f             	add    %cl,0x4f(%esi)
 804e072:	00 4f 46             	add    %cl,0x46(%edi)
 804e075:	46                   	inc    %esi
 804e076:	00 30                	add    %dh,(%eax)
 804e078:	00 55 6e             	add    %dl,0x6e(%ebp)
 804e07b:	74 65                	je     804e0e2 <__FUNCTION__.4875+0xc9>
 804e07d:	72 6d                	jb     804e0ec <__FUNCTION__.4875+0xd3>
 804e07f:	69 6e 61 74 65 64 20 	imul   $0x20646574,0x61(%esi),%ebp
 804e086:	73 74                	jae    804e0fc <__FUNCTION__.4875+0xe3>
 804e088:	72 69                	jb     804e0f3 <__FUNCTION__.4875+0xda>
 804e08a:	6e                   	outsb  %ds:(%esi),(%dx)
 804e08b:	67 2e 0a 00          	or     %cs:(%bx,%si),%al
 804e08f:	25 73 20 3d 20       	and    $0x203d2073,%eax
 804e094:	25 73 0a 00 25       	and    $0x25000a73,%eax
 804e099:	73 2f                	jae    804e0ca <__FUNCTION__.4875+0xb1>
 804e09b:	25 73 00 5b 25       	and    $0x255b0073,%eax
 804e0a0:	73 5d                	jae    804e0ff <__FUNCTION__.4875+0xe6>
 804e0a2:	0a 00                	or     (%eax),%al
 804e0a4:	25 73 3a 25 64       	and    $0x64253a73,%eax
 804e0a9:	3a 20                	cmp    (%eax),%ah
 804e0ab:	70 61                	jo     804e10e <__FUNCTION__.4875+0xf5>
 804e0ad:	72 73                	jb     804e122 <__FUNCTION__.4875+0x109>
 804e0af:	65 20 65 72          	and    %ah,%gs:0x72(%ebp)
 804e0b3:	72 6f                	jb     804e124 <__FUNCTION__.4875+0x10b>
 804e0b5:	72 2e                	jb     804e0e5 <__FUNCTION__.4875+0xcc>
 804e0b7:	0a 00                	or     (%eax),%al
 804e0b9:	25 73 3a 25 64       	and    $0x64253a73,%eax
 804e0be:	3a 20                	cmp    (%eax),%ah
 804e0c0:	73 65                	jae    804e127 <__FUNCTION__.4875+0x10e>
 804e0c2:	63 74 69 6f          	arpl   %si,0x6f(%ecx,%ebp,2)
 804e0c6:	6e                   	outsb  %ds:(%esi),(%dx)
 804e0c7:	20 75 6e             	and    %dh,0x6e(%ebp)
 804e0ca:	6b 6e 6f 77          	imul   $0x77,0x6f(%esi),%ebp
 804e0ce:	6e                   	outsb  %ds:(%esi),(%dx)
 804e0cf:	20 27                	and    %ah,(%edi)
 804e0d1:	25 73 27 0a 00       	and    $0xa2773,%eax
 804e0d6:	25 73 3a 25 64       	and    $0x64253a73,%eax
 804e0db:	3a 20                	cmp    (%eax),%ah
 804e0dd:	6e                   	outsb  %ds:(%esi),(%dx)
 804e0de:	6f                   	outsl  %ds:(%esi),(%dx)
 804e0df:	74 20                	je     804e101 <__FUNCTION__.4875+0xe8>
 804e0e1:	61                   	popa   
 804e0e2:	20 73 65             	and    %dh,0x65(%ebx)
 804e0e5:	63 74 69 6f          	arpl   %si,0x6f(%ecx,%ebp,2)
 804e0e9:	6e                   	outsb  %ds:(%esi),(%dx)
 804e0ea:	20 27                	and    %ah,(%edi)
 804e0ec:	25 73 27 0a 00       	and    $0xa2773,%eax
 804e0f1:	25 73 3a 25 64       	and    $0x64253a73,%eax
 804e0f6:	3a 20                	cmp    (%eax),%ah
 804e0f8:	73 79                	jae    804e173 <__FUNCTION__.4875+0x15a>
 804e0fa:	6d                   	insl   (%dx),%es:(%edi)
 804e0fb:	62 6f 6c             	bound  %ebp,0x6c(%edi)
 804e0fe:	20 75 6e             	and    %dh,0x6e(%ebp)
 804e101:	6b 6e 6f 77          	imul   $0x77,0x6f(%esi),%ebp
 804e105:	6e                   	outsb  %ds:(%esi),(%dx)
 804e106:	20 27                	and    %ah,(%edi)
 804e108:	25 73 27 0a 00       	and    $0xa2773,%eax
 804e10d:	77 2b                	ja     804e13a <__FUNCTION__.4875+0x121>
 804e10f:	00 76 6f             	add    %dh,0x6f(%esi)
 804e112:	69 64 00 73 65 63 74 69 	imul   $0x69746365,0x73(%eax,%eax,1),%esp
 804e11a:	6f                   	outsl  %ds:(%esi),(%dx)
 804e11b:	6e                   	outsb  %ds:(%esi),(%dx)
 804e11c:	00 69 6e             	add    %ch,0x6e(%ecx)
 804e11f:	74 65                	je     804e186 <__FUNCTION__.4875+0x16d>
 804e121:	67                   	addr16
 804e122:	65                   	gs
 804e123:	72 00                	jb     804e125 <__FUNCTION__.4875+0x10c>
 804e125:	75 6e                	jne    804e195 <__FUNCTION__.4875+0x17c>
 804e127:	73 69                	jae    804e192 <__FUNCTION__.4875+0x179>
 804e129:	67 6e                	outsb  %ds:(%si),(%dx)
 804e12b:	65 64 00 66 6c       	gs add %ah,%fs:%gs:0x6c(%esi)
 804e130:	6f                   	outsl  %ds:(%esi),(%dx)
 804e131:	61                   	popa   
 804e132:	74 00                	je     804e134 <__FUNCTION__.4875+0x11b>
 804e134:	73 74                	jae    804e1aa <__FUNCTION__.4875+0x191>
 804e136:	72 69                	jb     804e1a1 <__FUNCTION__.4875+0x188>
 804e138:	6e                   	outsb  %ds:(%esi),(%dx)
 804e139:	67 00 62 6f          	add    %ah,0x6f(%bp,%si)
 804e13d:	6f                   	outsl  %ds:(%esi),(%dx)
 804e13e:	6c                   	insb   (%dx),%es:(%edi)
 804e13f:	65                   	gs
 804e140:	61                   	popa   
 804e141:	6e                   	outsb  %ds:(%esi),(%dx)
 804e142:	00 63 68             	add    %ah,0x68(%ebx)
 804e145:	61                   	popa   
 804e146:	72 00                	jb     804e148 <__FUNCTION__.4875+0x12f>
 804e148:	68 65 78 5f 38       	push   $0x385f7865
 804e14d:	00 68 65             	add    %ch,0x65(%eax)
 804e150:	78 5f                	js     804e1b1 <__FUNCTION__.4875+0x198>
 804e152:	31 36                	xor    %esi,(%esi)
 804e154:	00 68 65             	add    %ch,0x65(%eax)
 804e157:	78 5f                	js     804e1b8 <__FUNCTION__.4875+0x19f>
 804e159:	33 32                	xor    (%edx),%esi
 804e15b:	00 68 65             	add    %ch,0x65(%eax)
 804e15e:	78 5f                	js     804e1bf <__FUNCTION__.4875+0x1a6>
 804e160:	36                   	ss
 804e161:	34 00                	xor    $0x0,%al
 804e163:	62 69 6e             	bound  %ebp,0x6e(%ecx)
 804e166:	61                   	popa   
 804e167:	72 79                	jb     804e1e2 <STUB_STRING+0xe>
 804e169:	5f                   	pop    %edi
 804e16a:	38 00                	cmp    %al,(%eax)
 804e16c:	62 69 6e             	bound  %ebp,0x6e(%ecx)
 804e16f:	61                   	popa   
 804e170:	72 79                	jb     804e1eb <STUB_STRING+0x17>
 804e172:	5f                   	pop    %edi
 804e173:	31 36                	xor    %esi,(%esi)
 804e175:	00 62 69             	add    %ah,0x69(%edx)
 804e178:	6e                   	outsb  %ds:(%esi),(%dx)
 804e179:	61                   	popa   
 804e17a:	72 79                	jb     804e1f5 <STUB_STRING+0x21>
 804e17c:	5f                   	pop    %edi
 804e17d:	33 32                	xor    (%edx),%esi
 804e17f:	00 62 69             	add    %ah,0x69(%edx)
 804e182:	6e                   	outsb  %ds:(%esi),(%dx)
 804e183:	61                   	popa   
 804e184:	72 79                	jb     804e1ff <STUB_STRING+0x2b>
 804e186:	5f                   	pop    %edi
 804e187:	36                   	ss
 804e188:	34 00                	xor    $0x0,%al
 804e18a:	6f                   	outsl  %ds:(%esi),(%dx)
 804e18b:	63 74 61 6c          	arpl   %si,0x6c(%ecx,%eiz,2)
 804e18f:	5f                   	pop    %edi
 804e190:	38 00                	cmp    %al,(%eax)
 804e192:	6f                   	outsl  %ds:(%esi),(%dx)
 804e193:	63 74 61 6c          	arpl   %si,0x6c(%ecx,%eiz,2)
 804e197:	5f                   	pop    %edi
 804e198:	31 36                	xor    %esi,(%esi)
 804e19a:	00 6f 63             	add    %ch,0x63(%edi)
 804e19d:	74 61                	je     804e200 <STUB_STRING+0x2c>
 804e19f:	6c                   	insb   (%dx),%es:(%edi)
 804e1a0:	5f                   	pop    %edi
 804e1a1:	33 32                	xor    (%edx),%esi
 804e1a3:	00 6f 63             	add    %ch,0x63(%edi)
 804e1a6:	74 61                	je     804e209 <STUB_STRING+0x35>
 804e1a8:	6c                   	insb   (%dx),%es:(%edi)
 804e1a9:	5f                   	pop    %edi
 804e1aa:	36                   	ss
 804e1ab:	34 00                	xor    $0x0,%al
 804e1ad:	69 70 5f 61 64 64 72 	imul   $0x72646461,0x5f(%eax),%esi
 804e1b4:	65                   	gs
 804e1b5:	73 73                	jae    804e22a <STUB_STRING+0x56>
 804e1b7:	00 72 67             	add    %dh,0x67(%edx)
 804e1ba:	62 00                	bound  %eax,(%eax)
 804e1bc:	72 67                	jb     804e225 <STUB_STRING+0x51>
 804e1be:	62 69 00             	bound  %ebp,0x0(%ecx)
 804e1c1:	63 79 6d             	arpl   %di,0x6d(%ecx)
 804e1c4:	6b 00 72             	imul   $0x72,(%eax),%eax
 804e1c7:	61                   	popa   
 804e1c8:	74 69                	je     804e233 <STUB_STRING+0x5f>
 804e1ca:	6f                   	outsl  %ds:(%esi),(%dx)
 804e1cb:	00 69 70             	add    %ch,0x70(%ecx)
 804e1ce:	5f                   	pop    %edi
 804e1cf:	70 6f                	jo     804e240 <STUB_STRING+0x6c>
 804e1d1:	72 74                	jb     804e247 <STUB_STRING+0x73>
 804e1d3:	00 4e 55             	add    %cl,0x55(%esi)

0804e1d4 <STUB_STRING>:
 804e1d4:	4e                   	dec    %esi
 804e1d5:	55                   	push   %ebp
 804e1d6:	4c                   	dec    %esp
 804e1d7:	4c                   	dec    %esp
 804e1d8:	00                   	.byte 0x0

Disassembly of section .eh_frame_hdr:

0804e1dc <.eh_frame_hdr>:
 804e1dc:	01 1b                	add    %ebx,(%ebx)
 804e1de:	03 3b                	add    (%ebx),%edi
 804e1e0:	58                   	pop    %eax
 804e1e1:	03 00                	add    (%eax),%eax
 804e1e3:	00 6a 00             	add    %ch,0x0(%edx)
 804e1e6:	00 00                	add    %al,(%eax)
 804e1e8:	f4                   	hlt    
 804e1e9:	aa                   	stos   %al,%es:(%edi)
 804e1ea:	ff                   	(bad)  
 804e1eb:	ff 74 03 00          	pushl  0x0(%ebx,%eax,1)
 804e1ef:	00 c4                	add    %al,%ah
 804e1f1:	af                   	scas   %es:(%edi),%eax
 804e1f2:	ff                   	(bad)  
 804e1f3:	ff 98 03 00 00 eb    	lcall  *-0x14fffffd(%eax)
 804e1f9:	af                   	scas   %es:(%edi),%eax
 804e1fa:	ff                   	(bad)  
 804e1fb:	ff                   	(bad)  
 804e1fc:	b8 03 00 00 1a       	mov    $0x1a000003,%eax
 804e201:	b0 ff                	mov    $0xff,%al
 804e203:	ff d0                	call   *%eax
 804e205:	03 00                	add    (%eax),%eax
 804e207:	00 4a b0             	add    %cl,-0x50(%edx)
 804e20a:	ff                   	(bad)  
 804e20b:	ff e4                	jmp    *%esp
 804e20d:	03 00                	add    (%eax),%eax
 804e20f:	00 da                	add    %bl,%dl
 804e211:	b2 ff                	mov    $0xff,%dl
 804e213:	ff 10                	call   *(%eax)
 804e215:	04 00                	add    $0x0,%al
 804e217:	00 95 b3 ff ff 28    	add    %dl,0x28ffffb3(%ebp)
 804e21d:	04 00                	add    $0x0,%al
 804e21f:	00 b1 b3 ff ff 40    	add    %dh,0x40ffffb3(%ecx)
 804e225:	04 00                	add    $0x0,%al
 804e227:	00 44 ba ff          	add    %al,-0x1(%edx,%edi,4)
 804e22b:	ff 6c 04 00          	ljmp   *0x0(%esp,%eax,1)
 804e22f:	00 66 bb             	add    %ah,-0x45(%esi)
 804e232:	ff                   	(bad)  
 804e233:	ff a0 04 00 00 a7    	jmp    *-0x58fffffc(%eax)
 804e239:	bb ff ff b8 04       	mov    $0x4b8ffff,%ebx
 804e23e:	00 00                	add    %al,(%eax)
 804e240:	d4 bb                	aam    $0xbb
 804e242:	ff                   	(bad)  
 804e243:	ff d0                	call   *%eax
 804e245:	04 00                	add    $0x0,%al
 804e247:	00 da                	add    %bl,%dl
 804e249:	bb ff ff e4 04       	mov    $0x4e4ffff,%ebx
 804e24e:	00 00                	add    %al,(%eax)
 804e250:	49                   	dec    %ecx
 804e251:	bc ff ff 20 05       	mov    $0x520ffff,%esp
 804e256:	00 00                	add    %al,(%eax)
 804e258:	b4 be                	mov    $0xbe,%ah
 804e25a:	ff                   	(bad)  
 804e25b:	ff 60 05             	jmp    *0x5(%eax)
 804e25e:	00 00                	add    %al,(%eax)
 804e260:	a4                   	movsb  %ds:(%esi),%es:(%edi)
 804e261:	c2 ff ff             	ret    $0xffff
 804e264:	a0 05 00 00 aa       	mov    0xaa000005,%al
 804e269:	c4                   	(bad)  
 804e26a:	ff                   	(bad)  
 804e26b:	ff c4                	inc    %esp
 804e26d:	05 00 00 84 c5       	add    $0xc5840000,%eax
 804e272:	ff                   	(bad)  
 804e273:	ff dc                	lcall  *<internal disassembler error>
 804e275:	05 00 00 a7 c5       	add    $0xc5a70000,%eax
 804e27a:	ff                   	(bad)  
 804e27b:	ff f4                	push   %esp
 804e27d:	05 00 00 ce c5       	add    $0xc5ce0000,%eax
 804e282:	ff                   	(bad)  
 804e283:	ff 14 06             	call   *(%esi,%eax,1)
 804e286:	00 00                	add    %al,(%eax)
 804e288:	aa                   	stos   %al,%es:(%edi)
 804e289:	c6                   	(bad)  
 804e28a:	ff                   	(bad)  
 804e28b:	ff                   	(bad)  
 804e28c:	38 06                	cmp    %al,(%esi)
 804e28e:	00 00                	add    %al,(%eax)
 804e290:	30 c9                	xor    %cl,%cl
 804e292:	ff                   	(bad)  
 804e293:	ff                   	(bad)  
 804e294:	78 06                	js     804e29c <STUB_STRING+0xc8>
 804e296:	00 00                	add    %al,(%eax)
 804e298:	51                   	push   %ecx
 804e299:	c9                   	leave  
 804e29a:	ff                   	(bad)  
 804e29b:	ff 8c 06 00 00 9e c9 	decl   -0x36620000(%esi,%eax,1)
 804e2a2:	ff                   	(bad)  
 804e2a3:	ff ac 06 00 00 09 ca 	ljmp   *-0x35f70000(%esi,%eax,1)
 804e2aa:	ff                   	(bad)  
 804e2ab:	ff d0                	call   *%eax
 804e2ad:	06                   	push   %es
 804e2ae:	00 00                	add    %al,(%eax)
 804e2b0:	6d                   	insl   (%dx),%es:(%edi)
 804e2b1:	ca ff ff             	lret   $0xffff
 804e2b4:	f4                   	hlt    
 804e2b5:	06                   	push   %es
 804e2b6:	00 00                	add    %al,(%eax)
 804e2b8:	d1 ca                	ror    %edx
 804e2ba:	ff                   	(bad)  
 804e2bb:	ff 18                	lcall  *(%eax)
 804e2bd:	07                   	pop    %es
 804e2be:	00 00                	add    %al,(%eax)
 804e2c0:	35 cb ff ff 3c       	xor    $0x3cffffcb,%eax
 804e2c5:	07                   	pop    %es
 804e2c6:	00 00                	add    %al,(%eax)
 804e2c8:	99                   	cltd   
 804e2c9:	cb                   	lret   
 804e2ca:	ff                   	(bad)  
 804e2cb:	ff 60 07             	jmp    *0x7(%eax)
 804e2ce:	00 00                	add    %al,(%eax)
 804e2d0:	08 cc                	or     %cl,%ah
 804e2d2:	ff                   	(bad)  
 804e2d3:	ff 84 07 00 00 41 cc 	incl   -0x33bf0000(%edi,%eax,1)
 804e2da:	ff                   	(bad)  
 804e2db:	ff 9c 07 00 00 61 cc 	lcall  *-0x339f0000(%edi,%eax,1)
 804e2e2:	ff                   	(bad)  
 804e2e3:	ff b4 07 00 00 96 ce 	pushl  -0x316a0000(%edi,%eax,1)
 804e2ea:	ff                   	(bad)  
 804e2eb:	ff dc                	lcall  *<internal disassembler error>
 804e2ed:	07                   	pop    %es
 804e2ee:	00 00                	add    %al,(%eax)
 804e2f0:	94                   	xchg   %eax,%esp
 804e2f1:	d6                   	(bad)  
 804e2f2:	ff                   	(bad)  
 804e2f3:	ff 1c 08             	lcall  *(%eax,%ecx,1)
 804e2f6:	00 00                	add    %al,(%eax)
 804e2f8:	62                   	(bad)  
 804e2f9:	d7                   	xlat   %ds:(%ebx)
 804e2fa:	ff                   	(bad)  
 804e2fb:	ff 40 08             	incl   0x8(%eax)
 804e2fe:	00 00                	add    %al,(%eax)
 804e300:	a4                   	movsb  %ds:(%esi),%es:(%edi)
 804e301:	d7                   	xlat   %ds:(%ebx)
 804e302:	ff                   	(bad)  
 804e303:	ff 58 08             	lcall  *0x8(%eax)
 804e306:	00 00                	add    %al,(%eax)
 804e308:	0b d8                	or     %eax,%ebx
 804e30a:	ff                   	(bad)  
 804e30b:	ff                   	(bad)  
 804e30c:	7c 08                	jl     804e316 <STUB_STRING+0x142>
 804e30e:	00 00                	add    %al,(%eax)
 804e310:	10 d9                	adc    %bl,%cl
 804e312:	ff                   	(bad)  
 804e313:	ff b0 08 00 00 fa    	pushl  -0x5fffff8(%eax)
 804e319:	dd ff                	(bad)  
 804e31b:	ff cc                	dec    %esp
 804e31d:	08 00                	or     %al,(%eax)
 804e31f:	00 de                	add    %bl,%dh
 804e321:	e0 ff                	loopne 804e322 <STUB_STRING+0x14e>
 804e323:	ff e8                	ljmp   *<internal disassembler error>
 804e325:	08 00                	or     %al,(%eax)
 804e327:	00 1c e1             	add    %bl,(%ecx,%eiz,8)
 804e32a:	ff                   	(bad)  
 804e32b:	ff 00                	incl   (%eax)
 804e32d:	09 00                	or     %eax,(%eax)
 804e32f:	00 64 e1 ff          	add    %ah,-0x1(%ecx,%eiz,8)
 804e333:	ff 18                	lcall  *(%eax)
 804e335:	09 00                	or     %eax,(%eax)
 804e337:	00 9e e1 ff ff 30    	add    %bl,0x30ffffe1(%esi)
 804e33d:	09 00                	or     %eax,(%eax)
 804e33f:	00 d8                	add    %bl,%al
 804e341:	e1 ff                	loope  804e342 <STUB_STRING+0x16e>
 804e343:	ff 48 09             	decl   0x9(%eax)
 804e346:	00 00                	add    %al,(%eax)
 804e348:	1b e2                	sbb    %edx,%esp
 804e34a:	ff                   	(bad)  
 804e34b:	ff 60 09             	jmp    *0x9(%eax)
 804e34e:	00 00                	add    %al,(%eax)
 804e350:	f2 e2 ff             	repnz loop 804e352 <STUB_STRING+0x17e>
 804e353:	ff                   	(bad)  
 804e354:	78 09                	js     804e35f <STUB_STRING+0x18b>
 804e356:	00 00                	add    %al,(%eax)
 804e358:	f4                   	hlt    
 804e359:	e3 ff                	jecxz  804e35a <STUB_STRING+0x186>
 804e35b:	ff 90 09 00 00 fa    	call   *-0x5fffff7(%eax)
 804e361:	e3 ff                	jecxz  804e362 <STUB_STRING+0x18e>
 804e363:	ff a4 09 00 00 00 e4 	jmp    *-0x1c000000(%ecx,%ecx,1)
 804e36a:	ff                   	(bad)  
 804e36b:	ff                   	(bad)  
 804e36c:	b8 09 00 00 27       	mov    $0x27000009,%eax
 804e371:	e4 ff                	in     $0xff,%al
 804e373:	ff d8                	lcall  *<internal disassembler error>
 804e375:	09 00                	or     %eax,(%eax)
 804e377:	00 4e e4             	add    %cl,-0x1c(%esi)
 804e37a:	ff                   	(bad)  
 804e37b:	ff                   	(bad)  
 804e37c:	f8                   	clc    
 804e37d:	09 00                	or     %eax,(%eax)
 804e37f:	00 75 e4             	add    %dh,-0x1c(%ebp)
 804e382:	ff                   	(bad)  
 804e383:	ff 18                	lcall  *(%eax)
 804e385:	0a 00                	or     (%eax),%al
 804e387:	00 9c e4 ff ff 38 0a 	add    %bl,0xa38ffff(%esp,%eiz,8)
 804e38e:	00 00                	add    %al,(%eax)
 804e390:	c3                   	ret    
 804e391:	e4 ff                	in     $0xff,%al
 804e393:	ff 58 0a             	lcall  *0xa(%eax)
 804e396:	00 00                	add    %al,(%eax)
 804e398:	ea e4 ff ff 78 0a 00 	ljmp   $0xa,$0x78ffffe4
 804e39f:	00 11                	add    %dl,(%ecx)
 804e3a1:	e5 ff                	in     $0xff,%eax
 804e3a3:	ff 98 0a 00 00 38    	lcall  *0x3800000a(%eax)
 804e3a9:	e5 ff                	in     $0xff,%eax
 804e3ab:	ff                   	(bad)  
 804e3ac:	b8 0a 00 00 5f       	mov    $0x5f00000a,%eax
 804e3b1:	e5 ff                	in     $0xff,%eax
 804e3b3:	ff d8                	lcall  *<internal disassembler error>
 804e3b5:	0a 00                	or     (%eax),%al
 804e3b7:	00 86 e5 ff ff f8    	add    %al,-0x700001b(%esi)
 804e3bd:	0a 00                	or     (%eax),%al
 804e3bf:	00 ad e5 ff ff 18    	add    %ch,0x18ffffe5(%ebp)
 804e3c5:	0b 00                	or     (%eax),%eax
 804e3c7:	00 d4                	add    %dl,%ah
 804e3c9:	e5 ff                	in     $0xff,%eax
 804e3cb:	ff                   	(bad)  
 804e3cc:	38 0b                	cmp    %cl,(%ebx)
 804e3ce:	00 00                	add    %al,(%eax)
 804e3d0:	1f                   	pop    %ds
 804e3d1:	e6 ff                	out    %al,$0xff
 804e3d3:	ff 50 0b             	call   *0xb(%eax)
 804e3d6:	00 00                	add    %al,(%eax)
 804e3d8:	6c                   	insb   (%dx),%es:(%edi)
 804e3d9:	e6 ff                	out    %al,$0xff
 804e3db:	ff 68 0b             	ljmp   *0xb(%eax)
 804e3de:	00 00                	add    %al,(%eax)
 804e3e0:	b9 e6 ff ff 80       	mov    $0x80ffffe6,%ecx
 804e3e5:	0b 00                	or     (%eax),%eax
 804e3e7:	00 06                	add    %al,(%esi)
 804e3e9:	e7 ff                	out    %eax,$0xff
 804e3eb:	ff 98 0b 00 00 51    	lcall  *0x5100000b(%eax)
 804e3f1:	e7 ff                	out    %eax,$0xff
 804e3f3:	ff b0 0b 00 00 7f    	pushl  0x7f00000b(%eax)
 804e3f9:	e7 ff                	out    %eax,$0xff
 804e3fb:	ff c4                	inc    %esp
 804e3fd:	0b 00                	or     (%eax),%eax
 804e3ff:	00 cd                	add    %cl,%ch
 804e401:	e7 ff                	out    %eax,$0xff
 804e403:	ff dc                	lcall  *<internal disassembler error>
 804e405:	0b 00                	or     (%eax),%eax
 804e407:	00 1b                	add    %bl,(%ebx)
 804e409:	e8 ff ff f4 0b       	call   13f9e40d <_end+0xbf4cec9>
 804e40e:	00 00                	add    %al,(%eax)
 804e410:	68 e8 ff ff 0c       	push   $0xcffffe8
 804e415:	0c 00                	or     $0x0,%al
 804e417:	00 b5 e8 ff ff 24    	add    %dh,0x24ffffe8(%ebp)
 804e41d:	0c 00                	or     $0x0,%al
 804e41f:	00 0b                	add    %cl,(%ebx)
 804e421:	e9 ff ff 48 0c       	jmp    144de425 <_end+0xc48cee1>
 804e426:	00 00                	add    %al,(%eax)
 804e428:	29 e9                	sub    %ebp,%ecx
 804e42a:	ff                   	(bad)  
 804e42b:	ff 5c 0c 00          	lcall  *0x0(%esp,%ecx,1)
 804e42f:	00 47 e9             	add    %al,-0x17(%edi)
 804e432:	ff                   	(bad)  
 804e433:	ff 70 0c             	pushl  0xc(%eax)
 804e436:	00 00                	add    %al,(%eax)
 804e438:	65                   	gs
 804e439:	e9 ff ff 84 0c       	jmp    1489e43d <_end+0xc84cef9>
 804e43e:	00 00                	add    %al,(%eax)
 804e440:	83 e9 ff             	sub    $0xffffffff,%ecx
 804e443:	ff 98 0c 00 00 a1    	lcall  *-0x5efffff4(%eax)
 804e449:	e9 ff ff ac 0c       	jmp    14b1e44d <_end+0xcaccf09>
 804e44e:	00 00                	add    %al,(%eax)
 804e450:	bf e9 ff ff c0       	mov    $0xc0ffffe9,%edi
 804e455:	0c 00                	or     $0x0,%al
 804e457:	00 dd                	add    %bl,%ch
 804e459:	e9 ff ff d4 0c       	jmp    14d9e45d <_end+0xcd4cf19>
 804e45e:	00 00                	add    %al,(%eax)
 804e460:	fb                   	sti    
 804e461:	e9 ff ff e8 0c       	jmp    14ede465 <_end+0xce8cf21>
 804e466:	00 00                	add    %al,(%eax)
 804e468:	19 ea                	sbb    %ebp,%edx
 804e46a:	ff                   	(bad)  
 804e46b:	ff                   	(bad)  
 804e46c:	fc                   	cld    
 804e46d:	0c 00                	or     $0x0,%al
 804e46f:	00 37                	add    %dh,(%edi)
 804e471:	ea ff ff 10 0d 00 00 	ljmp   $0x0,$0xd10ffff
 804e478:	79 ea                	jns    804e464 <STUB_STRING+0x290>
 804e47a:	ff                   	(bad)  
 804e47b:	ff 30                	pushl  (%eax)
 804e47d:	0d 00 00 bb ea       	or     $0xeabb0000,%eax
 804e482:	ff                   	(bad)  
 804e483:	ff 50 0d             	call   *0xd(%eax)
 804e486:	00 00                	add    %al,(%eax)
 804e488:	fd                   	std    
 804e489:	ea ff ff 70 0d 00 00 	ljmp   $0x0,$0xd70ffff
 804e490:	3f                   	aas    
 804e491:	eb ff                	jmp    804e492 <STUB_STRING+0x2be>
 804e493:	ff 90 0d 00 00 81    	call   *-0x7efffff3(%eax)
 804e499:	eb ff                	jmp    804e49a <STUB_STRING+0x2c6>
 804e49b:	ff b0 0d 00 00 ac    	pushl  -0x53fffff3(%eax)
 804e4a1:	eb ff                	jmp    804e4a2 <STUB_STRING+0x2ce>
 804e4a3:	ff c8                	dec    %eax
 804e4a5:	0d 00 00 0d ec       	or     $0xec0d0000,%eax
 804e4aa:	ff                   	(bad)  
 804e4ab:	ff f4                	push   %esp
 804e4ad:	0d 00 00 5a ed       	or     $0xed5a0000,%eax
 804e4b2:	ff                   	(bad)  
 804e4b3:	ff 20                	jmp    *(%eax)
 804e4b5:	0e                   	push   %cs
 804e4b6:	00 00                	add    %al,(%eax)
 804e4b8:	4e                   	dec    %esi
 804e4b9:	ee                   	out    %al,(%dx)
 804e4ba:	ff                   	(bad)  
 804e4bb:	ff 54 0e 00          	call   *0x0(%esi,%ecx,1)
 804e4bf:	00 96 ee ff ff 78    	add    %dl,0x78ffffee(%esi)
 804e4c5:	0e                   	push   %cs
 804e4c6:	00 00                	add    %al,(%eax)
 804e4c8:	de ee                	fsubrp %st,%st(6)
 804e4ca:	ff                   	(bad)  
 804e4cb:	ff 9c 0e 00 00 af f0 	lcall  *-0xf510000(%esi,%ecx,1)
 804e4d2:	ff                   	(bad)  
 804e4d3:	ff dc                	lcall  *<internal disassembler error>
 804e4d5:	0e                   	push   %cs
 804e4d6:	00 00                	add    %al,(%eax)
 804e4d8:	0a f1                	or     %cl,%dh
 804e4da:	ff                   	(bad)  
 804e4db:	ff 08                	decl   (%eax)
 804e4dd:	0f 00 00             	sldt   (%eax)
 804e4e0:	52                   	push   %edx
 804e4e1:	f1                   	icebp  
 804e4e2:	ff                   	(bad)  
 804e4e3:	ff 2c 0f             	ljmp   *(%edi,%ecx,1)
 804e4e6:	00 00                	add    %al,(%eax)
 804e4e8:	b2 f1                	mov    $0xf1,%dl
 804e4ea:	ff                   	(bad)  
 804e4eb:	ff 50 0f             	call   *0xf(%eax)
 804e4ee:	00 00                	add    %al,(%eax)
 804e4f0:	18 f6                	sbb    %dh,%dh
 804e4f2:	ff                   	(bad)  
 804e4f3:	ff 90 0f 00 00 6a    	call   *0x6a00000f(%eax)
 804e4f9:	f6 ff                	idiv   %bh
 804e4fb:	ff b0 0f 00 00 84    	pushl  -0x7bfffff1(%eax)
 804e501:	f6 ff                	idiv   %bh
 804e503:	ff c8                	dec    %eax
 804e505:	0f 00 00             	sldt   (%eax)
 804e508:	8a f6                	mov    %dh,%dh
 804e50a:	ff                   	(bad)  
 804e50b:	ff dc                	lcall  *<internal disassembler error>
 804e50d:	0f 00 00             	sldt   (%eax)
 804e510:	b1 f6                	mov    $0xf6,%cl
 804e512:	ff                   	(bad)  
 804e513:	ff                   	(bad)  
 804e514:	fc                   	cld    
 804e515:	0f 00 00             	sldt   (%eax)
 804e518:	b7 f6                	mov    $0xf6,%bh
 804e51a:	ff                   	(bad)  
 804e51b:	ff 10                	call   *(%eax)
 804e51d:	10 00                	adc    %al,(%eax)
 804e51f:	00 e4                	add    %ah,%ah
 804e521:	f6 ff                	idiv   %bh
 804e523:	ff 30                	pushl  (%eax)
 804e525:	10 00                	adc    %al,(%eax)
 804e527:	00 54 f7 ff          	add    %dl,-0x1(%edi,%esi,8)
 804e52b:	ff 6c 10 00          	ljmp   *0x0(%eax,%edx,1)
 804e52f:	00 56 f7             	add    %dl,-0x9(%esi)
 804e532:	ff                   	(bad)  
 804e533:	ff                   	.byte 0xff
 804e534:	80 10 00             	adcb   $0x0,(%eax)
 804e537:	00                   	.byte 0x0

Disassembly of section .eh_frame:

0804e538 <__FRAME_END__-0xd38>:
 804e538:	14 00                	adc    $0x0,%al
 804e53a:	00 00                	add    %al,(%eax)
 804e53c:	00 00                	add    %al,(%eax)
 804e53e:	00 00                	add    %al,(%eax)
 804e540:	01 7a 52             	add    %edi,0x52(%edx)
 804e543:	00 01                	add    %al,(%ecx)
 804e545:	7c 08                	jl     804e54f <STUB_STRING+0x37b>
 804e547:	01 1b                	add    %ebx,(%ebx)
 804e549:	0c 04                	or     $0x4,%al
 804e54b:	04 88                	add    $0x88,%al
 804e54d:	01 00                	add    %eax,(%eax)
 804e54f:	00 20                	add    %ah,(%eax)
 804e551:	00 00                	add    %al,(%eax)
 804e553:	00 1c 00             	add    %bl,(%eax,%eax,1)
 804e556:	00 00                	add    %al,(%eax)
 804e558:	78 a7                	js     804e501 <STUB_STRING+0x32d>
 804e55a:	ff                   	(bad)  
 804e55b:	ff 10                	call   *(%eax)
 804e55d:	04 00                	add    $0x0,%al
 804e55f:	00 00                	add    %al,(%eax)
 804e561:	0e                   	push   %cs
 804e562:	08 46 0e             	or     %al,0xe(%esi)
 804e565:	0c 4a                	or     $0x4a,%al
 804e567:	0f 0b                	ud2    
 804e569:	74 04                	je     804e56f <STUB_STRING+0x39b>
 804e56b:	78 00                	js     804e56d <STUB_STRING+0x399>
 804e56d:	3f                   	aas    
 804e56e:	1a 3b                	sbb    (%ebx),%bh
 804e570:	2a 32                	sub    (%edx),%dh
 804e572:	24 22                	and    $0x22,%al
 804e574:	1c 00                	sbb    $0x0,%al
 804e576:	00 00                	add    %al,(%eax)
 804e578:	40                   	inc    %eax
 804e579:	00 00                	add    %al,(%eax)
 804e57b:	00 24 ac             	add    %ah,(%esp,%ebp,4)
 804e57e:	ff                   	(bad)  
 804e57f:	ff 27                	jmp    *(%edi)
 804e581:	00 00                	add    %al,(%eax)
 804e583:	00 00                	add    %al,(%eax)
 804e585:	41                   	inc    %ecx
 804e586:	0e                   	push   %cs
 804e587:	08 83 02 43 0e 20    	or     %al,0x200e4302(%ebx)
 804e58d:	61                   	popa   
 804e58e:	0e                   	push   %cs
 804e58f:	08 41 0e             	or     %al,0xe(%ecx)
 804e592:	04 c3                	add    $0xc3,%al
 804e594:	14 00                	adc    $0x0,%al
 804e596:	00 00                	add    %al,(%eax)
 804e598:	60                   	pusha  
 804e599:	00 00                	add    %al,(%eax)
 804e59b:	00 2b                	add    %ch,(%ebx)
 804e59d:	ac                   	lods   %ds:(%esi),%al
 804e59e:	ff                   	(bad)  
 804e59f:	ff 2f                	ljmp   *(%edi)
 804e5a1:	00 00                	add    %al,(%eax)
 804e5a3:	00 00                	add    %al,(%eax)
 804e5a5:	43                   	inc    %ebx
 804e5a6:	0e                   	push   %cs
 804e5a7:	20 6b 0e             	and    %ch,0xe(%ebx)
 804e5aa:	04 00                	add    $0x0,%al
 804e5ac:	10 00                	adc    %al,(%eax)
 804e5ae:	00 00                	add    %al,(%eax)
 804e5b0:	78 00                	js     804e5b2 <STUB_STRING+0x3de>
 804e5b2:	00 00                	add    %al,(%eax)
 804e5b4:	42                   	inc    %edx
 804e5b5:	ac                   	lods   %ds:(%esi),%al
 804e5b6:	ff                   	(bad)  
 804e5b7:	ff 30                	pushl  (%eax)
 804e5b9:	00 00                	add    %al,(%eax)
 804e5bb:	00 00                	add    %al,(%eax)
 804e5bd:	43                   	inc    %ebx
 804e5be:	0e                   	push   %cs
 804e5bf:	20 28                	and    %ch,(%eax)
 804e5c1:	00 00                	add    %al,(%eax)
 804e5c3:	00 8c 00 00 00 5e ac 	add    %cl,-0x53a20000(%eax,%eax,1)
 804e5ca:	ff                   	(bad)  
 804e5cb:	ff 90 02 00 00 00    	call   *0x2(%eax)
 804e5d1:	41                   	inc    %ecx
 804e5d2:	0e                   	push   %cs
 804e5d3:	08 86 02 41 0e 0c    	or     %al,0xc0e4102(%esi)
 804e5d9:	83 03 46             	addl   $0x46,(%ebx)
 804e5dc:	0e                   	push   %cs
 804e5dd:	80 02 03             	addb   $0x3,(%edx)
 804e5e0:	85 02                	test   %eax,(%edx)
 804e5e2:	0e                   	push   %cs
 804e5e3:	0c 41                	or     $0x41,%al
 804e5e5:	0e                   	push   %cs
 804e5e6:	08 c3                	or     %al,%bl
 804e5e8:	41                   	inc    %ecx
 804e5e9:	0e                   	push   %cs
 804e5ea:	04 c6                	add    $0xc6,%al
 804e5ec:	14 00                	adc    $0x0,%al
 804e5ee:	00 00                	add    %al,(%eax)
 804e5f0:	b8 00 00 00 c2       	mov    $0xc2000000,%eax
 804e5f5:	ae                   	scas   %es:(%edi),%al
 804e5f6:	ff                   	(bad)  
 804e5f7:	ff                   	(bad)  
 804e5f8:	bb 00 00 00 00       	mov    $0x0,%ebx
 804e5fd:	43                   	inc    %ebx
 804e5fe:	0e                   	push   %cs
 804e5ff:	20 02                	and    %al,(%edx)
 804e601:	b7 0e                	mov    $0xe,%bh
 804e603:	04 14                	add    $0x14,%al
 804e605:	00 00                	add    %al,(%eax)
 804e607:	00 d0                	add    %dl,%al
 804e609:	00 00                	add    %al,(%eax)
 804e60b:	00 65 af             	add    %ah,-0x51(%ebp)
 804e60e:	ff                   	(bad)  
 804e60f:	ff 1c 00             	lcall  *(%eax,%eax,1)
 804e612:	00 00                	add    %al,(%eax)
 804e614:	00 43 0e             	add    %al,0xe(%ebx)
 804e617:	20 58 0e             	and    %bl,0xe(%eax)
 804e61a:	04 00                	add    $0x0,%al
 804e61c:	28 00                	sub    %al,(%eax)
 804e61e:	00 00                	add    %al,(%eax)
 804e620:	e8 00 00 00 69       	call   7104e625 <_end+0x68ffd0e1>
 804e625:	af                   	scas   %es:(%edi),%eax
 804e626:	ff                   	(bad)  
 804e627:	ff 93 06 00 00 00    	call   *0x6(%ebx)
 804e62d:	41                   	inc    %ecx
 804e62e:	0e                   	push   %cs
 804e62f:	08 85 02 42 0d 05    	or     %al,0x50d4202(%ebp)
 804e635:	4b                   	dec    %ebx
 804e636:	83 04 86 03          	addl   $0x3,(%esi,%eax,4)
 804e63a:	03 82 06 c3 41 c6    	add    -0x39be3cfa(%edx),%eax
 804e640:	41                   	inc    %ecx
 804e641:	0c 04                	or     $0x4,%al
 804e643:	04 c5                	add    $0xc5,%al
 804e645:	00 00                	add    %al,(%eax)
 804e647:	00 30                	add    %dh,(%eax)
 804e649:	00 00                	add    %al,(%eax)
 804e64b:	00 14 01             	add    %dl,(%ecx,%eax,1)
 804e64e:	00 00                	add    %al,(%eax)
 804e650:	d0                   	(bad)  
 804e651:	b5 ff                	mov    $0xff,%ch
 804e653:	ff 22                	jmp    *(%edx)
 804e655:	01 00                	add    %eax,(%eax)
 804e657:	00 00                	add    %al,(%eax)
 804e659:	41                   	inc    %ecx
 804e65a:	0e                   	push   %cs
 804e65b:	08 87 02 41 0e 0c    	or     %al,0xc0e4102(%edi)
 804e661:	86 03                	xchg   %al,(%ebx)
 804e663:	41                   	inc    %ecx
 804e664:	0e                   	push   %cs
 804e665:	10 83 04 43 0e 20    	adc    %al,0x200e4304(%ebx)
 804e66b:	03 18                	add    (%eax),%ebx
 804e66d:	01 0e                	add    %ecx,(%esi)
 804e66f:	10 41 0e             	adc    %al,0xe(%ecx)
 804e672:	0c c3                	or     $0xc3,%al
 804e674:	41                   	inc    %ecx
 804e675:	0e                   	push   %cs
 804e676:	08 c6                	or     %al,%dh
 804e678:	41                   	inc    %ecx
 804e679:	0e                   	push   %cs
 804e67a:	04 c7                	add    $0xc7,%al
 804e67c:	14 00                	adc    $0x0,%al
 804e67e:	00 00                	add    %al,(%eax)
 804e680:	48                   	dec    %eax
 804e681:	01 00                	add    %eax,(%eax)
 804e683:	00 be b6 ff ff 41    	add    %bh,0x41ffffb6(%esi)
 804e689:	00 00                	add    %al,(%eax)
 804e68b:	00 00                	add    %al,(%eax)
 804e68d:	43                   	inc    %ebx
 804e68e:	0e                   	push   %cs
 804e68f:	30 7d 0e             	xor    %bh,0xe(%ebp)
 804e692:	04 00                	add    $0x0,%al
 804e694:	14 00                	adc    $0x0,%al
 804e696:	00 00                	add    %al,(%eax)
 804e698:	60                   	pusha  
 804e699:	01 00                	add    %eax,(%eax)
 804e69b:	00 e7                	add    %ah,%bh
 804e69d:	b6 ff                	mov    $0xff,%dh
 804e69f:	ff 2d 00 00 00 00    	ljmp   *0x0
 804e6a5:	43                   	inc    %ebx
 804e6a6:	0e                   	push   %cs
 804e6a7:	20 69 0e             	and    %ch,0xe(%ecx)
 804e6aa:	04 00                	add    $0x0,%al
 804e6ac:	10 00                	adc    %al,(%eax)
 804e6ae:	00 00                	add    %al,(%eax)
 804e6b0:	78 01                	js     804e6b3 <STUB_STRING+0x4df>
 804e6b2:	00 00                	add    %al,(%eax)
 804e6b4:	fc                   	cld    
 804e6b5:	b6 ff                	mov    $0xff,%dh
 804e6b7:	ff 06                	incl   (%esi)
 804e6b9:	00 00                	add    %al,(%eax)
 804e6bb:	00 00                	add    %al,(%eax)
 804e6bd:	00 00                	add    %al,(%eax)
 804e6bf:	00 38                	add    %bh,(%eax)
 804e6c1:	00 00                	add    %al,(%eax)
 804e6c3:	00 8c 01 00 00 ee b6 	add    %cl,-0x49120000(%ecx,%eax,1)
 804e6ca:	ff                   	(bad)  
 804e6cb:	ff 6f 00             	ljmp   *0x0(%edi)
 804e6ce:	00 00                	add    %al,(%eax)
 804e6d0:	00 41 0e             	add    %al,0xe(%ecx)
 804e6d3:	08 85 02 41 0e 0c    	or     %al,0xc0e4102(%ebp)
 804e6d9:	87 03                	xchg   %eax,(%ebx)
 804e6db:	41                   	inc    %ecx
 804e6dc:	0e                   	push   %cs
 804e6dd:	10 86 04 41 0e 14    	adc    %al,0x140e4104(%esi)
 804e6e3:	83 05 43 0e 30 02 63 	addl   $0x63,0x2300e43
 804e6ea:	0e                   	push   %cs
 804e6eb:	14 41                	adc    $0x41,%al
 804e6ed:	0e                   	push   %cs
 804e6ee:	10 c3                	adc    %al,%bl
 804e6f0:	41                   	inc    %ecx
 804e6f1:	0e                   	push   %cs
 804e6f2:	0c c6                	or     $0xc6,%al
 804e6f4:	41                   	inc    %ecx
 804e6f5:	0e                   	push   %cs
 804e6f6:	08 c7                	or     %al,%bh
 804e6f8:	41                   	inc    %ecx
 804e6f9:	0e                   	push   %cs
 804e6fa:	04 c5                	add    $0xc5,%al
 804e6fc:	3c 00                	cmp    $0x0,%al
 804e6fe:	00 00                	add    %al,(%eax)
 804e700:	c8 01 00 00          	enter  $0x1,$0x0
 804e704:	21 b7 ff ff 68 02    	and    %esi,0x268ffff(%edi)
 804e70a:	00 00                	add    %al,(%eax)
 804e70c:	00 41 0e             	add    %al,0xe(%ecx)
 804e70f:	08 85 02 41 0e 0c    	or     %al,0xc0e4102(%ebp)
 804e715:	87 03                	xchg   %eax,(%ebx)
 804e717:	41                   	inc    %ecx
 804e718:	0e                   	push   %cs
 804e719:	10 86 04 41 0e 14    	adc    %al,0x140e4104(%esi)
 804e71f:	83 05 43 0e 30 03 09 	addl   $0x9,0x3300e43
 804e726:	02 0a                	add    (%edx),%cl
 804e728:	0e                   	push   %cs
 804e729:	14 41                	adc    $0x41,%al
 804e72b:	0e                   	push   %cs
 804e72c:	10 c3                	adc    %al,%bl
 804e72e:	41                   	inc    %ecx
 804e72f:	0e                   	push   %cs
 804e730:	0c c6                	or     $0xc6,%al
 804e732:	41                   	inc    %ecx
 804e733:	0e                   	push   %cs
 804e734:	08 c7                	or     %al,%bh
 804e736:	41                   	inc    %ecx
 804e737:	0e                   	push   %cs
 804e738:	04 c5                	add    $0xc5,%al
 804e73a:	41                   	inc    %ecx
 804e73b:	0b 3c 00             	or     (%eax,%eax,1),%edi
 804e73e:	00 00                	add    %al,(%eax)
 804e740:	08 02                	or     %al,(%edx)
 804e742:	00 00                	add    %al,(%eax)
 804e744:	4c                   	dec    %esp
 804e745:	b9 ff ff f0 03       	mov    $0x3f0ffff,%ecx
 804e74a:	00 00                	add    %al,(%eax)
 804e74c:	00 41 0e             	add    %al,0xe(%ecx)
 804e74f:	08 85 02 41 0e 0c    	or     %al,0xc0e4102(%ebp)
 804e755:	87 03                	xchg   %eax,(%ebx)
 804e757:	41                   	inc    %ecx
 804e758:	0e                   	push   %cs
 804e759:	10 86 04 41 0e 14    	adc    %al,0x140e4104(%esi)
 804e75f:	83 05 46 0e 80 06 03 	addl   $0x3,0x6800e46
 804e766:	e1 03                	loope  804e76b <STUB_STRING+0x597>
 804e768:	0e                   	push   %cs
 804e769:	14 41                	adc    $0x41,%al
 804e76b:	0e                   	push   %cs
 804e76c:	10 c3                	adc    %al,%bl
 804e76e:	41                   	inc    %ecx
 804e76f:	0e                   	push   %cs
 804e770:	0c c6                	or     $0xc6,%al
 804e772:	41                   	inc    %ecx
 804e773:	0e                   	push   %cs
 804e774:	08 c7                	or     %al,%bh
 804e776:	41                   	inc    %ecx
 804e777:	0e                   	push   %cs
 804e778:	04 c5                	add    $0xc5,%al
 804e77a:	00 00                	add    %al,(%eax)
 804e77c:	20 00                	and    %al,(%eax)
 804e77e:	00 00                	add    %al,(%eax)
 804e780:	48                   	dec    %eax
 804e781:	02 00                	add    (%eax),%al
 804e783:	00 fc                	add    %bh,%ah
 804e785:	bc ff ff 06 02       	mov    $0x206ffff,%esp
 804e78a:	00 00                	add    %al,(%eax)
 804e78c:	00 41 0e             	add    %al,0xe(%ecx)
 804e78f:	08 83 02 43 0e 20    	or     %al,0x200e4302(%ebx)
 804e795:	03 00                	add    (%eax),%eax
 804e797:	02 0e                	add    (%esi),%cl
 804e799:	08 41 0e             	or     %al,0xe(%ecx)
 804e79c:	04 c3                	add    $0xc3,%al
 804e79e:	00 00                	add    %al,(%eax)
 804e7a0:	14 00                	adc    $0x0,%al
 804e7a2:	00 00                	add    %al,(%eax)
 804e7a4:	6c                   	insb   (%dx),%es:(%edi)
 804e7a5:	02 00                	add    (%eax),%al
 804e7a7:	00 de                	add    %bl,%dh
 804e7a9:	be ff ff cb 00       	mov    $0xcbffff,%esi
 804e7ae:	00 00                	add    %al,(%eax)
 804e7b0:	00 43 0e             	add    %al,0xe(%ebx)
 804e7b3:	20 02                	and    %al,(%edx)
 804e7b5:	c7                   	(bad)  
 804e7b6:	0e                   	push   %cs
 804e7b7:	04 14                	add    $0x14,%al
 804e7b9:	00 00                	add    %al,(%eax)
 804e7bb:	00 84 02 00 00 a0 bf 	add    %al,-0x40600000(%edx,%eax,1)
 804e7c2:	ff                   	(bad)  
 804e7c3:	ff 23                	jmp    *(%ebx)
 804e7c5:	00 00                	add    %al,(%eax)
 804e7c7:	00 00                	add    %al,(%eax)
 804e7c9:	43                   	inc    %ebx
 804e7ca:	0e                   	push   %cs
 804e7cb:	20 5f 0e             	and    %bl,0xe(%edi)
 804e7ce:	04 00                	add    $0x0,%al
 804e7d0:	1c 00                	sbb    $0x0,%al
 804e7d2:	00 00                	add    %al,(%eax)
 804e7d4:	9c                   	pushf  
 804e7d5:	02 00                	add    (%eax),%al
 804e7d7:	00 ab bf ff ff 27    	add    %ch,0x27ffffbf(%ebx)
 804e7dd:	00 00                	add    %al,(%eax)
 804e7df:	00 00                	add    %al,(%eax)
 804e7e1:	41                   	inc    %ecx
 804e7e2:	0e                   	push   %cs
 804e7e3:	08 83 02 43 0e 20    	or     %al,0x200e4302(%ebx)
 804e7e9:	61                   	popa   
 804e7ea:	0e                   	push   %cs
 804e7eb:	08 41 0e             	or     %al,0xe(%ecx)
 804e7ee:	04 c3                	add    $0xc3,%al
 804e7f0:	20 00                	and    %al,(%eax)
 804e7f2:	00 00                	add    %al,(%eax)
 804e7f4:	bc 02 00 00 b2       	mov    $0xb2000002,%esp
 804e7f9:	bf ff ff dc 00       	mov    $0xdcffff,%edi
 804e7fe:	00 00                	add    %al,(%eax)
 804e800:	00 41 0e             	add    %al,0xe(%ecx)
 804e803:	08 87 02 46 0e c0    	or     %al,-0x3ff1b9fe(%edi)
 804e809:	04 02                	add    $0x2,%al
 804e80b:	d3 0e                	rorl   %cl,(%esi)
 804e80d:	08 41 0e             	or     %al,0xe(%ecx)
 804e810:	04 c7                	add    $0xc7,%al
 804e812:	00 00                	add    %al,(%eax)
 804e814:	3c 00                	cmp    $0x0,%al
 804e816:	00 00                	add    %al,(%eax)
 804e818:	e0 02                	loopne 804e81c <STUB_STRING+0x648>
 804e81a:	00 00                	add    %al,(%eax)
 804e81c:	6a c0                	push   $0xffffffc0
 804e81e:	ff                   	(bad)  
 804e81f:	ff 86 02 00 00 00    	incl   0x2(%esi)
 804e825:	41                   	inc    %ecx
 804e826:	0e                   	push   %cs
 804e827:	08 85 02 41 0e 0c    	or     %al,0xc0e4102(%ebp)
 804e82d:	87 03                	xchg   %eax,(%ebx)
 804e82f:	41                   	inc    %ecx
 804e830:	0e                   	push   %cs
 804e831:	10 86 04 41 0e 14    	adc    %al,0x140e4104(%esi)
 804e837:	83 05 43 0e 30 03 22 	addl   $0x22,0x3300e43
 804e83e:	02 0a                	add    (%edx),%cl
 804e840:	0e                   	push   %cs
 804e841:	14 41                	adc    $0x41,%al
 804e843:	0e                   	push   %cs
 804e844:	10 c3                	adc    %al,%bl
 804e846:	41                   	inc    %ecx
 804e847:	0e                   	push   %cs
 804e848:	0c c6                	or     $0xc6,%al
 804e84a:	41                   	inc    %ecx
 804e84b:	0e                   	push   %cs
 804e84c:	08 c7                	or     %al,%bh
 804e84e:	41                   	inc    %ecx
 804e84f:	0e                   	push   %cs
 804e850:	04 c5                	add    $0xc5,%al
 804e852:	41                   	inc    %ecx
 804e853:	0b 10                	or     (%eax),%edx
 804e855:	00 00                	add    %al,(%eax)
 804e857:	00 20                	add    %ah,(%eax)
 804e859:	03 00                	add    (%eax),%eax
 804e85b:	00 b0 c2 ff ff 21    	add    %dh,0x21ffffc2(%eax)
 804e861:	00 00                	add    %al,(%eax)
 804e863:	00 00                	add    %al,(%eax)
 804e865:	00 00                	add    %al,(%eax)
 804e867:	00 1c 00             	add    %bl,(%eax,%eax,1)
 804e86a:	00 00                	add    %al,(%eax)
 804e86c:	34 03                	xor    $0x3,%al
 804e86e:	00 00                	add    %al,(%eax)
 804e870:	bd c2 ff ff 4d       	mov    $0x4dffffc2,%ebp
 804e875:	00 00                	add    %al,(%eax)
 804e877:	00 00                	add    %al,(%eax)
 804e879:	43                   	inc    %ebx
 804e87a:	0e                   	push   %cs
 804e87b:	20 4c 87 02          	and    %cl,0x2(%edi,%eax,4)
 804e87f:	83 03 7d             	addl   $0x7d,(%ebx)
 804e882:	0e                   	push   %cs
 804e883:	04 c7                	add    $0xc7,%al
 804e885:	c3                   	ret    
 804e886:	00 00                	add    %al,(%eax)
 804e888:	20 00                	and    %al,(%eax)
 804e88a:	00 00                	add    %al,(%eax)
 804e88c:	54                   	push   %esp
 804e88d:	03 00                	add    (%eax),%eax
 804e88f:	00 ea                	add    %ch,%dl
 804e891:	c2 ff ff             	ret    $0xffff
 804e894:	6b 00 00             	imul   $0x0,(%eax),%eax
 804e897:	00 00                	add    %al,(%eax)
 804e899:	41                   	inc    %ecx
 804e89a:	0e                   	push   %cs
 804e89b:	08 83 02 43 0e 60    	or     %al,0x600e4302(%ebx)
 804e8a1:	02 65 0e             	add    0xe(%ebp),%ah
 804e8a4:	08 41 0e             	or     %al,0xe(%ecx)
 804e8a7:	04 c3                	add    $0xc3,%al
 804e8a9:	00 00                	add    %al,(%eax)
 804e8ab:	00 20                	add    %ah,(%eax)
 804e8ad:	00 00                	add    %al,(%eax)
 804e8af:	00 78 03             	add    %bh,0x3(%eax)
 804e8b2:	00 00                	add    %al,(%eax)
 804e8b4:	31 c3                	xor    %eax,%ebx
 804e8b6:	ff                   	(bad)  
 804e8b7:	ff 64 00 00          	jmp    *0x0(%eax,%eax,1)
 804e8bb:	00 00                	add    %al,(%eax)
 804e8bd:	41                   	inc    %ecx
 804e8be:	0e                   	push   %cs
 804e8bf:	08 83 02 43 0e 60    	or     %al,0x600e4302(%ebx)
 804e8c5:	02 5e 0e             	add    0xe(%esi),%bl
 804e8c8:	08 41 0e             	or     %al,0xe(%ecx)
 804e8cb:	04 c3                	add    $0xc3,%al
 804e8cd:	00 00                	add    %al,(%eax)
 804e8cf:	00 20                	add    %ah,(%eax)
 804e8d1:	00 00                	add    %al,(%eax)
 804e8d3:	00 9c 03 00 00 71 c3 	add    %bl,-0x3c8f0000(%ebx,%eax,1)
 804e8da:	ff                   	(bad)  
 804e8db:	ff 64 00 00          	jmp    *0x0(%eax,%eax,1)
 804e8df:	00 00                	add    %al,(%eax)
 804e8e1:	41                   	inc    %ecx
 804e8e2:	0e                   	push   %cs
 804e8e3:	08 83 02 43 0e 60    	or     %al,0x600e4302(%ebx)
 804e8e9:	02 5e 0e             	add    0xe(%esi),%bl
 804e8ec:	08 41 0e             	or     %al,0xe(%ecx)
 804e8ef:	04 c3                	add    $0xc3,%al
 804e8f1:	00 00                	add    %al,(%eax)
 804e8f3:	00 20                	add    %ah,(%eax)
 804e8f5:	00 00                	add    %al,(%eax)
 804e8f7:	00 c0                	add    %al,%al
 804e8f9:	03 00                	add    (%eax),%eax
 804e8fb:	00 b1 c3 ff ff 64    	add    %dh,0x64ffffc3(%ecx)
 804e901:	00 00                	add    %al,(%eax)
 804e903:	00 00                	add    %al,(%eax)
 804e905:	41                   	inc    %ecx
 804e906:	0e                   	push   %cs
 804e907:	08 83 02 43 0e 60    	or     %al,0x600e4302(%ebx)
 804e90d:	02 5e 0e             	add    0xe(%esi),%bl
 804e910:	08 41 0e             	or     %al,0xe(%ecx)
 804e913:	04 c3                	add    $0xc3,%al
 804e915:	00 00                	add    %al,(%eax)
 804e917:	00 20                	add    %ah,(%eax)
 804e919:	00 00                	add    %al,(%eax)
 804e91b:	00 e4                	add    %ah,%ah
 804e91d:	03 00                	add    (%eax),%eax
 804e91f:	00 f1                	add    %dh,%cl
 804e921:	c3                   	ret    
 804e922:	ff                   	(bad)  
 804e923:	ff 64 00 00          	jmp    *0x0(%eax,%eax,1)
 804e927:	00 00                	add    %al,(%eax)
 804e929:	41                   	inc    %ecx
 804e92a:	0e                   	push   %cs
 804e92b:	08 83 02 43 0e 60    	or     %al,0x600e4302(%ebx)
 804e931:	02 5e 0e             	add    0xe(%esi),%bl
 804e934:	08 41 0e             	or     %al,0xe(%ecx)
 804e937:	04 c3                	add    $0xc3,%al
 804e939:	00 00                	add    %al,(%eax)
 804e93b:	00 20                	add    %ah,(%eax)
 804e93d:	00 00                	add    %al,(%eax)
 804e93f:	00 08                	add    %cl,(%eax)
 804e941:	04 00                	add    $0x0,%al
 804e943:	00 31                	add    %dh,(%ecx)
 804e945:	c4                   	(bad)  
 804e946:	ff                   	(bad)  
 804e947:	ff 6f 00             	ljmp   *0x0(%edi)
 804e94a:	00 00                	add    %al,(%eax)
 804e94c:	00 41 0e             	add    %al,0xe(%ecx)
 804e94f:	08 83 02 43 0e 60    	or     %al,0x600e4302(%ebx)
 804e955:	02 69 0e             	add    0xe(%ecx),%ch
 804e958:	08 41 0e             	or     %al,0xe(%ecx)
 804e95b:	04 c3                	add    $0xc3,%al
 804e95d:	00 00                	add    %al,(%eax)
 804e95f:	00 14 00             	add    %dl,(%eax,%eax,1)
 804e962:	00 00                	add    %al,(%eax)
 804e964:	2c 04                	sub    $0x4,%al
 804e966:	00 00                	add    %al,(%eax)
 804e968:	7c c4                	jl     804e92e <STUB_STRING+0x75a>
 804e96a:	ff                   	(bad)  
 804e96b:	ff                   	(bad)  
 804e96c:	39 00                	cmp    %eax,(%eax)
 804e96e:	00 00                	add    %al,(%eax)
 804e970:	00 43 0e             	add    %al,0xe(%ebx)
 804e973:	20 75 0e             	and    %dh,0xe(%ebp)
 804e976:	04 00                	add    $0x0,%al
 804e978:	14 00                	adc    $0x0,%al
 804e97a:	00 00                	add    %al,(%eax)
 804e97c:	44                   	inc    %esp
 804e97d:	04 00                	add    $0x0,%al
 804e97f:	00 9d c4 ff ff 20    	add    %bl,0x20ffffc4(%ebp)
 804e985:	00 00                	add    %al,(%eax)
 804e987:	00 00                	add    %al,(%eax)
 804e989:	43                   	inc    %ebx
 804e98a:	0e                   	push   %cs
 804e98b:	20 5c 0e 04          	and    %bl,0x4(%esi,%ecx,1)
 804e98f:	00 24 00             	add    %ah,(%eax,%eax,1)
 804e992:	00 00                	add    %al,(%eax)
 804e994:	5c                   	pop    %esp
 804e995:	04 00                	add    $0x0,%al
 804e997:	00 a5 c4 ff ff 35    	add    %ah,0x35ffffc4(%ebp)
 804e99d:	02 00                	add    (%eax),%al
 804e99f:	00 00                	add    %al,(%eax)
 804e9a1:	43                   	inc    %ebx
 804e9a2:	0e                   	push   %cs
 804e9a3:	30 58 85             	xor    %bl,-0x7b(%eax)
 804e9a6:	02 87 03 86 04 83    	add    -0x7cfb79fd(%edi),%al
 804e9ac:	05 03 19 02 0e       	add    $0xe021903,%eax
 804e9b1:	04 c5                	add    $0xc5,%al
 804e9b3:	c7 c6 c3 00 00 3c    	mov    $0x3c0000c3,%esi
 804e9b9:	00 00                	add    %al,(%eax)
 804e9bb:	00 84 04 00 00 b2 c6 	add    %al,-0x394e0000(%esp,%eax,1)
 804e9c2:	ff                   	(bad)  
 804e9c3:	ff                   	(bad)  
 804e9c4:	fe 07                	incb   (%edi)
 804e9c6:	00 00                	add    %al,(%eax)
 804e9c8:	00 41 0e             	add    %al,0xe(%ecx)
 804e9cb:	08 85 02 41 0e 0c    	or     %al,0xc0e4102(%ebp)
 804e9d1:	87 03                	xchg   %eax,(%ebx)
 804e9d3:	41                   	inc    %ecx
 804e9d4:	0e                   	push   %cs
 804e9d5:	10 86 04 41 0e 14    	adc    %al,0x140e4104(%esi)
 804e9db:	83 05 46 0e f0 07 03 	addl   $0x3,0x7f00e46
 804e9e2:	ef                   	out    %eax,(%dx)
 804e9e3:	07                   	pop    %es
 804e9e4:	0e                   	push   %cs
 804e9e5:	14 41                	adc    $0x41,%al
 804e9e7:	0e                   	push   %cs
 804e9e8:	10 c3                	adc    %al,%bl
 804e9ea:	41                   	inc    %ecx
 804e9eb:	0e                   	push   %cs
 804e9ec:	0c c6                	or     $0xc6,%al
 804e9ee:	41                   	inc    %ecx
 804e9ef:	0e                   	push   %cs
 804e9f0:	08 c7                	or     %al,%bh
 804e9f2:	41                   	inc    %ecx
 804e9f3:	0e                   	push   %cs
 804e9f4:	04 c5                	add    $0xc5,%al
 804e9f6:	00 00                	add    %al,(%eax)
 804e9f8:	20 00                	and    %al,(%eax)
 804e9fa:	00 00                	add    %al,(%eax)
 804e9fc:	c4 04 00             	les    (%eax,%eax,1),%eax
 804e9ff:	00 70 ce             	add    %dh,-0x32(%eax)
 804ea02:	ff                   	(bad)  
 804ea03:	ff ce                	dec    %esi
 804ea05:	00 00                	add    %al,(%eax)
 804ea07:	00 00                	add    %al,(%eax)
 804ea09:	41                   	inc    %ecx
 804ea0a:	0e                   	push   %cs
 804ea0b:	08 83 02 43 0e 20    	or     %al,0x200e4302(%ebx)
 804ea11:	02 c8                	add    %al,%cl
 804ea13:	0e                   	push   %cs
 804ea14:	08 41 0e             	or     %al,0xe(%ecx)
 804ea17:	04 c3                	add    $0xc3,%al
 804ea19:	00 00                	add    %al,(%eax)
 804ea1b:	00 14 00             	add    %dl,(%eax,%eax,1)
 804ea1e:	00 00                	add    %al,(%eax)
 804ea20:	e8 04 00 00 1a       	call   2204ea29 <_end+0x19ffd4e5>
 804ea25:	cf                   	iret   
 804ea26:	ff                   	(bad)  
 804ea27:	ff 33                	pushl  (%ebx)
 804ea29:	00 00                	add    %al,(%eax)
 804ea2b:	00 00                	add    %al,(%eax)
 804ea2d:	43                   	inc    %ebx
 804ea2e:	0e                   	push   %cs
 804ea2f:	20 6f 0e             	and    %ch,0xe(%edi)
 804ea32:	04 00                	add    $0x0,%al
 804ea34:	20 00                	and    %al,(%eax)
 804ea36:	00 00                	add    %al,(%eax)
 804ea38:	00 05 00 00 44 cf    	add    %al,0xcf440000
 804ea3e:	ff                   	(bad)  
 804ea3f:	ff 67 00             	jmp    *0x0(%edi)
 804ea42:	00 00                	add    %al,(%eax)
 804ea44:	00 41 0e             	add    %al,0xe(%ecx)
 804ea47:	08 83 02 43 0e 20    	or     %al,0x200e4302(%ebx)
 804ea4d:	02 61 0e             	add    0xe(%ecx),%ah
 804ea50:	08 41 0e             	or     %al,0xe(%ecx)
 804ea53:	04 c3                	add    $0xc3,%al
 804ea55:	00 00                	add    %al,(%eax)
 804ea57:	00 30                	add    %dh,(%eax)
 804ea59:	00 00                	add    %al,(%eax)
 804ea5b:	00 24 05 00 00 87 cf 	add    %ah,-0x30790000(,%eax,1)
 804ea62:	ff                   	(bad)  
 804ea63:	ff 03                	incl   (%ebx)
 804ea65:	01 00                	add    %eax,(%eax)
 804ea67:	00 00                	add    %al,(%eax)
 804ea69:	41                   	inc    %ecx
 804ea6a:	0e                   	push   %cs
 804ea6b:	08 87 02 41 0e 0c    	or     %al,0xc0e4102(%edi)
 804ea71:	86 03                	xchg   %al,(%ebx)
 804ea73:	41                   	inc    %ecx
 804ea74:	0e                   	push   %cs
 804ea75:	10 83 04 46 0e b0    	adc    %al,-0x4ff1b9fc(%ebx)
 804ea7b:	02 02                	add    (%edx),%al
 804ea7d:	f6                   	(bad)  
 804ea7e:	0e                   	push   %cs
 804ea7f:	10 41 0e             	adc    %al,0xe(%ecx)
 804ea82:	0c c3                	or     $0xc3,%al
 804ea84:	41                   	inc    %ecx
 804ea85:	0e                   	push   %cs
 804ea86:	08 c6                	or     %al,%dh
 804ea88:	41                   	inc    %ecx
 804ea89:	0e                   	push   %cs
 804ea8a:	04 c7                	add    $0xc7,%al
 804ea8c:	18 00                	sbb    %al,(%eax)
 804ea8e:	00 00                	add    %al,(%eax)
 804ea90:	58                   	pop    %eax
 804ea91:	05 00 00 58 d0       	add    $0xd0580000,%eax
 804ea96:	ff                   	(bad)  
 804ea97:	ff ea                	ljmp   *<internal disassembler error>
 804ea99:	04 00                	add    $0x0,%al
 804ea9b:	00 00                	add    %al,(%eax)
 804ea9d:	41                   	inc    %ecx
 804ea9e:	0e                   	push   %cs
 804ea9f:	08 83 02 46 0e b0    	or     %al,-0x4ff1b9fe(%ebx)
 804eaa5:	01 00                	add    %eax,(%eax)
 804eaa7:	00 18                	add    %bl,(%eax)
 804eaa9:	00 00                	add    %al,(%eax)
 804eaab:	00 74 05 00          	add    %dh,0x0(%ebp,%eax,1)
 804eaaf:	00 26                	add    %ah,(%esi)
 804eab1:	d5 ff                	aad    $0xff
 804eab3:	ff e4                	jmp    *%esp
 804eab5:	02 00                	add    (%eax),%al
 804eab7:	00 00                	add    %al,(%eax)
 804eab9:	41                   	inc    %ecx
 804eaba:	0e                   	push   %cs
 804eabb:	08 83 02 46 0e b0    	or     %al,-0x4ff1b9fe(%ebx)
 804eac1:	01 00                	add    %eax,(%eax)
 804eac3:	00 14 00             	add    %dl,(%eax,%eax,1)
 804eac6:	00 00                	add    %al,(%eax)
 804eac8:	90                   	nop
 804eac9:	05 00 00 ee d7       	add    $0xd7ee0000,%eax
 804eace:	ff                   	(bad)  
 804eacf:	ff                   	(bad)  
 804ead0:	3e 00 00             	add    %al,%ds:(%eax)
 804ead3:	00 00                	add    %al,(%eax)
 804ead5:	43                   	inc    %ebx
 804ead6:	0e                   	push   %cs
 804ead7:	20 7a 0e             	and    %bh,0xe(%edx)
 804eada:	04 00                	add    $0x0,%al
 804eadc:	14 00                	adc    $0x0,%al
 804eade:	00 00                	add    %al,(%eax)
 804eae0:	a8 05                	test   $0x5,%al
 804eae2:	00 00                	add    %al,(%eax)
 804eae4:	14 d8                	adc    $0xd8,%al
 804eae6:	ff                   	(bad)  
 804eae7:	ff 48 00             	decl   0x0(%eax)
 804eaea:	00 00                	add    %al,(%eax)
 804eaec:	00 43 0e             	add    %al,0xe(%ebx)
 804eaef:	20 02                	and    %al,(%edx)
 804eaf1:	44                   	inc    %esp
 804eaf2:	0e                   	push   %cs
 804eaf3:	04 14                	add    $0x14,%al
 804eaf5:	00 00                	add    %al,(%eax)
 804eaf7:	00 c0                	add    %al,%al
 804eaf9:	05 00 00 44 d8       	add    $0xd8440000,%eax
 804eafe:	ff                   	(bad)  
 804eaff:	ff                   	(bad)  
 804eb00:	3a 00                	cmp    (%eax),%al
 804eb02:	00 00                	add    %al,(%eax)
 804eb04:	00 43 0e             	add    %al,0xe(%ebx)
 804eb07:	20 76 0e             	and    %dh,0xe(%esi)
 804eb0a:	04 00                	add    $0x0,%al
 804eb0c:	14 00                	adc    $0x0,%al
 804eb0e:	00 00                	add    %al,(%eax)
 804eb10:	d8 05 00 00 66 d8    	fadds  0xd8660000
 804eb16:	ff                   	(bad)  
 804eb17:	ff                   	(bad)  
 804eb18:	3a 00                	cmp    (%eax),%al
 804eb1a:	00 00                	add    %al,(%eax)
 804eb1c:	00 43 0e             	add    %al,0xe(%ebx)
 804eb1f:	20 76 0e             	and    %dh,0xe(%esi)
 804eb22:	04 00                	add    $0x0,%al
 804eb24:	14 00                	adc    $0x0,%al
 804eb26:	00 00                	add    %al,(%eax)
 804eb28:	f0 05 00 00 88 d8    	lock add $0xd8880000,%eax
 804eb2e:	ff                   	(bad)  
 804eb2f:	ff 43 00             	incl   0x0(%ebx)
 804eb32:	00 00                	add    %al,(%eax)
 804eb34:	00 43 0e             	add    %al,0xe(%ebx)
 804eb37:	20 7f 0e             	and    %bh,0xe(%edi)
 804eb3a:	04 00                	add    $0x0,%al
 804eb3c:	14 00                	adc    $0x0,%al
 804eb3e:	00 00                	add    %al,(%eax)
 804eb40:	08 06                	or     %al,(%esi)
 804eb42:	00 00                	add    %al,(%eax)
 804eb44:	b3 d8                	mov    $0xd8,%bl
 804eb46:	ff                   	(bad)  
 804eb47:	ff d7                	call   *%edi
 804eb49:	00 00                	add    %al,(%eax)
 804eb4b:	00 00                	add    %al,(%eax)
 804eb4d:	43                   	inc    %ebx
 804eb4e:	0e                   	push   %cs
 804eb4f:	20 02                	and    %al,(%edx)
 804eb51:	d3 0e                	rorl   %cl,(%esi)
 804eb53:	04 14                	add    $0x14,%al
 804eb55:	00 00                	add    %al,(%eax)
 804eb57:	00 20                	add    %ah,(%eax)
 804eb59:	06                   	push   %es
 804eb5a:	00 00                	add    %al,(%eax)
 804eb5c:	72 d9                	jb     804eb37 <STUB_STRING+0x963>
 804eb5e:	ff                   	(bad)  
 804eb5f:	ff f5                	push   %ebp
 804eb61:	00 00                	add    %al,(%eax)
 804eb63:	00 00                	add    %al,(%eax)
 804eb65:	43                   	inc    %ebx
 804eb66:	0e                   	push   %cs
 804eb67:	20 02                	and    %al,(%edx)
 804eb69:	f1                   	icebp  
 804eb6a:	0e                   	push   %cs
 804eb6b:	04 10                	add    $0x10,%al
 804eb6d:	00 00                	add    %al,(%eax)
 804eb6f:	00 38                	add    %bh,(%eax)
 804eb71:	06                   	push   %es
 804eb72:	00 00                	add    %al,(%eax)
 804eb74:	5c                   	pop    %esp
 804eb75:	da ff                	(bad)  
 804eb77:	ff 06                	incl   (%esi)
 804eb79:	00 00                	add    %al,(%eax)
 804eb7b:	00 00                	add    %al,(%eax)
 804eb7d:	00 00                	add    %al,(%eax)
 804eb7f:	00 10                	add    %dl,(%eax)
 804eb81:	00 00                	add    %al,(%eax)
 804eb83:	00 4c 06 00          	add    %cl,0x0(%esi,%eax,1)
 804eb87:	00 4e da             	add    %cl,-0x26(%esi)
 804eb8a:	ff                   	(bad)  
 804eb8b:	ff 06                	incl   (%esi)
 804eb8d:	00 00                	add    %al,(%eax)
 804eb8f:	00 00                	add    %al,(%eax)
 804eb91:	00 00                	add    %al,(%eax)
 804eb93:	00 1c 00             	add    %bl,(%eax,%eax,1)
 804eb96:	00 00                	add    %al,(%eax)
 804eb98:	60                   	pusha  
 804eb99:	06                   	push   %es
 804eb9a:	00 00                	add    %al,(%eax)
 804eb9c:	40                   	inc    %eax
 804eb9d:	da ff                	(bad)  
 804eb9f:	ff 27                	jmp    *(%edi)
 804eba1:	00 00                	add    %al,(%eax)
 804eba3:	00 00                	add    %al,(%eax)
 804eba5:	41                   	inc    %ecx
 804eba6:	0e                   	push   %cs
 804eba7:	08 83 02 43 0e 20    	or     %al,0x200e4302(%ebx)
 804ebad:	61                   	popa   
 804ebae:	0e                   	push   %cs
 804ebaf:	08 41 0e             	or     %al,0xe(%ecx)
 804ebb2:	04 c3                	add    $0xc3,%al
 804ebb4:	1c 00                	sbb    $0x0,%al
 804ebb6:	00 00                	add    %al,(%eax)
 804ebb8:	80 06 00             	addb   $0x0,(%esi)
 804ebbb:	00 47 da             	add    %al,-0x26(%edi)
 804ebbe:	ff                   	(bad)  
 804ebbf:	ff 27                	jmp    *(%edi)
 804ebc1:	00 00                	add    %al,(%eax)
 804ebc3:	00 00                	add    %al,(%eax)
 804ebc5:	41                   	inc    %ecx
 804ebc6:	0e                   	push   %cs
 804ebc7:	08 83 02 43 0e 20    	or     %al,0x200e4302(%ebx)
 804ebcd:	61                   	popa   
 804ebce:	0e                   	push   %cs
 804ebcf:	08 41 0e             	or     %al,0xe(%ecx)
 804ebd2:	04 c3                	add    $0xc3,%al
 804ebd4:	1c 00                	sbb    $0x0,%al
 804ebd6:	00 00                	add    %al,(%eax)
 804ebd8:	a0 06 00 00 4e       	mov    0x4e000006,%al
 804ebdd:	da ff                	(bad)  
 804ebdf:	ff 27                	jmp    *(%edi)
 804ebe1:	00 00                	add    %al,(%eax)
 804ebe3:	00 00                	add    %al,(%eax)
 804ebe5:	41                   	inc    %ecx
 804ebe6:	0e                   	push   %cs
 804ebe7:	08 83 02 43 0e 20    	or     %al,0x200e4302(%ebx)
 804ebed:	61                   	popa   
 804ebee:	0e                   	push   %cs
 804ebef:	08 41 0e             	or     %al,0xe(%ecx)
 804ebf2:	04 c3                	add    $0xc3,%al
 804ebf4:	1c 00                	sbb    $0x0,%al
 804ebf6:	00 00                	add    %al,(%eax)
 804ebf8:	c0 06 00             	rolb   $0x0,(%esi)
 804ebfb:	00 55 da             	add    %dl,-0x26(%ebp)
 804ebfe:	ff                   	(bad)  
 804ebff:	ff 27                	jmp    *(%edi)
 804ec01:	00 00                	add    %al,(%eax)
 804ec03:	00 00                	add    %al,(%eax)
 804ec05:	41                   	inc    %ecx
 804ec06:	0e                   	push   %cs
 804ec07:	08 83 02 43 0e 20    	or     %al,0x200e4302(%ebx)
 804ec0d:	61                   	popa   
 804ec0e:	0e                   	push   %cs
 804ec0f:	08 41 0e             	or     %al,0xe(%ecx)
 804ec12:	04 c3                	add    $0xc3,%al
 804ec14:	1c 00                	sbb    $0x0,%al
 804ec16:	00 00                	add    %al,(%eax)
 804ec18:	e0 06                	loopne 804ec20 <STUB_STRING+0xa4c>
 804ec1a:	00 00                	add    %al,(%eax)
 804ec1c:	5c                   	pop    %esp
 804ec1d:	da ff                	(bad)  
 804ec1f:	ff 27                	jmp    *(%edi)
 804ec21:	00 00                	add    %al,(%eax)
 804ec23:	00 00                	add    %al,(%eax)
 804ec25:	41                   	inc    %ecx
 804ec26:	0e                   	push   %cs
 804ec27:	08 83 02 43 0e 20    	or     %al,0x200e4302(%ebx)
 804ec2d:	61                   	popa   
 804ec2e:	0e                   	push   %cs
 804ec2f:	08 41 0e             	or     %al,0xe(%ecx)
 804ec32:	04 c3                	add    $0xc3,%al
 804ec34:	1c 00                	sbb    $0x0,%al
 804ec36:	00 00                	add    %al,(%eax)
 804ec38:	00 07                	add    %al,(%edi)
 804ec3a:	00 00                	add    %al,(%eax)
 804ec3c:	63 da                	arpl   %bx,%dx
 804ec3e:	ff                   	(bad)  
 804ec3f:	ff 27                	jmp    *(%edi)
 804ec41:	00 00                	add    %al,(%eax)
 804ec43:	00 00                	add    %al,(%eax)
 804ec45:	41                   	inc    %ecx
 804ec46:	0e                   	push   %cs
 804ec47:	08 83 02 43 0e 20    	or     %al,0x200e4302(%ebx)
 804ec4d:	61                   	popa   
 804ec4e:	0e                   	push   %cs
 804ec4f:	08 41 0e             	or     %al,0xe(%ecx)
 804ec52:	04 c3                	add    $0xc3,%al
 804ec54:	1c 00                	sbb    $0x0,%al
 804ec56:	00 00                	add    %al,(%eax)
 804ec58:	20 07                	and    %al,(%edi)
 804ec5a:	00 00                	add    %al,(%eax)
 804ec5c:	6a da                	push   $0xffffffda
 804ec5e:	ff                   	(bad)  
 804ec5f:	ff 27                	jmp    *(%edi)
 804ec61:	00 00                	add    %al,(%eax)
 804ec63:	00 00                	add    %al,(%eax)
 804ec65:	41                   	inc    %ecx
 804ec66:	0e                   	push   %cs
 804ec67:	08 83 02 43 0e 20    	or     %al,0x200e4302(%ebx)
 804ec6d:	61                   	popa   
 804ec6e:	0e                   	push   %cs
 804ec6f:	08 41 0e             	or     %al,0xe(%ecx)
 804ec72:	04 c3                	add    $0xc3,%al
 804ec74:	1c 00                	sbb    $0x0,%al
 804ec76:	00 00                	add    %al,(%eax)
 804ec78:	40                   	inc    %eax
 804ec79:	07                   	pop    %es
 804ec7a:	00 00                	add    %al,(%eax)
 804ec7c:	71 da                	jno    804ec58 <STUB_STRING+0xa84>
 804ec7e:	ff                   	(bad)  
 804ec7f:	ff 27                	jmp    *(%edi)
 804ec81:	00 00                	add    %al,(%eax)
 804ec83:	00 00                	add    %al,(%eax)
 804ec85:	41                   	inc    %ecx
 804ec86:	0e                   	push   %cs
 804ec87:	08 83 02 43 0e 20    	or     %al,0x200e4302(%ebx)
 804ec8d:	61                   	popa   
 804ec8e:	0e                   	push   %cs
 804ec8f:	08 41 0e             	or     %al,0xe(%ecx)
 804ec92:	04 c3                	add    $0xc3,%al
 804ec94:	1c 00                	sbb    $0x0,%al
 804ec96:	00 00                	add    %al,(%eax)
 804ec98:	60                   	pusha  
 804ec99:	07                   	pop    %es
 804ec9a:	00 00                	add    %al,(%eax)
 804ec9c:	78 da                	js     804ec78 <STUB_STRING+0xaa4>
 804ec9e:	ff                   	(bad)  
 804ec9f:	ff 27                	jmp    *(%edi)
 804eca1:	00 00                	add    %al,(%eax)
 804eca3:	00 00                	add    %al,(%eax)
 804eca5:	41                   	inc    %ecx
 804eca6:	0e                   	push   %cs
 804eca7:	08 83 02 43 0e 20    	or     %al,0x200e4302(%ebx)
 804ecad:	61                   	popa   
 804ecae:	0e                   	push   %cs
 804ecaf:	08 41 0e             	or     %al,0xe(%ecx)
 804ecb2:	04 c3                	add    $0xc3,%al
 804ecb4:	1c 00                	sbb    $0x0,%al
 804ecb6:	00 00                	add    %al,(%eax)
 804ecb8:	80 07 00             	addb   $0x0,(%edi)
 804ecbb:	00 7f da             	add    %bh,-0x26(%edi)
 804ecbe:	ff                   	(bad)  
 804ecbf:	ff 27                	jmp    *(%edi)
 804ecc1:	00 00                	add    %al,(%eax)
 804ecc3:	00 00                	add    %al,(%eax)
 804ecc5:	41                   	inc    %ecx
 804ecc6:	0e                   	push   %cs
 804ecc7:	08 83 02 43 0e 20    	or     %al,0x200e4302(%ebx)
 804eccd:	61                   	popa   
 804ecce:	0e                   	push   %cs
 804eccf:	08 41 0e             	or     %al,0xe(%ecx)
 804ecd2:	04 c3                	add    $0xc3,%al
 804ecd4:	1c 00                	sbb    $0x0,%al
 804ecd6:	00 00                	add    %al,(%eax)
 804ecd8:	a0 07 00 00 86       	mov    0x86000007,%al
 804ecdd:	da ff                	(bad)  
 804ecdf:	ff 27                	jmp    *(%edi)
 804ece1:	00 00                	add    %al,(%eax)
 804ece3:	00 00                	add    %al,(%eax)
 804ece5:	41                   	inc    %ecx
 804ece6:	0e                   	push   %cs
 804ece7:	08 83 02 43 0e 20    	or     %al,0x200e4302(%ebx)
 804eced:	61                   	popa   
 804ecee:	0e                   	push   %cs
 804ecef:	08 41 0e             	or     %al,0xe(%ecx)
 804ecf2:	04 c3                	add    $0xc3,%al
 804ecf4:	1c 00                	sbb    $0x0,%al
 804ecf6:	00 00                	add    %al,(%eax)
 804ecf8:	c0 07 00             	rolb   $0x0,(%edi)
 804ecfb:	00 8d da ff ff 27    	add    %cl,0x27ffffda(%ebp)
 804ed01:	00 00                	add    %al,(%eax)
 804ed03:	00 00                	add    %al,(%eax)
 804ed05:	41                   	inc    %ecx
 804ed06:	0e                   	push   %cs
 804ed07:	08 83 02 43 0e 20    	or     %al,0x200e4302(%ebx)
 804ed0d:	61                   	popa   
 804ed0e:	0e                   	push   %cs
 804ed0f:	08 41 0e             	or     %al,0xe(%ecx)
 804ed12:	04 c3                	add    $0xc3,%al
 804ed14:	14 00                	adc    $0x0,%al
 804ed16:	00 00                	add    %al,(%eax)
 804ed18:	e0 07                	loopne 804ed21 <STUB_STRING+0xb4d>
 804ed1a:	00 00                	add    %al,(%eax)
 804ed1c:	94                   	xchg   %eax,%esp
 804ed1d:	da ff                	(bad)  
 804ed1f:	ff 4b 00             	decl   0x0(%ebx)
 804ed22:	00 00                	add    %al,(%eax)
 804ed24:	00 43 0e             	add    %al,0xe(%ebx)
 804ed27:	30 02                	xor    %al,(%edx)
 804ed29:	47                   	inc    %edi
 804ed2a:	0e                   	push   %cs
 804ed2b:	04 14                	add    $0x14,%al
 804ed2d:	00 00                	add    %al,(%eax)
 804ed2f:	00 f8                	add    %bh,%al
 804ed31:	07                   	pop    %es
 804ed32:	00 00                	add    %al,(%eax)
 804ed34:	c7                   	(bad)  
 804ed35:	da ff                	(bad)  
 804ed37:	ff 4d 00             	decl   0x0(%ebp)
 804ed3a:	00 00                	add    %al,(%eax)
 804ed3c:	00 43 0e             	add    %al,0xe(%ebx)
 804ed3f:	30 02                	xor    %al,(%edx)
 804ed41:	49                   	dec    %ecx
 804ed42:	0e                   	push   %cs
 804ed43:	04 14                	add    $0x14,%al
 804ed45:	00 00                	add    %al,(%eax)
 804ed47:	00 10                	add    %dl,(%eax)
 804ed49:	08 00                	or     %al,(%eax)
 804ed4b:	00 fc                	add    %bh,%ah
 804ed4d:	da ff                	(bad)  
 804ed4f:	ff 4d 00             	decl   0x0(%ebp)
 804ed52:	00 00                	add    %al,(%eax)
 804ed54:	00 43 0e             	add    %al,0xe(%ebx)
 804ed57:	30 02                	xor    %al,(%edx)
 804ed59:	49                   	dec    %ecx
 804ed5a:	0e                   	push   %cs
 804ed5b:	04 14                	add    $0x14,%al
 804ed5d:	00 00                	add    %al,(%eax)
 804ed5f:	00 28                	add    %ch,(%eax)
 804ed61:	08 00                	or     %al,(%eax)
 804ed63:	00 31                	add    %dh,(%ecx)
 804ed65:	db ff                	(bad)  
 804ed67:	ff 4d 00             	decl   0x0(%ebp)
 804ed6a:	00 00                	add    %al,(%eax)
 804ed6c:	00 43 0e             	add    %al,0xe(%ebx)
 804ed6f:	30 02                	xor    %al,(%edx)
 804ed71:	49                   	dec    %ecx
 804ed72:	0e                   	push   %cs
 804ed73:	04 14                	add    $0x14,%al
 804ed75:	00 00                	add    %al,(%eax)
 804ed77:	00 40 08             	add    %al,0x8(%eax)
 804ed7a:	00 00                	add    %al,(%eax)
 804ed7c:	66                   	data16
 804ed7d:	db ff                	(bad)  
 804ed7f:	ff 4b 00             	decl   0x0(%ebx)
 804ed82:	00 00                	add    %al,(%eax)
 804ed84:	00 43 0e             	add    %al,0xe(%ebx)
 804ed87:	30 02                	xor    %al,(%edx)
 804ed89:	47                   	inc    %edi
 804ed8a:	0e                   	push   %cs
 804ed8b:	04 10                	add    $0x10,%al
 804ed8d:	00 00                	add    %al,(%eax)
 804ed8f:	00 58 08             	add    %bl,0x8(%eax)
 804ed92:	00 00                	add    %al,(%eax)
 804ed94:	99                   	cltd   
 804ed95:	db ff                	(bad)  
 804ed97:	ff 2e                	ljmp   *(%esi)
 804ed99:	00 00                	add    %al,(%eax)
 804ed9b:	00 00                	add    %al,(%eax)
 804ed9d:	00 00                	add    %al,(%eax)
 804ed9f:	00 14 00             	add    %dl,(%eax,%eax,1)
 804eda2:	00 00                	add    %al,(%eax)
 804eda4:	6c                   	insb   (%dx),%es:(%edi)
 804eda5:	08 00                	or     %al,(%eax)
 804eda7:	00 b3 db ff ff 4e    	add    %dh,0x4effffdb(%ebx)
 804edad:	00 00                	add    %al,(%eax)
 804edaf:	00 00                	add    %al,(%eax)
 804edb1:	43                   	inc    %ebx
 804edb2:	0e                   	push   %cs
 804edb3:	30 02                	xor    %al,(%edx)
 804edb5:	4a                   	dec    %edx
 804edb6:	0e                   	push   %cs
 804edb7:	04 14                	add    $0x14,%al
 804edb9:	00 00                	add    %al,(%eax)
 804edbb:	00 84 08 00 00 e9 db 	add    %al,-0x24170000(%eax,%ecx,1)
 804edc2:	ff                   	(bad)  
 804edc3:	ff 4e 00             	decl   0x0(%esi)
 804edc6:	00 00                	add    %al,(%eax)
 804edc8:	00 43 0e             	add    %al,0xe(%ebx)
 804edcb:	30 02                	xor    %al,(%edx)
 804edcd:	4a                   	dec    %edx
 804edce:	0e                   	push   %cs
 804edcf:	04 14                	add    $0x14,%al
 804edd1:	00 00                	add    %al,(%eax)
 804edd3:	00 9c 08 00 00 1f dc 	add    %bl,-0x23e10000(%eax,%ecx,1)
 804edda:	ff                   	(bad)  
 804eddb:	ff 4d 00             	decl   0x0(%ebp)
 804edde:	00 00                	add    %al,(%eax)
 804ede0:	00 43 0e             	add    %al,0xe(%ebx)
 804ede3:	30 02                	xor    %al,(%edx)
 804ede5:	49                   	dec    %ecx
 804ede6:	0e                   	push   %cs
 804ede7:	04 14                	add    $0x14,%al
 804ede9:	00 00                	add    %al,(%eax)
 804edeb:	00 b4 08 00 00 54 dc 	add    %dh,-0x23ac0000(%eax,%ecx,1)
 804edf2:	ff                   	(bad)  
 804edf3:	ff 4d 00             	decl   0x0(%ebp)
 804edf6:	00 00                	add    %al,(%eax)
 804edf8:	00 43 0e             	add    %al,0xe(%ebx)
 804edfb:	30 02                	xor    %al,(%edx)
 804edfd:	49                   	dec    %ecx
 804edfe:	0e                   	push   %cs
 804edff:	04 20                	add    $0x20,%al
 804ee01:	00 00                	add    %al,(%eax)
 804ee03:	00 cc                	add    %cl,%ah
 804ee05:	08 00                	or     %al,(%eax)
 804ee07:	00 89 dc ff ff 56    	add    %cl,0x56ffffdc(%ecx)
 804ee0d:	00 00                	add    %al,(%eax)
 804ee0f:	00 00                	add    %al,(%eax)
 804ee11:	41                   	inc    %ecx
 804ee12:	0e                   	push   %cs
 804ee13:	08 83 02 43 0e 30    	or     %al,0x300e4302(%ebx)
 804ee19:	02 50 0e             	add    0xe(%eax),%dl
 804ee1c:	08 41 0e             	or     %al,0xe(%ecx)
 804ee1f:	04 c3                	add    $0xc3,%al
 804ee21:	00 00                	add    %al,(%eax)
 804ee23:	00 10                	add    %dl,(%eax)
 804ee25:	00 00                	add    %al,(%eax)
 804ee27:	00 f0                	add    %dh,%al
 804ee29:	08 00                	or     %al,(%eax)
 804ee2b:	00 bb dc ff ff 1e    	add    %bh,0x1effffdc(%ebx)
 804ee31:	00 00                	add    %al,(%eax)
 804ee33:	00 00                	add    %al,(%eax)
 804ee35:	00 00                	add    %al,(%eax)
 804ee37:	00 10                	add    %dl,(%eax)
 804ee39:	00 00                	add    %al,(%eax)
 804ee3b:	00 04 09             	add    %al,(%ecx,%ecx,1)
 804ee3e:	00 00                	add    %al,(%eax)
 804ee40:	c5 dc ff             	(bad)  
 804ee43:	ff 1e                	lcall  *(%esi)
 804ee45:	00 00                	add    %al,(%eax)
 804ee47:	00 00                	add    %al,(%eax)
 804ee49:	00 00                	add    %al,(%eax)
 804ee4b:	00 10                	add    %dl,(%eax)
 804ee4d:	00 00                	add    %al,(%eax)
 804ee4f:	00 18                	add    %bl,(%eax)
 804ee51:	09 00                	or     %eax,(%eax)
 804ee53:	00 cf                	add    %cl,%bh
 804ee55:	dc ff                	fdivr  %st,%st(7)
 804ee57:	ff 1e                	lcall  *(%esi)
 804ee59:	00 00                	add    %al,(%eax)
 804ee5b:	00 00                	add    %al,(%eax)
 804ee5d:	00 00                	add    %al,(%eax)
 804ee5f:	00 10                	add    %dl,(%eax)
 804ee61:	00 00                	add    %al,(%eax)
 804ee63:	00 2c 09             	add    %ch,(%ecx,%ecx,1)
 804ee66:	00 00                	add    %al,(%eax)
 804ee68:	d9 dc                	(bad)  
 804ee6a:	ff                   	(bad)  
 804ee6b:	ff 1e                	lcall  *(%esi)
 804ee6d:	00 00                	add    %al,(%eax)
 804ee6f:	00 00                	add    %al,(%eax)
 804ee71:	00 00                	add    %al,(%eax)
 804ee73:	00 10                	add    %dl,(%eax)
 804ee75:	00 00                	add    %al,(%eax)
 804ee77:	00 40 09             	add    %al,0x9(%eax)
 804ee7a:	00 00                	add    %al,(%eax)
 804ee7c:	e3 dc                	jecxz  804ee5a <STUB_STRING+0xc86>
 804ee7e:	ff                   	(bad)  
 804ee7f:	ff 1e                	lcall  *(%esi)
 804ee81:	00 00                	add    %al,(%eax)
 804ee83:	00 00                	add    %al,(%eax)
 804ee85:	00 00                	add    %al,(%eax)
 804ee87:	00 10                	add    %dl,(%eax)
 804ee89:	00 00                	add    %al,(%eax)
 804ee8b:	00 54 09 00          	add    %dl,0x0(%ecx,%ecx,1)
 804ee8f:	00 ed                	add    %ch,%ch
 804ee91:	dc ff                	fdivr  %st,%st(7)
 804ee93:	ff 1e                	lcall  *(%esi)
 804ee95:	00 00                	add    %al,(%eax)
 804ee97:	00 00                	add    %al,(%eax)
 804ee99:	00 00                	add    %al,(%eax)
 804ee9b:	00 10                	add    %dl,(%eax)
 804ee9d:	00 00                	add    %al,(%eax)
 804ee9f:	00 68 09             	add    %ch,0x9(%eax)
 804eea2:	00 00                	add    %al,(%eax)
 804eea4:	f7 dc                	neg    %esp
 804eea6:	ff                   	(bad)  
 804eea7:	ff 1e                	lcall  *(%esi)
 804eea9:	00 00                	add    %al,(%eax)
 804eeab:	00 00                	add    %al,(%eax)
 804eead:	00 00                	add    %al,(%eax)
 804eeaf:	00 10                	add    %dl,(%eax)
 804eeb1:	00 00                	add    %al,(%eax)
 804eeb3:	00 7c 09 00          	add    %bh,0x0(%ecx,%ecx,1)
 804eeb7:	00 01                	add    %al,(%ecx)
 804eeb9:	dd ff                	(bad)  
 804eebb:	ff 1e                	lcall  *(%esi)
 804eebd:	00 00                	add    %al,(%eax)
 804eebf:	00 00                	add    %al,(%eax)
 804eec1:	00 00                	add    %al,(%eax)
 804eec3:	00 10                	add    %dl,(%eax)
 804eec5:	00 00                	add    %al,(%eax)
 804eec7:	00 90 09 00 00 0b    	add    %dl,0xb000009(%eax)
 804eecd:	dd ff                	(bad)  
 804eecf:	ff 1e                	lcall  *(%esi)
 804eed1:	00 00                	add    %al,(%eax)
 804eed3:	00 00                	add    %al,(%eax)
 804eed5:	00 00                	add    %al,(%eax)
 804eed7:	00 10                	add    %dl,(%eax)
 804eed9:	00 00                	add    %al,(%eax)
 804eedb:	00 a4 09 00 00 15 dd 	add    %ah,-0x22eb0000(%ecx,%ecx,1)
 804eee2:	ff                   	(bad)  
 804eee3:	ff 1e                	lcall  *(%esi)
 804eee5:	00 00                	add    %al,(%eax)
 804eee7:	00 00                	add    %al,(%eax)
 804eee9:	00 00                	add    %al,(%eax)
 804eeeb:	00 1c 00             	add    %bl,(%eax,%eax,1)
 804eeee:	00 00                	add    %al,(%eax)
 804eef0:	b8 09 00 00 1f       	mov    $0x1f000009,%eax
 804eef5:	dd ff                	(bad)  
 804eef7:	ff 42 00             	incl   0x0(%edx)
 804eefa:	00 00                	add    %al,(%eax)
 804eefc:	00 41 0e             	add    %al,0xe(%ecx)
 804eeff:	08 83 02 43 0e 20    	or     %al,0x200e4302(%ebx)
 804ef05:	7c 0e                	jl     804ef15 <STUB_STRING+0xd41>
 804ef07:	08 41 0e             	or     %al,0xe(%ecx)
 804ef0a:	04 c3                	add    $0xc3,%al
 804ef0c:	1c 00                	sbb    $0x0,%al
 804ef0e:	00 00                	add    %al,(%eax)
 804ef10:	d8 09                	fmuls  (%ecx)
 804ef12:	00 00                	add    %al,(%eax)
 804ef14:	41                   	inc    %ecx
 804ef15:	dd ff                	(bad)  
 804ef17:	ff 42 00             	incl   0x0(%edx)
 804ef1a:	00 00                	add    %al,(%eax)
 804ef1c:	00 41 0e             	add    %al,0xe(%ecx)
 804ef1f:	08 83 02 43 0e 20    	or     %al,0x200e4302(%ebx)
 804ef25:	7c 0e                	jl     804ef35 <STUB_STRING+0xd61>
 804ef27:	08 41 0e             	or     %al,0xe(%ecx)
 804ef2a:	04 c3                	add    $0xc3,%al
 804ef2c:	1c 00                	sbb    $0x0,%al
 804ef2e:	00 00                	add    %al,(%eax)
 804ef30:	f8                   	clc    
 804ef31:	09 00                	or     %eax,(%eax)
 804ef33:	00 63 dd             	add    %ah,-0x23(%ebx)
 804ef36:	ff                   	(bad)  
 804ef37:	ff 42 00             	incl   0x0(%edx)
 804ef3a:	00 00                	add    %al,(%eax)
 804ef3c:	00 41 0e             	add    %al,0xe(%ecx)
 804ef3f:	08 83 02 43 0e 20    	or     %al,0x200e4302(%ebx)
 804ef45:	7c 0e                	jl     804ef55 <STUB_STRING+0xd81>
 804ef47:	08 41 0e             	or     %al,0xe(%ecx)
 804ef4a:	04 c3                	add    $0xc3,%al
 804ef4c:	1c 00                	sbb    $0x0,%al
 804ef4e:	00 00                	add    %al,(%eax)
 804ef50:	18 0a                	sbb    %cl,(%edx)
 804ef52:	00 00                	add    %al,(%eax)
 804ef54:	85 dd                	test   %ebx,%ebp
 804ef56:	ff                   	(bad)  
 804ef57:	ff 42 00             	incl   0x0(%edx)
 804ef5a:	00 00                	add    %al,(%eax)
 804ef5c:	00 41 0e             	add    %al,0xe(%ecx)
 804ef5f:	08 83 02 43 0e 20    	or     %al,0x200e4302(%ebx)
 804ef65:	7c 0e                	jl     804ef75 <STUB_STRING+0xda1>
 804ef67:	08 41 0e             	or     %al,0xe(%ecx)
 804ef6a:	04 c3                	add    $0xc3,%al
 804ef6c:	1c 00                	sbb    $0x0,%al
 804ef6e:	00 00                	add    %al,(%eax)
 804ef70:	38 0a                	cmp    %cl,(%edx)
 804ef72:	00 00                	add    %al,(%eax)
 804ef74:	a7                   	cmpsl  %es:(%edi),%ds:(%esi)
 804ef75:	dd ff                	(bad)  
 804ef77:	ff 42 00             	incl   0x0(%edx)
 804ef7a:	00 00                	add    %al,(%eax)
 804ef7c:	00 41 0e             	add    %al,0xe(%ecx)
 804ef7f:	08 83 02 43 0e 20    	or     %al,0x200e4302(%ebx)
 804ef85:	7c 0e                	jl     804ef95 <STUB_STRING+0xdc1>
 804ef87:	08 41 0e             	or     %al,0xe(%ecx)
 804ef8a:	04 c3                	add    $0xc3,%al
 804ef8c:	14 00                	adc    $0x0,%al
 804ef8e:	00 00                	add    %al,(%eax)
 804ef90:	58                   	pop    %eax
 804ef91:	0a 00                	or     (%eax),%al
 804ef93:	00 c9                	add    %cl,%cl
 804ef95:	dd ff                	(bad)  
 804ef97:	ff 2b                	ljmp   *(%ebx)
 804ef99:	00 00                	add    %al,(%eax)
 804ef9b:	00 00                	add    %al,(%eax)
 804ef9d:	43                   	inc    %ebx
 804ef9e:	0e                   	push   %cs
 804ef9f:	20 67 0e             	and    %ah,0xe(%edi)
 804efa2:	04 00                	add    $0x0,%al
 804efa4:	28 00                	sub    %al,(%eax)
 804efa6:	00 00                	add    %al,(%eax)
 804efa8:	70 0a                	jo     804efb4 <STUB_STRING+0xde0>
 804efaa:	00 00                	add    %al,(%eax)
 804efac:	dc dd                	(bad)  
 804efae:	ff                   	(bad)  
 804efaf:	ff 61 00             	jmp    *0x0(%ecx)
 804efb2:	00 00                	add    %al,(%eax)
 804efb4:	00 41 0e             	add    %al,0xe(%ecx)
 804efb7:	08 86 02 41 0e 0c    	or     %al,0xc0e4102(%esi)
 804efbd:	83 03 43             	addl   $0x43,(%ebx)
 804efc0:	0e                   	push   %cs
 804efc1:	20 02                	and    %al,(%edx)
 804efc3:	59                   	pop    %ecx
 804efc4:	0e                   	push   %cs
 804efc5:	0c 41                	or     $0x41,%al
 804efc7:	0e                   	push   %cs
 804efc8:	08 c3                	or     %al,%bl
 804efca:	41                   	inc    %ecx
 804efcb:	0e                   	push   %cs
 804efcc:	04 c6                	add    $0xc6,%al
 804efce:	00 00                	add    %al,(%eax)
 804efd0:	28 00                	sub    %al,(%eax)
 804efd2:	00 00                	add    %al,(%eax)
 804efd4:	9c                   	pushf  
 804efd5:	0a 00                	or     (%eax),%al
 804efd7:	00 11                	add    %dl,(%ecx)
 804efd9:	de ff                	fdivrp %st,%st(7)
 804efdb:	ff 4d 01             	decl   0x1(%ebp)
 804efde:	00 00                	add    %al,(%eax)
 804efe0:	00 41 0e             	add    %al,0xe(%ecx)
 804efe3:	08 86 02 41 0e 0c    	or     %al,0xc0e4102(%esi)
 804efe9:	83 03 43             	addl   $0x43,(%ebx)
 804efec:	0e                   	push   %cs
 804efed:	20 03                	and    %al,(%ebx)
 804efef:	45                   	inc    %ebp
 804eff0:	01 0e                	add    %ecx,(%esi)
 804eff2:	0c 41                	or     $0x41,%al
 804eff4:	0e                   	push   %cs
 804eff5:	08 c3                	or     %al,%bl
 804eff7:	41                   	inc    %ecx
 804eff8:	0e                   	push   %cs
 804eff9:	04 c6                	add    $0xc6,%al
 804effb:	00 30                	add    %dh,(%eax)
 804effd:	00 00                	add    %al,(%eax)
 804efff:	00 c8                	add    %cl,%al
 804f001:	0a 00                	or     (%eax),%al
 804f003:	00 32                	add    %dh,(%edx)
 804f005:	df ff                	(bad)  
 804f007:	ff f4                	push   %esp
 804f009:	00 00                	add    %al,(%eax)
 804f00b:	00 00                	add    %al,(%eax)
 804f00d:	41                   	inc    %ecx
 804f00e:	0e                   	push   %cs
 804f00f:	08 87 02 41 0e 0c    	or     %al,0xc0e4102(%edi)
 804f015:	86 03                	xchg   %al,(%ebx)
 804f017:	41                   	inc    %ecx
 804f018:	0e                   	push   %cs
 804f019:	10 83 04 43 0e 20    	adc    %al,0x200e4304(%ebx)
 804f01f:	02 ea                	add    %dl,%ch
 804f021:	0e                   	push   %cs
 804f022:	10 41 0e             	adc    %al,0xe(%ecx)
 804f025:	0c c3                	or     $0xc3,%al
 804f027:	41                   	inc    %ecx
 804f028:	0e                   	push   %cs
 804f029:	08 c6                	or     %al,%dh
 804f02b:	41                   	inc    %ecx
 804f02c:	0e                   	push   %cs
 804f02d:	04 c7                	add    $0xc7,%al
 804f02f:	00 20                	add    %ah,(%eax)
 804f031:	00 00                	add    %al,(%eax)
 804f033:	00 fc                	add    %bh,%ah
 804f035:	0a 00                	or     (%eax),%al
 804f037:	00 f2                	add    %dh,%dl
 804f039:	df ff                	(bad)  
 804f03b:	ff 48 00             	decl   0x0(%eax)
 804f03e:	00 00                	add    %al,(%eax)
 804f040:	00 41 0e             	add    %al,0xe(%ecx)
 804f043:	08 83 02 43 0e 20    	or     %al,0x200e4302(%ebx)
 804f049:	02 42 0e             	add    0xe(%edx),%al
 804f04c:	08 41 0e             	or     %al,0xe(%ecx)
 804f04f:	04 c3                	add    $0xc3,%al
 804f051:	00 00                	add    %al,(%eax)
 804f053:	00 20                	add    %ah,(%eax)
 804f055:	00 00                	add    %al,(%eax)
 804f057:	00 20                	add    %ah,(%eax)
 804f059:	0b 00                	or     (%eax),%eax
 804f05b:	00 16                	add    %dl,(%esi)
 804f05d:	e0 ff                	loopne 804f05e <STUB_STRING+0xe8a>
 804f05f:	ff 48 00             	decl   0x0(%eax)
 804f062:	00 00                	add    %al,(%eax)
 804f064:	00 41 0e             	add    %al,0xe(%ecx)
 804f067:	08 83 02 43 0e 20    	or     %al,0x200e4302(%ebx)
 804f06d:	02 42 0e             	add    0xe(%edx),%al
 804f070:	08 41 0e             	or     %al,0xe(%ecx)
 804f073:	04 c3                	add    $0xc3,%al
 804f075:	00 00                	add    %al,(%eax)
 804f077:	00 3c 00             	add    %bh,(%eax,%eax,1)
 804f07a:	00 00                	add    %al,(%eax)
 804f07c:	44                   	inc    %esp
 804f07d:	0b 00                	or     (%eax),%eax
 804f07f:	00 3a                	add    %bh,(%edx)
 804f081:	e0 ff                	loopne 804f082 <STUB_STRING+0xeae>
 804f083:	ff d1                	call   *%ecx
 804f085:	01 00                	add    %eax,(%eax)
 804f087:	00 00                	add    %al,(%eax)
 804f089:	41                   	inc    %ecx
 804f08a:	0e                   	push   %cs
 804f08b:	08 85 02 41 0e 0c    	or     %al,0xc0e4102(%ebp)
 804f091:	87 03                	xchg   %eax,(%ebx)
 804f093:	41                   	inc    %ecx
 804f094:	0e                   	push   %cs
 804f095:	10 86 04 41 0e 14    	adc    %al,0x140e4104(%esi)
 804f09b:	83 05 46 0e e0 30 03 	addl   $0x3,0x30e00e46
 804f0a2:	c2 01 0e             	ret    $0xe01
 804f0a5:	14 41                	adc    $0x41,%al
 804f0a7:	0e                   	push   %cs
 804f0a8:	10 c3                	adc    %al,%bl
 804f0aa:	41                   	inc    %ecx
 804f0ab:	0e                   	push   %cs
 804f0ac:	0c c6                	or     $0xc6,%al
 804f0ae:	41                   	inc    %ecx
 804f0af:	0e                   	push   %cs
 804f0b0:	08 c7                	or     %al,%bh
 804f0b2:	41                   	inc    %ecx
 804f0b3:	0e                   	push   %cs
 804f0b4:	04 c5                	add    $0xc5,%al
 804f0b6:	00 00                	add    %al,(%eax)
 804f0b8:	28 00                	sub    %al,(%eax)
 804f0ba:	00 00                	add    %al,(%eax)
 804f0bc:	84 0b                	test   %cl,(%ebx)
 804f0be:	00 00                	add    %al,(%eax)
 804f0c0:	cb                   	lret   
 804f0c1:	e1 ff                	loope  804f0c2 <STUB_STRING+0xeee>
 804f0c3:	ff 5b 00             	lcall  *0x0(%ebx)
 804f0c6:	00 00                	add    %al,(%eax)
 804f0c8:	00 41 0e             	add    %al,0xe(%ecx)
 804f0cb:	08 86 02 41 0e 0c    	or     %al,0xc0e4102(%esi)
 804f0d1:	83 03 43             	addl   $0x43,(%ebx)
 804f0d4:	0e                   	push   %cs
 804f0d5:	20 02                	and    %al,(%edx)
 804f0d7:	53                   	push   %ebx
 804f0d8:	0e                   	push   %cs
 804f0d9:	0c 41                	or     $0x41,%al
 804f0db:	0e                   	push   %cs
 804f0dc:	08 c3                	or     %al,%bl
 804f0de:	41                   	inc    %ecx
 804f0df:	0e                   	push   %cs
 804f0e0:	04 c6                	add    $0xc6,%al
 804f0e2:	00 00                	add    %al,(%eax)
 804f0e4:	20 00                	and    %al,(%eax)
 804f0e6:	00 00                	add    %al,(%eax)
 804f0e8:	b0 0b                	mov    $0xb,%al
 804f0ea:	00 00                	add    %al,(%eax)
 804f0ec:	fa                   	cli    
 804f0ed:	e1 ff                	loope  804f0ee <STUB_STRING+0xf1a>
 804f0ef:	ff 48 00             	decl   0x0(%eax)
 804f0f2:	00 00                	add    %al,(%eax)
 804f0f4:	00 41 0e             	add    %al,0xe(%ecx)
 804f0f7:	08 83 02 43 0e 20    	or     %al,0x200e4302(%ebx)
 804f0fd:	02 42 0e             	add    0xe(%edx),%al
 804f100:	08 41 0e             	or     %al,0xe(%ecx)
 804f103:	04 c3                	add    $0xc3,%al
 804f105:	00 00                	add    %al,(%eax)
 804f107:	00 20                	add    %ah,(%eax)
 804f109:	00 00                	add    %al,(%eax)
 804f10b:	00 d4                	add    %dl,%ah
 804f10d:	0b 00                	or     (%eax),%eax
 804f10f:	00 1e                	add    %bl,(%esi)
 804f111:	e2 ff                	loop   804f112 <STUB_STRING+0xf3e>
 804f113:	ff 60 00             	jmp    *0x0(%eax)
 804f116:	00 00                	add    %al,(%eax)
 804f118:	00 41 0e             	add    %al,0xe(%ecx)
 804f11b:	08 83 02 43 0e 20    	or     %al,0x200e4302(%ebx)
 804f121:	02 5a 0e             	add    0xe(%edx),%bl
 804f124:	08 41 0e             	or     %al,0xe(%ecx)
 804f127:	04 c3                	add    $0xc3,%al
 804f129:	00 00                	add    %al,(%eax)
 804f12b:	00 3c 00             	add    %bh,(%eax,%eax,1)
 804f12e:	00 00                	add    %al,(%eax)
 804f130:	f8                   	clc    
 804f131:	0b 00                	or     (%eax),%eax
 804f133:	00 5a e2             	add    %bl,-0x1e(%edx)
 804f136:	ff                   	(bad)  
 804f137:	ff 66 04             	jmp    *0x4(%esi)
 804f13a:	00 00                	add    %al,(%eax)
 804f13c:	00 41 0e             	add    %al,0xe(%ecx)
 804f13f:	08 85 02 41 0e 0c    	or     %al,0xc0e4102(%ebp)
 804f145:	87 03                	xchg   %eax,(%ebx)
 804f147:	41                   	inc    %ecx
 804f148:	0e                   	push   %cs
 804f149:	10 86 04 41 0e 14    	adc    %al,0x140e4104(%esi)
 804f14f:	83 05 46 0e f0 10 03 	addl   $0x3,0x10f00e46
 804f156:	57                   	push   %edi
 804f157:	04 0e                	add    $0xe,%al
 804f159:	14 41                	adc    $0x41,%al
 804f15b:	0e                   	push   %cs
 804f15c:	10 c3                	adc    %al,%bl
 804f15e:	41                   	inc    %ecx
 804f15f:	0e                   	push   %cs
 804f160:	0c c6                	or     $0xc6,%al
 804f162:	41                   	inc    %ecx
 804f163:	0e                   	push   %cs
 804f164:	08 c7                	or     %al,%bh
 804f166:	41                   	inc    %ecx
 804f167:	0e                   	push   %cs
 804f168:	04 c5                	add    $0xc5,%al
 804f16a:	00 00                	add    %al,(%eax)
 804f16c:	1c 00                	sbb    $0x0,%al
 804f16e:	00 00                	add    %al,(%eax)
 804f170:	38 0c 00             	cmp    %cl,(%eax,%eax,1)
 804f173:	00 80 e6 ff ff 52    	add    %al,0x52ffffe6(%eax)
 804f179:	00 00                	add    %al,(%eax)
 804f17b:	00 00                	add    %al,(%eax)
 804f17d:	43                   	inc    %ebx
 804f17e:	0e                   	push   %cs
 804f17f:	20 57 86             	and    %dl,-0x7a(%edi)
 804f182:	02 83 03 77 0e 04    	add    0x40e7703(%ebx),%al
 804f188:	c6 c3 00             	mov    $0x0,%bl
 804f18b:	00 14 00             	add    %dl,(%eax,%eax,1)
 804f18e:	00 00                	add    %al,(%eax)
 804f190:	58                   	pop    %eax
 804f191:	0c 00                	or     $0x0,%al
 804f193:	00 b2 e6 ff ff 1a    	add    %dh,0x1affffe6(%edx)
 804f199:	00 00                	add    %al,(%eax)
 804f19b:	00 00                	add    %al,(%eax)
 804f19d:	43                   	inc    %ebx
 804f19e:	0e                   	push   %cs
 804f19f:	10 56 0e             	adc    %dl,0xe(%esi)
 804f1a2:	04 00                	add    $0x0,%al
 804f1a4:	10 00                	adc    %al,(%eax)
 804f1a6:	00 00                	add    %al,(%eax)
 804f1a8:	70 0c                	jo     804f1b6 <STUB_STRING+0xfe2>
 804f1aa:	00 00                	add    %al,(%eax)
 804f1ac:	b4 e6                	mov    $0xe6,%ah
 804f1ae:	ff                   	(bad)  
 804f1af:	ff 06                	incl   (%esi)
 804f1b1:	00 00                	add    %al,(%eax)
 804f1b3:	00 00                	add    %al,(%eax)
 804f1b5:	00 00                	add    %al,(%eax)
 804f1b7:	00 1c 00             	add    %bl,(%eax,%eax,1)
 804f1ba:	00 00                	add    %al,(%eax)
 804f1bc:	84 0c 00             	test   %cl,(%eax,%eax,1)
 804f1bf:	00 a6 e6 ff ff 27    	add    %ah,0x27ffffe6(%esi)
 804f1c5:	00 00                	add    %al,(%eax)
 804f1c7:	00 00                	add    %al,(%eax)
 804f1c9:	41                   	inc    %ecx
 804f1ca:	0e                   	push   %cs
 804f1cb:	08 83 02 43 0e 20    	or     %al,0x200e4302(%ebx)
 804f1d1:	61                   	popa   
 804f1d2:	0e                   	push   %cs
 804f1d3:	08 41 0e             	or     %al,0xe(%ecx)
 804f1d6:	04 c3                	add    $0xc3,%al
 804f1d8:	10 00                	adc    %al,(%eax)
 804f1da:	00 00                	add    %al,(%eax)
 804f1dc:	a4                   	movsb  %ds:(%esi),%es:(%edi)
 804f1dd:	0c 00                	or     $0x0,%al
 804f1df:	00 ad e6 ff ff 06    	add    %ch,0x6ffffe6(%ebp)
 804f1e5:	00 00                	add    %al,(%eax)
 804f1e7:	00 00                	add    %al,(%eax)
 804f1e9:	00 00                	add    %al,(%eax)
 804f1eb:	00 1c 00             	add    %bl,(%eax,%eax,1)
 804f1ee:	00 00                	add    %al,(%eax)
 804f1f0:	b8 0c 00 00 9f       	mov    $0x9f00000c,%eax
 804f1f5:	e6 ff                	out    %al,$0xff
 804f1f7:	ff 27                	jmp    *(%edi)
 804f1f9:	00 00                	add    %al,(%eax)
 804f1fb:	00 00                	add    %al,(%eax)
 804f1fd:	41                   	inc    %ecx
 804f1fe:	0e                   	push   %cs
 804f1ff:	08 83 02 43 0e 20    	or     %al,0x200e4302(%ebx)
 804f205:	61                   	popa   
 804f206:	0e                   	push   %cs
 804f207:	08 41 0e             	or     %al,0xe(%ecx)
 804f20a:	04 c3                	add    $0xc3,%al
 804f20c:	38 00                	cmp    %al,(%eax)
 804f20e:	00 00                	add    %al,(%eax)
 804f210:	d8 0c 00             	fmuls  (%eax,%eax,1)
 804f213:	00 ac e6 ff ff 61 00 	add    %ch,0x61ffff(%esi,%eiz,8)
 804f21a:	00 00                	add    %al,(%eax)
 804f21c:	00 41 0e             	add    %al,0xe(%ecx)
 804f21f:	08 85 02 41 0e 0c    	or     %al,0xc0e4102(%ebp)
 804f225:	87 03                	xchg   %eax,(%ebx)
 804f227:	41                   	inc    %ecx
 804f228:	0e                   	push   %cs
 804f229:	10 86 04 41 0e 14    	adc    %al,0x140e4104(%esi)
 804f22f:	83 05 4e 0e 30 02 4a 	addl   $0x4a,0x2300e4e
 804f236:	0e                   	push   %cs
 804f237:	14 41                	adc    $0x41,%al
 804f239:	0e                   	push   %cs
 804f23a:	10 c3                	adc    %al,%bl
 804f23c:	41                   	inc    %ecx
 804f23d:	0e                   	push   %cs
 804f23e:	0c c6                	or     $0xc6,%al
 804f240:	41                   	inc    %ecx
 804f241:	0e                   	push   %cs
 804f242:	08 c7                	or     %al,%bh
 804f244:	41                   	inc    %ecx
 804f245:	0e                   	push   %cs
 804f246:	04 c5                	add    $0xc5,%al
 804f248:	10 00                	adc    %al,(%eax)
 804f24a:	00 00                	add    %al,(%eax)
 804f24c:	14 0d                	adc    $0xd,%al
 804f24e:	00 00                	add    %al,(%eax)
 804f250:	e0 e6                	loopne 804f238 <STUB_STRING+0x1064>
 804f252:	ff                   	(bad)  
 804f253:	ff 02                	incl   (%edx)
 804f255:	00 00                	add    %al,(%eax)
 804f257:	00 00                	add    %al,(%eax)
 804f259:	00 00                	add    %al,(%eax)
 804f25b:	00 10                	add    %dl,(%eax)
 804f25d:	00 00                	add    %al,(%eax)
 804f25f:	00 28                	add    %ch,(%eax)
 804f261:	0d 00 00 ce e6       	or     $0xe6ce0000,%eax
 804f266:	ff                   	(bad)  
 804f267:	ff 04 00             	incl   (%eax,%eax,1)
 804f26a:	00 00                	add    %al,(%eax)
 804f26c:	00 00                	add    %al,(%eax)
 804f26e:	00 00                	add    %al,(%eax)

0804f270 <__FRAME_END__>:
 804f270:	00 00                	add    %al,(%eax)
 804f272:	00 00                	add    %al,(%eax)

Disassembly of section .ctors:

08050f0c <__CTOR_LIST__>:
 8050f0c:	ff                   	(bad)  
 8050f0d:	ff                   	(bad)  
 8050f0e:	ff                   	(bad)  
 8050f0f:	ff 00                	incl   (%eax)

08050f10 <__CTOR_END__>:
 8050f10:	00 00                	add    %al,(%eax)
 8050f12:	00 00                	add    %al,(%eax)

Disassembly of section .dtors:

08050f14 <__DTOR_LIST__>:
 8050f14:	ff                   	(bad)  
 8050f15:	ff                   	(bad)  
 8050f16:	ff                   	(bad)  
 8050f17:	ff 00                	incl   (%eax)

08050f18 <__DTOR_END__>:
 8050f18:	00 00                	add    %al,(%eax)
 8050f1a:	00 00                	add    %al,(%eax)

Disassembly of section .jcr:

08050f1c <__JCR_END__>:
 8050f1c:	00 00                	add    %al,(%eax)
 8050f1e:	00 00                	add    %al,(%eax)

Disassembly of section .dynamic:

08050f20 <_DYNAMIC>:
 8050f20:	01 00                	add    %eax,(%eax)
 8050f22:	00 00                	add    %al,(%eax)
 8050f24:	01 00                	add    %eax,(%eax)
 8050f26:	00 00                	add    %al,(%eax)
 8050f28:	01 00                	add    %eax,(%eax)
 8050f2a:	00 00                	add    %al,(%eax)
 8050f2c:	d0 00                	rolb   (%eax)
 8050f2e:	00 00                	add    %al,(%eax)
 8050f30:	0c 00                	or     $0x0,%al
 8050f32:	00 00                	add    %al,(%eax)
 8050f34:	94                   	xchg   %eax,%esp
 8050f35:	8c 04 08             	mov    %es,(%eax,%ecx,1)
 8050f38:	0d 00 00 00 6c       	or     $0x6c000000,%eax
 8050f3d:	d9 04 08             	flds   (%eax,%ecx,1)
 8050f40:	f5                   	cmc    
 8050f41:	fe                   	(bad)  
 8050f42:	ff 6f ac             	ljmp   *-0x54(%edi)
 8050f45:	81 04 08 05 00 00 00 	addl   $0x5,(%eax,%ecx,1)
 8050f4c:	3c 86                	cmp    $0x86,%al
 8050f4e:	04 08                	add    $0x8,%al
 8050f50:	06                   	push   %es
 8050f51:	00 00                	add    %al,(%eax)
 8050f53:	00 dc                	add    %bl,%ah
 8050f55:	81 04 08 0a 00 00 00 	addl   $0xa,(%eax,%ecx,1)
 8050f5c:	eb 02                	jmp    8050f60 <_DYNAMIC+0x40>
 8050f5e:	00 00                	add    %al,(%eax)
 8050f60:	0b 00                	or     (%eax),%eax
 8050f62:	00 00                	add    %al,(%eax)
 8050f64:	10 00                	adc    %al,(%eax)
 8050f66:	00 00                	add    %al,(%eax)
 8050f68:	15 00 00 00 00       	adc    $0x0,%eax
 8050f6d:	00 00                	add    %al,(%eax)
 8050f6f:	00 03                	add    %al,(%ebx)
 8050f71:	00 00                	add    %al,(%eax)
 8050f73:	00 f4                	add    %dh,%ah
 8050f75:	0f 05                	syscall 
 8050f77:	08 02                	or     %al,(%edx)
 8050f79:	00 00                	add    %al,(%eax)
 8050f7b:	00 00                	add    %al,(%eax)
 8050f7d:	02 00                	add    (%eax),%al
 8050f7f:	00 14 00             	add    %dl,(%eax,%eax,1)
 8050f82:	00 00                	add    %al,(%eax)
 8050f84:	11 00                	adc    %eax,(%eax)
 8050f86:	00 00                	add    %al,(%eax)
 8050f88:	17                   	pop    %ss
 8050f89:	00 00                	add    %al,(%eax)
 8050f8b:	00 94 8a 04 08 11 00 	add    %dl,0x110804(%edx,%ecx,4)
 8050f92:	00 00                	add    %al,(%eax)
 8050f94:	74 8a                	je     8050f20 <_DYNAMIC>
 8050f96:	04 08                	add    $0x8,%al
 8050f98:	12 00                	adc    (%eax),%al
 8050f9a:	00 00                	add    %al,(%eax)
 8050f9c:	20 00                	and    %al,(%eax)
 8050f9e:	00 00                	add    %al,(%eax)
 8050fa0:	13 00                	adc    (%eax),%eax
 8050fa2:	00 00                	add    %al,(%eax)
 8050fa4:	08 00                	or     %al,(%eax)
 8050fa6:	00 00                	add    %al,(%eax)
 8050fa8:	fe                   	(bad)  
 8050fa9:	ff                   	(bad)  
 8050faa:	ff 6f b4             	ljmp   *-0x4c(%edi)
 8050fad:	89 04 08             	mov    %eax,(%eax,%ecx,1)
 8050fb0:	ff                   	(bad)  
 8050fb1:	ff                   	(bad)  
 8050fb2:	ff 6f 02             	ljmp   *0x2(%edi)
 8050fb5:	00 00                	add    %al,(%eax)
 8050fb7:	00 f0                	add    %dh,%al
 8050fb9:	ff                   	(bad)  
 8050fba:	ff 6f 28             	ljmp   *0x28(%edi)
 8050fbd:	89 04 08             	mov    %eax,(%eax,%ecx,1)
 8050fc0:	00 00                	add    %al,(%eax)
 8050fc2:	00 00                	add    %al,(%eax)
 8050fc4:	00 00                	add    %al,(%eax)
 8050fc6:	00 00                	add    %al,(%eax)
 8050fc8:	00 00                	add    %al,(%eax)
 8050fca:	00 00                	add    %al,(%eax)
 8050fcc:	00 00                	add    %al,(%eax)
 8050fce:	00 00                	add    %al,(%eax)
 8050fd0:	00 00                	add    %al,(%eax)
 8050fd2:	00 00                	add    %al,(%eax)
 8050fd4:	00 00                	add    %al,(%eax)
 8050fd6:	00 00                	add    %al,(%eax)
 8050fd8:	00 00                	add    %al,(%eax)
 8050fda:	00 00                	add    %al,(%eax)
 8050fdc:	00 00                	add    %al,(%eax)
 8050fde:	00 00                	add    %al,(%eax)
 8050fe0:	00 00                	add    %al,(%eax)
 8050fe2:	00 00                	add    %al,(%eax)
 8050fe4:	00 00                	add    %al,(%eax)
 8050fe6:	00 00                	add    %al,(%eax)
 8050fe8:	00 00                	add    %al,(%eax)
 8050fea:	00 00                	add    %al,(%eax)
 8050fec:	00 00                	add    %al,(%eax)
 8050fee:	00 00                	add    %al,(%eax)

Disassembly of section .got:

08050ff0 <.got>:
 8050ff0:	00 00                	add    %al,(%eax)
 8050ff2:	00 00                	add    %al,(%eax)

Disassembly of section .got.plt:

08050ff4 <_GLOBAL_OFFSET_TABLE_>:
 8050ff4:	20 0f                	and    %cl,(%edi)
 8050ff6:	05 08 00 00 00       	add    $0x8,%eax
 8050ffb:	00 00                	add    %al,(%eax)
 8050ffd:	00 00                	add    %al,(%eax)
 8050fff:	00 e6                	add    %ah,%dh
 8051001:	8c 04 08             	mov    %es,(%eax,%ecx,1)
 8051004:	f6                   	(bad)  
 8051005:	8c 04 08             	mov    %es,(%eax,%ecx,1)
 8051008:	06                   	push   %es
 8051009:	8d 04 08             	lea    (%eax,%ecx,1),%eax
 805100c:	16                   	push   %ss
 805100d:	8d 04 08             	lea    (%eax,%ecx,1),%eax
 8051010:	26 8d 04 08          	lea    %es:(%eax,%ecx,1),%eax
 8051014:	36 8d 04 08          	lea    %ss:(%eax,%ecx,1),%eax
 8051018:	46                   	inc    %esi
 8051019:	8d 04 08             	lea    (%eax,%ecx,1),%eax
 805101c:	56                   	push   %esi
 805101d:	8d 04 08             	lea    (%eax,%ecx,1),%eax
 8051020:	66 8d 04 08          	lea    (%eax,%ecx,1),%ax
 8051024:	76 8d                	jbe    8050fb3 <_DYNAMIC+0x93>
 8051026:	04 08                	add    $0x8,%al
 8051028:	86 8d 04 08 96 8d    	xchg   %cl,-0x7269f7fc(%ebp)
 805102e:	04 08                	add    $0x8,%al
 8051030:	a6                   	cmpsb  %es:(%edi),%ds:(%esi)
 8051031:	8d 04 08             	lea    (%eax,%ecx,1),%eax
 8051034:	b6 8d                	mov    $0x8d,%dh
 8051036:	04 08                	add    $0x8,%al
 8051038:	c6                   	(bad)  
 8051039:	8d 04 08             	lea    (%eax,%ecx,1),%eax
 805103c:	d6                   	(bad)  
 805103d:	8d 04 08             	lea    (%eax,%ecx,1),%eax
 8051040:	e6 8d                	out    %al,$0x8d
 8051042:	04 08                	add    $0x8,%al
 8051044:	f6                   	(bad)  
 8051045:	8d 04 08             	lea    (%eax,%ecx,1),%eax
 8051048:	06                   	push   %es
 8051049:	8e 04 08             	mov    (%eax,%ecx,1),%es
 805104c:	16                   	push   %ss
 805104d:	8e 04 08             	mov    (%eax,%ecx,1),%es
 8051050:	26 8e 04 08          	mov    %es:(%eax,%ecx,1),%es
 8051054:	36 8e 04 08          	mov    %ss:(%eax,%ecx,1),%es
 8051058:	46                   	inc    %esi
 8051059:	8e 04 08             	mov    (%eax,%ecx,1),%es
 805105c:	56                   	push   %esi
 805105d:	8e 04 08             	mov    (%eax,%ecx,1),%es
 8051060:	66                   	data16
 8051061:	8e 04 08             	mov    (%eax,%ecx,1),%es
 8051064:	76 8e                	jbe    8050ff4 <_GLOBAL_OFFSET_TABLE_>
 8051066:	04 08                	add    $0x8,%al
 8051068:	86 8e 04 08 96 8e    	xchg   %cl,-0x7169f7fc(%esi)
 805106e:	04 08                	add    $0x8,%al
 8051070:	a6                   	cmpsb  %es:(%edi),%ds:(%esi)
 8051071:	8e 04 08             	mov    (%eax,%ecx,1),%es
 8051074:	b6 8e                	mov    $0x8e,%dh
 8051076:	04 08                	add    $0x8,%al
 8051078:	c6                   	(bad)  
 8051079:	8e 04 08             	mov    (%eax,%ecx,1),%es
 805107c:	d6                   	(bad)  
 805107d:	8e 04 08             	mov    (%eax,%ecx,1),%es
 8051080:	e6 8e                	out    %al,$0x8e
 8051082:	04 08                	add    $0x8,%al
 8051084:	f6                   	(bad)  
 8051085:	8e 04 08             	mov    (%eax,%ecx,1),%es
 8051088:	06                   	push   %es
 8051089:	8f 04 08             	popl   (%eax,%ecx,1)
 805108c:	16                   	push   %ss
 805108d:	8f 04 08             	popl   (%eax,%ecx,1)
 8051090:	26 8f 04 08          	popl   %es:(%eax,%ecx,1)
 8051094:	36 8f 04 08          	popl   %ss:(%eax,%ecx,1)
 8051098:	46                   	inc    %esi
 8051099:	8f 04 08             	popl   (%eax,%ecx,1)
 805109c:	56                   	push   %esi
 805109d:	8f 04 08             	popl   (%eax,%ecx,1)
 80510a0:	66 8f 04 08          	popw   (%eax,%ecx,1)
 80510a4:	76 8f                	jbe    8051035 <_GLOBAL_OFFSET_TABLE_+0x41>
 80510a6:	04 08                	add    $0x8,%al
 80510a8:	86 8f 04 08 96 8f    	xchg   %cl,-0x7069f7fc(%edi)
 80510ae:	04 08                	add    $0x8,%al
 80510b0:	a6                   	cmpsb  %es:(%edi),%ds:(%esi)
 80510b1:	8f 04 08             	popl   (%eax,%ecx,1)
 80510b4:	b6 8f                	mov    $0x8f,%dh
 80510b6:	04 08                	add    $0x8,%al
 80510b8:	c6                   	(bad)  
 80510b9:	8f 04 08             	popl   (%eax,%ecx,1)
 80510bc:	d6                   	(bad)  
 80510bd:	8f 04 08             	popl   (%eax,%ecx,1)
 80510c0:	e6 8f                	out    %al,$0x8f
 80510c2:	04 08                	add    $0x8,%al
 80510c4:	f6                   	(bad)  
 80510c5:	8f 04 08             	popl   (%eax,%ecx,1)
 80510c8:	06                   	push   %es
 80510c9:	90                   	nop
 80510ca:	04 08                	add    $0x8,%al
 80510cc:	16                   	push   %ss
 80510cd:	90                   	nop
 80510ce:	04 08                	add    $0x8,%al
 80510d0:	26                   	es
 80510d1:	90                   	nop
 80510d2:	04 08                	add    $0x8,%al
 80510d4:	36                   	ss
 80510d5:	90                   	nop
 80510d6:	04 08                	add    $0x8,%al
 80510d8:	46                   	inc    %esi
 80510d9:	90                   	nop
 80510da:	04 08                	add    $0x8,%al
 80510dc:	56                   	push   %esi
 80510dd:	90                   	nop
 80510de:	04 08                	add    $0x8,%al
 80510e0:	66 90                	xchg   %ax,%ax
 80510e2:	04 08                	add    $0x8,%al
 80510e4:	76 90                	jbe    8051076 <_GLOBAL_OFFSET_TABLE_+0x82>
 80510e6:	04 08                	add    $0x8,%al
 80510e8:	86 90 04 08 96 90    	xchg   %dl,-0x6f69f7fc(%eax)
 80510ee:	04 08                	add    $0x8,%al
 80510f0:	a6                   	cmpsb  %es:(%edi),%ds:(%esi)
 80510f1:	90                   	nop
 80510f2:	04 08                	add    $0x8,%al
 80510f4:	b6 90                	mov    $0x90,%dh
 80510f6:	04 08                	add    $0x8,%al
 80510f8:	c6                   	(bad)  
 80510f9:	90                   	nop
 80510fa:	04 08                	add    $0x8,%al
 80510fc:	d6                   	(bad)  
 80510fd:	90                   	nop
 80510fe:	04 08                	add    $0x8,%al

Disassembly of section .data:

08051100 <__data_start>:
 8051100:	00 00                	add    %al,(%eax)
 8051102:	00 00                	add    %al,(%eax)

08051104 <__dso_handle>:
 8051104:	00 00                	add    %al,(%eax)
 8051106:	00 00                	add    %al,(%eax)
 8051108:	00 00                	add    %al,(%eax)
 805110a:	00 00                	add    %al,(%eax)
 805110c:	00 00                	add    %al,(%eax)
 805110e:	00 00                	add    %al,(%eax)
 8051110:	00 00                	add    %al,(%eax)
 8051112:	00 00                	add    %al,(%eax)
 8051114:	00 00                	add    %al,(%eax)
 8051116:	00 00                	add    %al,(%eax)
 8051118:	00 00                	add    %al,(%eax)
 805111a:	00 00                	add    %al,(%eax)
 805111c:	00 00                	add    %al,(%eax)
 805111e:	00 00                	add    %al,(%eax)

08051120 <conf_root>:
 8051120:	c6                   	(bad)  
 8051121:	da 04 08             	fiaddl (%eax,%ecx,1)
 8051124:	b0 11                	mov    $0x11,%al
 8051126:	05 08 40 11 05       	add    $0x5114008,%eax
 805112b:	08 00                	or     %al,(%eax)
 805112d:	00 00                	add    %al,(%eax)
 805112f:	00 00                	add    %al,(%eax)
 8051131:	00 00                	add    %al,(%eax)
 8051133:	00 00                	add    %al,(%eax)
 8051135:	00 00                	add    %al,(%eax)
 8051137:	00 00                	add    %al,(%eax)
 8051139:	00 00                	add    %al,(%eax)
 805113b:	00 00                	add    %al,(%eax)
 805113d:	00 00                	add    %al,(%eax)
 805113f:	00 ca                	add    %cl,%dl

08051140 <conf_log>:
 8051140:	ca da 04             	lret   $0x4da
 8051143:	08 c0                	or     %al,%al
 8051145:	11 05 08 74 13 05    	adc    %eax,0x5137408
 805114b:	08 00                	or     %al,(%eax)
 805114d:	00 00                	add    %al,(%eax)
 805114f:	00 00                	add    %al,(%eax)
 8051151:	00 00                	add    %al,(%eax)
 8051153:	00 00                	add    %al,(%eax)
 8051155:	00 00                	add    %al,(%eax)
 8051157:	00 00                	add    %al,(%eax)
 8051159:	00 00                	add    %al,(%eax)
 805115b:	00 00                	add    %al,(%eax)
 805115d:	00 00                	add    %al,(%eax)
 805115f:	00 d5                	add    %dl,%ch

08051160 <app_conf_path>:
 8051160:	d5 da                	aad    $0xda
 8051162:	04 08                	add    $0x8,%al

08051164 <app_fifo_name>:
 8051164:	e2 da                	loop   8051140 <conf_log>
 8051166:	04 08                	add    $0x8,%al

08051168 <app_pid_path>:
 8051168:	f0 da 04 08          	lock fiaddl (%eax,%ecx,1)

0805116c <DBG_COND_VAR>:
 805116c:	01 00                	add    %eax,(%eax)
 805116e:	00 00                	add    %al,(%eax)

08051170 <DBG_COND_VAR>:
 8051170:	01 00                	add    %eax,(%eax)
 8051172:	00 00                	add    %al,(%eax)

08051174 <DBG_COND_VAR>:
 8051174:	01 00                	add    %eax,(%eax)
 8051176:	00 00                	add    %al,(%eax)

08051178 <DBG_COND_VAR>:
 8051178:	01 00                	add    %eax,(%eax)
 805117a:	00 00                	add    %al,(%eax)

0805117c <DBG_COND_VAR>:
 805117c:	01 00                	add    %eax,(%eax)
 805117e:	00 00                	add    %al,(%eax)

08051180 <DBG_COND_VAR>:
 8051180:	01 00                	add    %eax,(%eax)
 8051182:	00 00                	add    %al,(%eax)
 8051184:	00 00                	add    %al,(%eax)
 8051186:	00 00                	add    %al,(%eax)
 8051188:	00 00                	add    %al,(%eax)
 805118a:	00 00                	add    %al,(%eax)
 805118c:	00 00                	add    %al,(%eax)
 805118e:	00 00                	add    %al,(%eax)
 8051190:	00 00                	add    %al,(%eax)
 8051192:	00 00                	add    %al,(%eax)
 8051194:	00 00                	add    %al,(%eax)
 8051196:	00 00                	add    %al,(%eax)
 8051198:	00 00                	add    %al,(%eax)
 805119a:	00 00                	add    %al,(%eax)
 805119c:	00 00                	add    %al,(%eax)
 805119e:	00 00                	add    %al,(%eax)

080511a0 <conf_type_tab>:
 80511a0:	00 00                	add    %al,(%eax)
 80511a2:	00 00                	add    %al,(%eax)
 80511a4:	10 e1                	adc    %ah,%cl
 80511a6:	04 08                	add    $0x8,%al
 80511a8:	b0 c7                	mov    $0xc7,%al
 80511aa:	04 08                	add    $0x8,%al
 80511ac:	5d                   	pop    %ebp
 80511ad:	cd 04                	int    $0x4
 80511af:	08 01                	or     %al,(%ecx)
 80511b1:	00 00                	add    %al,(%eax)
 80511b3:	00 15 e1 04 08 b0    	add    %dl,0xb00804e1
 80511b9:	c7 04 08 5d cd 04 08 	movl   $0x804cd5d,(%eax,%ecx,1)
 80511c0:	02 00                	add    (%eax),%al
 80511c2:	00 00                	add    %al,(%eax)
 80511c4:	1d e1 04 08 fb       	sbb    $0xfb0804e1,%eax
 80511c9:	c7 04 08 72 d0 04 08 	movl   $0x804d072,(%eax,%ecx,1)
 80511d0:	03 00                	add    (%eax),%eax
 80511d2:	00 00                	add    %al,(%eax)
 80511d4:	25 e1 04 08 48       	and    $0x480804e1,%eax
 80511d9:	c8 04 08 2a          	enter  $0x804,$0x2a
 80511dd:	d0 04 08             	rolb   (%eax,%ecx,1)
 80511e0:	04 00                	add    $0x0,%al
 80511e2:	00 00                	add    %al,(%eax)
 80511e4:	2e e1 04             	loope,pn 80511eb <conf_type_tab+0x4b>
 80511e7:	08 95 c8 04 08 1b    	or     %dl,0x1b0804c8(%ebp)
 80511ed:	cd 04                	int    $0x4
 80511ef:	08 05 00 00 00 34    	or     %al,0x34000000
 80511f5:	e1 04                	loope  80511fb <conf_type_tab+0x5b>
 80511f7:	08 e2                	or     %ah,%dl
 80511f9:	c8 04 08 36          	enter  $0x804,$0x36
 80511fd:	cf                   	iret   
 80511fe:	04 08                	add    $0x8,%al
 8051200:	06                   	push   %es
 8051201:	00 00                	add    %al,(%eax)
 8051203:	00 3b                	add    %bh,(%ebx)
 8051205:	e1 04                	loope  805120b <conf_type_tab+0x6b>
 8051207:	08 2d c9 04 08 e9    	or     %ch,0xe90804c9
 805120d:	cd 04                	int    $0x4
 805120f:	08 07                	or     %al,(%edi)
 8051211:	00 00                	add    %al,(%eax)
 8051213:	00 43 e1             	add    %al,-0x1f(%ebx)
 8051216:	04 08                	add    $0x8,%al
 8051218:	5b                   	pop    %ebx
 8051219:	c9                   	leave  
 805121a:	04 08                	add    $0x8,%al
 805121c:	88 cd                	mov    %cl,%ch
 805121e:	04 08                	add    $0x8,%al
 8051220:	08 00                	or     %al,(%eax)
 8051222:	00 00                	add    %al,(%eax)
 8051224:	48                   	dec    %eax
 8051225:	e1 04                	loope  805122b <conf_type_tab+0x8b>
 8051227:	08 a9 c9 04 08 d9    	or     %ch,-0x26f7fb37(%ecx)
 805122d:	cc                   	int3   
 805122e:	04 08                	add    $0x8,%al
 8051230:	09 00                	or     %eax,(%eax)
 8051232:	00 00                	add    %al,(%eax)
 8051234:	4e                   	dec    %esi
 8051235:	e1 04                	loope  805123b <conf_type_tab+0x9b>
 8051237:	08 f7                	or     %dh,%bh
 8051239:	c9                   	leave  
 805123a:	04 08                	add    $0x8,%al
 805123c:	97                   	xchg   %eax,%edi
 805123d:	cc                   	int3   
 805123e:	04 08                	add    $0x8,%al
 8051240:	0a 00                	or     (%eax),%al
 8051242:	00 00                	add    %al,(%eax)
 8051244:	55                   	push   %ebp
 8051245:	e1 04                	loope  805124b <conf_type_tab+0xab>
 8051247:	08 44 ca 04          	or     %al,0x4(%edx,%ecx,8)
 805124b:	08 55 cc             	or     %dl,-0x34(%ebp)
 805124e:	04 08                	add    $0x8,%al
 8051250:	0b 00                	or     (%eax),%eax
 8051252:	00 00                	add    %al,(%eax)
 8051254:	5c                   	pop    %esp
 8051255:	e1 04                	loope  805125b <conf_type_tab+0xbb>
 8051257:	08 91 ca 04 08 13    	or     %dl,0x130804ca(%ecx)
 805125d:	cc                   	int3   
 805125e:	04 08                	add    $0x8,%al
 8051260:	0c 00                	or     $0x0,%al
 8051262:	00 00                	add    %al,(%eax)
 8051264:	63 e1                	arpl   %sp,%cx
 8051266:	04 08                	add    $0x8,%al
 8051268:	e7 ca                	out    %eax,$0xca
 805126a:	04 08                	add    $0x8,%al
 805126c:	89 c7                	mov    %eax,%edi
 805126e:	04 08                	add    $0x8,%al
 8051270:	0d 00 00 00 6c       	or     $0x6c000000,%eax
 8051275:	e1 04                	loope  805127b <conf_type_tab+0xdb>
 8051277:	08 05 cb 04 08 62    	or     %al,0x620804cb
 805127d:	c7 04 08 0e 00 00 00 	movl   $0xe,(%eax,%ecx,1)
 8051284:	76 e1                	jbe    8051267 <conf_type_tab+0xc7>
 8051286:	04 08                	add    $0x8,%al
 8051288:	23 cb                	and    %ebx,%ecx
 805128a:	04 08                	add    $0x8,%al
 805128c:	3b c7                	cmp    %edi,%eax
 805128e:	04 08                	add    $0x8,%al
 8051290:	0f 00 00             	sldt   (%eax)
 8051293:	00 80 e1 04 08 d0    	add    %al,-0x2ff7fb1f(%eax)
 8051299:	c5 04 08             	lds    (%eax,%ecx,1),%eax
 805129c:	14 c7                	adc    $0xc7,%al
 805129e:	04 08                	add    $0x8,%al
 80512a0:	10 00                	adc    %al,(%eax)
 80512a2:	00 00                	add    %al,(%eax)
 80512a4:	8a e1                	mov    %cl,%ah
 80512a6:	04 08                	add    $0x8,%al
 80512a8:	41                   	inc    %ecx
 80512a9:	cb                   	lret   
 80512aa:	04 08                	add    $0x8,%al
 80512ac:	ed                   	in     (%dx),%eax
 80512ad:	c6 04 08 11          	movb   $0x11,(%eax,%ecx,1)
 80512b1:	00 00                	add    %al,(%eax)
 80512b3:	00 92 e1 04 08 5f    	add    %dl,0x5f0804e1(%edx)
 80512b9:	cb                   	lret   
 80512ba:	04 08                	add    $0x8,%al
 80512bc:	c6 c6 04             	mov    $0x4,%dh
 80512bf:	08 12                	or     %dl,(%edx)
 80512c1:	00 00                	add    %al,(%eax)
 80512c3:	00 9b e1 04 08 d6    	add    %bl,-0x29f7fb1f(%ebx)
 80512c9:	c5 04 08             	lds    (%eax,%ecx,1),%eax
 80512cc:	9f                   	lahf   
 80512cd:	c6 04 08 13          	movb   $0x13,(%eax,%ecx,1)
 80512d1:	00 00                	add    %al,(%eax)
 80512d3:	00 a4 e1 04 08 7d cb 	add    %ah,-0x3482f7fc(%ecx,%eiz,8)
 80512da:	04 08                	add    $0x8,%al
 80512dc:	78 c6                	js     80512a4 <conf_type_tab+0x104>
 80512de:	04 08                	add    $0x8,%al
 80512e0:	14 00                	adc    $0x0,%al
 80512e2:	00 00                	add    %al,(%eax)
 80512e4:	ad                   	lods   %ds:(%esi),%eax
 80512e5:	e1 04                	loope  80512eb <conf_type_tab+0x14b>
 80512e7:	08 e2                	or     %ah,%dl
 80512e9:	c8 04 08 36          	enter  $0x804,$0x36
 80512ed:	cf                   	iret   
 80512ee:	04 08                	add    $0x8,%al
 80512f0:	15 00 00 00 b8       	adc    $0xb8000000,%eax
 80512f5:	e1 04                	loope  80512fb <conf_type_tab+0x15b>
 80512f7:	08 9b cb 04 08 51    	or     %bl,0x510804cb(%ebx)
 80512fd:	c6 04 08 16          	movb   $0x16,(%eax,%ecx,1)
 8051301:	00 00                	add    %al,(%eax)
 8051303:	00 bc e1 04 08 b9 cb 	add    %bh,-0x3446f7fc(%ecx,%eiz,8)
 805130a:	04 08                	add    $0x8,%al
 805130c:	2a c6                	sub    %dh,%al
 805130e:	04 08                	add    $0x8,%al
 8051310:	17                   	pop    %ss
 8051311:	00 00                	add    %al,(%eax)
 8051313:	00 c1                	add    %al,%cl
 8051315:	e1 04                	loope  805131b <conf_type_tab+0x17b>
 8051317:	08 d7                	or     %dl,%bh
 8051319:	cb                   	lret   
 805131a:	04 08                	add    $0x8,%al
 805131c:	03 c6                	add    %esi,%eax
 805131e:	04 08                	add    $0x8,%al
 8051320:	18 00                	sbb    %al,(%eax)
 8051322:	00 00                	add    %al,(%eax)
 8051324:	c6                   	(bad)  
 8051325:	e1 04                	loope  805132b <conf_type_tab+0x18b>
 8051327:	08 f5                	or     %dh,%ch
 8051329:	cb                   	lret   
 805132a:	04 08                	add    $0x8,%al
 805132c:	dc c5                	fadd   %st,%st(5)
 805132e:	04 08                	add    $0x8,%al
 8051330:	1a 00                	sbb    (%eax),%al
 8051332:	00 00                	add    %al,(%eax)
 8051334:	cc                   	int3   
 8051335:	e1 04                	loope  805133b <conf_type_tab+0x19b>
 8051337:	08 e2                	or     %ah,%dl
 8051339:	c8 04 08 36          	enter  $0x804,$0x36
 805133d:	cf                   	iret   
 805133e:	04 08                	add    $0x8,%al

Disassembly of section .bss:

08051340 <stderr@@GLIBC_2.0>:
 8051340:	00 00                	add    %al,(%eax)
 8051342:	00 00                	add    %al,(%eax)
 8051344:	00 00                	add    %al,(%eax)
 8051346:	00 00                	add    %al,(%eax)
 8051348:	00 00                	add    %al,(%eax)
 805134a:	00 00                	add    %al,(%eax)
 805134c:	00 00                	add    %al,(%eax)
 805134e:	00 00                	add    %al,(%eax)
 8051350:	00 00                	add    %al,(%eax)
 8051352:	00 00                	add    %al,(%eax)
 8051354:	00 00                	add    %al,(%eax)
 8051356:	00 00                	add    %al,(%eax)
 8051358:	00 00                	add    %al,(%eax)
 805135a:	00 00                	add    %al,(%eax)
 805135c:	00 00                	add    %al,(%eax)
 805135e:	00 00                	add    %al,(%eax)

08051360 <stdout@@GLIBC_2.0>:
 8051360:	00 00                	add    %al,(%eax)
 8051362:	00 00                	add    %al,(%eax)

08051364 <optarg@@GLIBC_2.0>:
 8051364:	00 00                	add    %al,(%eax)
 8051366:	00 00                	add    %al,(%eax)

08051368 <completed.6159>:
 8051368:	00 00                	add    %al,(%eax)
 805136a:	00 00                	add    %al,(%eax)

 805136c:	00 00                	add    %al,(%eax)
 805136e:	00 00                	add    %al,(%eax)

08051370 <app_nodaemon>:
 8051370:	00 00                	add    %al,(%eax)
 8051372:	00 00                	add    %al,(%eax)

08051374 <app_log_enabled>:
 8051374:	00 00                	add    %al,(%eax)
 8051376:	00 00                	add    %al,(%eax)

08051378 <DBG_IDENT_VAR>:
 8051378:	00 00                	add    %al,(%eax)
 805137a:	00 00                	add    %al,(%eax)

0805137c <DBG_IDENT_VAR>:
 805137c:	00 00                	add    %al,(%eax)
 805137e:	00 00                	add    %al,(%eax)

08051380 <DBG_IDENT_VAR>:
 8051380:	00 00                	add    %al,(%eax)
 8051382:	00 00                	add    %al,(%eax)
 8051384:	00 00                	add    %al,(%eax)
 8051386:	00 00                	add    %al,(%eax)
 8051388:	00 00                	add    %al,(%eax)
 805138a:	00 00                	add    %al,(%eax)
 805138c:	00 00                	add    %al,(%eax)
 805138e:	00 00                	add    %al,(%eax)
 8051390:	00 00                	add    %al,(%eax)
 8051392:	00 00                	add    %al,(%eax)
 8051394:	00 00                	add    %al,(%eax)
 8051396:	00 00                	add    %al,(%eax)
 8051398:	00 00                	add    %al,(%eax)
 805139a:	00 00                	add    %al,(%eax)
 805139c:	00 00                	add    %al,(%eax)
 805139e:	00 00                	add    %al,(%eax)

080513a0 <ctrl_path>:
 80513a0:	00 00                	add    %al,(%eax)
 80513a2:	00 00                	add    %al,(%eax)
 80513a4:	00 00                	add    %al,(%eax)
 80513a6:	00 00                	add    %al,(%eax)
 80513a8:	00 00                	add    %al,(%eax)
 80513aa:	00 00                	add    %al,(%eax)
 80513ac:	00 00                	add    %al,(%eax)
 80513ae:	00 00                	add    %al,(%eax)
 80513b0:	00 00                	add    %al,(%eax)
 80513b2:	00 00                	add    %al,(%eax)
 80513b4:	00 00                	add    %al,(%eax)
 80513b6:	00 00                	add    %al,(%eax)
 80513b8:	00 00                	add    %al,(%eax)
 80513ba:	00 00                	add    %al,(%eax)
 80513bc:	00 00                	add    %al,(%eax)
 80513be:	00 00                	add    %al,(%eax)
 80513c0:	00 00                	add    %al,(%eax)
 80513c2:	00 00                	add    %al,(%eax)
 80513c4:	00 00                	add    %al,(%eax)
 80513c6:	00 00                	add    %al,(%eax)
 80513c8:	00 00                	add    %al,(%eax)
 80513ca:	00 00                	add    %al,(%eax)
 80513cc:	00 00                	add    %al,(%eax)
 80513ce:	00 00                	add    %al,(%eax)
 80513d0:	00 00                	add    %al,(%eax)
 80513d2:	00 00                	add    %al,(%eax)
 80513d4:	00 00                	add    %al,(%eax)
 80513d6:	00 00                	add    %al,(%eax)
 80513d8:	00 00                	add    %al,(%eax)
 80513da:	00 00                	add    %al,(%eax)
 80513dc:	00 00                	add    %al,(%eax)
 80513de:	00 00                	add    %al,(%eax)
 80513e0:	00 00                	add    %al,(%eax)
 80513e2:	00 00                	add    %al,(%eax)
 80513e4:	00 00                	add    %al,(%eax)
 80513e6:	00 00                	add    %al,(%eax)
 80513e8:	00 00                	add    %al,(%eax)
 80513ea:	00 00                	add    %al,(%eax)
 80513ec:	00 00                	add    %al,(%eax)
 80513ee:	00 00                	add    %al,(%eax)
 80513f0:	00 00                	add    %al,(%eax)
 80513f2:	00 00                	add    %al,(%eax)
 80513f4:	00 00                	add    %al,(%eax)
 80513f6:	00 00                	add    %al,(%eax)
 80513f8:	00 00                	add    %al,(%eax)
 80513fa:	00 00                	add    %al,(%eax)
 80513fc:	00 00                	add    %al,(%eax)
 80513fe:	00 00                	add    %al,(%eax)
 8051400:	00 00                	add    %al,(%eax)
 8051402:	00 00                	add    %al,(%eax)
 8051404:	00 00                	add    %al,(%eax)
 8051406:	00 00                	add    %al,(%eax)
 8051408:	00 00                	add    %al,(%eax)
 805140a:	00 00                	add    %al,(%eax)
 805140c:	00 00                	add    %al,(%eax)
 805140e:	00 00                	add    %al,(%eax)
 8051410:	00 00                	add    %al,(%eax)
 8051412:	00 00                	add    %al,(%eax)
 8051414:	00 00                	add    %al,(%eax)
 8051416:	00 00                	add    %al,(%eax)
 8051418:	00 00                	add    %al,(%eax)
 805141a:	00 00                	add    %al,(%eax)
 805141c:	00 00                	add    %al,(%eax)
 805141e:	00 00                	add    %al,(%eax)

08051420 <ctrl_thread>:
 8051420:	00 00                	add    %al,(%eax)
 8051422:	00 00                	add    %al,(%eax)

08051424 <ctrl_fifo>:
 8051424:	00 00                	add    %al,(%eax)
 8051426:	00 00                	add    %al,(%eax)

08051428 <DBG_IDENT_VAR>:
 8051428:	00 00                	add    %al,(%eax)
 805142a:	00 00                	add    %al,(%eax)

0805142c <server_thread>:
 805142c:	00 00                	add    %al,(%eax)
 805142e:	00 00                	add    %al,(%eax)

08051430 <DBG_IDENT_VAR>:
 8051430:	00 00                	add    %al,(%eax)
 8051432:	00 00                	add    %al,(%eax)
 8051434:	00 00                	add    %al,(%eax)
 8051436:	00 00                	add    %al,(%eax)
 8051438:	00 00                	add    %al,(%eax)
 805143a:	00 00                	add    %al,(%eax)
 805143c:	00 00                	add    %al,(%eax)
 805143e:	00 00                	add    %al,(%eax)

08051440 <DBG_IDENT_VAR>:
 8051440:	00 00                	add    %al,(%eax)
 8051442:	00 00                	add    %al,(%eax)

08051444 <task1_running>:
 8051444:	00 00                	add    %al,(%eax)
 8051446:	00 00                	add    %al,(%eax)

08051448 <task1_mtx>:
 8051448:	00 00                	add    %al,(%eax)
 805144a:	00 00                	add    %al,(%eax)
 805144c:	00 00                	add    %al,(%eax)
 805144e:	00 00                	add    %al,(%eax)
 8051450:	00 00                	add    %al,(%eax)
 8051452:	00 00                	add    %al,(%eax)
 8051454:	00 00                	add    %al,(%eax)
 8051456:	00 00                	add    %al,(%eax)
 8051458:	00 00                	add    %al,(%eax)
 805145a:	00 00                	add    %al,(%eax)
 805145c:	00 00                	add    %al,(%eax)
 805145e:	00 00                	add    %al,(%eax)

08051460 <task1_cond>:
 8051460:	00 00                	add    %al,(%eax)
 8051462:	00 00                	add    %al,(%eax)
 8051464:	00 00                	add    %al,(%eax)
 8051466:	00 00                	add    %al,(%eax)
 8051468:	00 00                	add    %al,(%eax)
 805146a:	00 00                	add    %al,(%eax)
 805146c:	00 00                	add    %al,(%eax)
 805146e:	00 00                	add    %al,(%eax)
 8051470:	00 00                	add    %al,(%eax)
 8051472:	00 00                	add    %al,(%eax)
 8051474:	00 00                	add    %al,(%eax)
 8051476:	00 00                	add    %al,(%eax)
 8051478:	00 00                	add    %al,(%eax)
 805147a:	00 00                	add    %al,(%eax)
 805147c:	00 00                	add    %al,(%eax)
 805147e:	00 00                	add    %al,(%eax)
 8051480:	00 00                	add    %al,(%eax)
 8051482:	00 00                	add    %al,(%eax)
 8051484:	00 00                	add    %al,(%eax)
 8051486:	00 00                	add    %al,(%eax)
 8051488:	00 00                	add    %al,(%eax)
 805148a:	00 00                	add    %al,(%eax)
 805148c:	00 00                	add    %al,(%eax)
 805148e:	00 00                	add    %al,(%eax)

08051490 <task2_mtx>:
 8051490:	00 00                	add    %al,(%eax)
 8051492:	00 00                	add    %al,(%eax)
 8051494:	00 00                	add    %al,(%eax)
 8051496:	00 00                	add    %al,(%eax)
 8051498:	00 00                	add    %al,(%eax)
 805149a:	00 00                	add    %al,(%eax)
 805149c:	00 00                	add    %al,(%eax)
 805149e:	00 00                	add    %al,(%eax)
 80514a0:	00 00                	add    %al,(%eax)
 80514a2:	00 00                	add    %al,(%eax)
 80514a4:	00 00                	add    %al,(%eax)
 80514a6:	00 00                	add    %al,(%eax)

080514a8 <task2_action>:
 80514a8:	00 00                	add    %al,(%eax)
 80514aa:	00 00                	add    %al,(%eax)
 80514ac:	00 00                	add    %al,(%eax)
 80514ae:	00 00                	add    %al,(%eax)
 80514b0:	00 00                	add    %al,(%eax)
 80514b2:	00 00                	add    %al,(%eax)
 80514b4:	00 00                	add    %al,(%eax)
 80514b6:	00 00                	add    %al,(%eax)
 80514b8:	00 00                	add    %al,(%eax)
 80514ba:	00 00                	add    %al,(%eax)
 80514bc:	00 00                	add    %al,(%eax)
 80514be:	00 00                	add    %al,(%eax)

080514c0 <task2_cond>:
 80514c0:	00 00                	add    %al,(%eax)
 80514c2:	00 00                	add    %al,(%eax)
 80514c4:	00 00                	add    %al,(%eax)
 80514c6:	00 00                	add    %al,(%eax)
 80514c8:	00 00                	add    %al,(%eax)
 80514ca:	00 00                	add    %al,(%eax)
 80514cc:	00 00                	add    %al,(%eax)
 80514ce:	00 00                	add    %al,(%eax)
 80514d0:	00 00                	add    %al,(%eax)
 80514d2:	00 00                	add    %al,(%eax)
 80514d4:	00 00                	add    %al,(%eax)
 80514d6:	00 00                	add    %al,(%eax)
 80514d8:	00 00                	add    %al,(%eax)
 80514da:	00 00                	add    %al,(%eax)
 80514dc:	00 00                	add    %al,(%eax)
 80514de:	00 00                	add    %al,(%eax)
 80514e0:	00 00                	add    %al,(%eax)
 80514e2:	00 00                	add    %al,(%eax)
 80514e4:	00 00                	add    %al,(%eax)
 80514e6:	00 00                	add    %al,(%eax)
 80514e8:	00 00                	add    %al,(%eax)
 80514ea:	00 00                	add    %al,(%eax)
 80514ec:	00 00                	add    %al,(%eax)
 80514ee:	00 00                	add    %al,(%eax)

080514f0 <task2_delay>:
 80514f0:	00 00                	add    %al,(%eax)
 80514f2:	00 00                	add    %al,(%eax)

080514f4 <task1_thread>:
 80514f4:	00 00                	add    %al,(%eax)
 80514f6:	00 00                	add    %al,(%eax)

080514f8 <task2_thread>:
 80514f8:	00 00                	add    %al,(%eax)
 80514fa:	00 00                	add    %al,(%eax)

080514fc <task1_exit>:
 80514fc:	00 00                	add    %al,(%eax)
 80514fe:	00 00                	add    %al,(%eax)

08051500 <app_pid>:
 8051500:	00 00                	add    %al,(%eax)
 8051502:	00 00                	add    %al,(%eax)

08051504 <app_name>:
 8051504:	00 00                	add    %al,(%eax)
 8051506:	00 00                	add    %al,(%eax)
 8051508:	00 00                	add    %al,(%eax)
 805150a:	00 00                	add    %al,(%eax)
 805150c:	00 00                	add    %al,(%eax)
 805150e:	00 00                	add    %al,(%eax)
 8051510:	00 00                	add    %al,(%eax)
 8051512:	00 00                	add    %al,(%eax)
 8051514:	00 00                	add    %al,(%eax)
 8051516:	00 00                	add    %al,(%eax)
 8051518:	00 00                	add    %al,(%eax)
 805151a:	00 00                	add    %al,(%eax)
 805151c:	00 00                	add    %al,(%eax)
 805151e:	00 00                	add    %al,(%eax)

08051520 <server>:
 8051520:	00 00                	add    %al,(%eax)
 8051522:	00 00                	add    %al,(%eax)
 8051524:	00 00                	add    %al,(%eax)
 8051526:	00 00                	add    %al,(%eax)
 8051528:	00 00                	add    %al,(%eax)
 805152a:	00 00                	add    %al,(%eax)
 805152c:	00 00                	add    %al,(%eax)
 805152e:	00 00                	add    %al,(%eax)
 8051530:	00 00                	add    %al,(%eax)
 8051532:	00 00                	add    %al,(%eax)
 8051534:	00 00                	add    %al,(%eax)
 8051536:	00 00                	add    %al,(%eax)
 8051538:	00 00                	add    %al,(%eax)
 805153a:	00 00                	add    %al,(%eax)
 805153c:	00 00                	add    %al,(%eax)
 805153e:	00 00                	add    %al,(%eax)
 8051540:	00 00                	add    %al,(%eax)
 8051542:	00 00                	add    %al,(%eax)

Disassembly of section .comment:

00000000 <.comment>:
   0:	47                   	inc    %edi
   1:	43                   	inc    %ebx
   2:	43                   	inc    %ebx
   3:	3a 20                	cmp    (%eax),%ah
   5:	28 55 62             	sub    %dl,0x62(%ebp)
   8:	75 6e                	jne    78 <_init-0x8048c1c>
   a:	74 75                	je     81 <_init-0x8048c13>
   c:	2f                   	das    
   d:	4c                   	dec    %esp
   e:	69 6e 61 72 6f 20 34 	imul   $0x34206f72,0x61(%esi),%ebp
  15:	2e 36 2e 33 2d 31 75 62 75 	cs ss xor %cs:%ss:0x75627531,%ebp
  1e:	6e                   	outsb  %ds:(%esi),(%dx)
  1f:	74 75                	je     96 <_init-0x8048bfe>
  21:	35 29 20 34 2e       	xor    $0x2e342029,%eax
  26:	36 2e 33 00          	ss xor %cs:%ss:(%eax),%eax

Disassembly of section .debug_aranges:

00000000 <.debug_aranges>:
   0:	1c 00                	sbb    $0x0,%al
   2:	00 00                	add    %al,(%eax)
   4:	02 00                	add    (%eax),%al
   6:	00 00                	add    %al,(%eax)
   8:	00 00                	add    %al,(%eax)
   a:	04 00                	add    $0x0,%al
   c:	00 00                	add    %al,(%eax)
   e:	00 00                	add    %al,(%eax)
  10:	d0 c5                	rol    %ch
  12:	04 08                	add    $0x8,%al
  14:	ea 12 00 00 00 00 00 	ljmp   $0x0,$0x12
  1b:	00 00                	add    %al,(%eax)
  1d:	00 00                	add    %al,(%eax)
  1f:	00                   	.byte 0x0

Disassembly of section .debug_info:

00000000 <.debug_info>:
       0:	50                   	push   %eax
       1:	19 00                	sbb    %eax,(%eax)
       3:	00 02                	add    %al,(%edx)
       5:	00 00                	add    %al,(%eax)
       7:	00 00                	add    %al,(%eax)
       9:	00 04 01             	add    %al,(%ecx,%eax,1)
       c:	56                   	push   %esi
       d:	04 00                	add    $0x0,%al
       f:	00 01                	add    %al,(%ecx)
      11:	2b 04 00             	sub    (%eax,%eax,1),%eax
      14:	00 40 02             	add    %al,0x2(%eax)
      17:	00 00                	add    %al,(%eax)
      19:	d0 c5                	rol    %ch
      1b:	04 08                	add    $0x8,%al
      1d:	ba d8 04 08 00       	mov    $0x804d8,%edx
      22:	00 00                	add    %al,(%eax)
      24:	00 02                	add    %al,(%edx)
      26:	5f                   	pop    %edi
      27:	01 00                	add    %eax,(%eax)
      29:	00 04 d4             	add    %al,(%esp,%edx,8)
      2c:	30 00                	xor    %al,(%eax)
      2e:	00 00                	add    %al,(%eax)
      30:	03 04 07             	add    (%edi,%eax,1),%eax
      33:	f1                   	icebp  
      34:	00 00                	add    %al,(%eax)
      36:	00 03                	add    %al,(%ebx)
      38:	01 08                	add    %ecx,(%eax)
      3a:	8f 04 00             	popl   (%eax,%eax,1)
      3d:	00 03                	add    %al,(%ebx)
      3f:	02 07                	add    (%edi),%al
      41:	23 05 00 00 03 04    	and    0x4030000,%eax
      47:	07                   	pop    %es
      48:	ec                   	in     (%dx),%al
      49:	00 00                	add    %al,(%eax)
      4b:	00 03                	add    %al,(%ebx)
      4d:	01 06                	add    %eax,(%esi)
      4f:	91                   	xchg   %eax,%ecx
      50:	04 00                	add    $0x0,%al
      52:	00 03                	add    %al,(%ebx)
      54:	02 05 b7 03 00 00    	add    0x3b7,%al
      5a:	04 04                	add    $0x4,%al
      5c:	05 69 6e 74 00       	add    $0x746e69,%eax
      61:	03 08                	add    (%eax),%ecx
      63:	05 83 02 00 00       	add    $0x283,%eax
      68:	03 08                	add    (%eax),%ecx
      6a:	07                   	pop    %es
      6b:	e7 00                	out    %eax,$0x0
      6d:	00 00                	add    %al,(%eax)
      6f:	02 e3                	add    %bl,%ah
      71:	02 00                	add    (%eax),%al
      73:	00 05 38 61 00 00    	add    %al,0x6138
      79:	00 02                	add    %al,(%edx)
      7b:	12 05 00 00 05 8d    	adc    0x8d050000,%al
      81:	85 00                	test   %eax,(%eax)
      83:	00 00                	add    %al,(%eax)
      85:	03 04 05 88 02 00 00 	add    0x288(,%eax,1),%eax
      8c:	02 73 05             	add    0x5(%ebx),%dh
      8f:	00 00                	add    %al,(%eax)
      91:	05 8e 6f 00 00       	add    $0x6f8e,%eax
      96:	00 05 04 06 04 9f    	add    %al,0x9f040604
      9c:	00 00                	add    %al,(%eax)
      9e:	00 03                	add    %al,(%ebx)
      a0:	01 06                	add    %eax,(%esi)
      a2:	98                   	cwtl   
      a3:	04 00                	add    $0x0,%al
      a5:	00 02                	add    %al,(%edx)
      a7:	42                   	inc    %edx
      a8:	04 00                	add    $0x0,%al
      aa:	00 06                	add    %al,(%esi)
      ac:	31 b1 00 00 00 07    	xor    %esi,0x7000000(%ecx)
      b2:	3e                   	ds
      b3:	04 00                	add    $0x0,%al
      b5:	00 94 07 11 01 72 02 	add    %dl,0x2720111(%edi,%eax,1)
      bc:	00 00                	add    %al,(%eax)
      be:	08 56 00             	or     %dl,0x0(%esi)
      c1:	00 00                	add    %al,(%eax)
      c3:	07                   	pop    %es
      c4:	12 01                	adc    (%ecx),%al
      c6:	5a                   	pop    %edx
      c7:	00 00                	add    %al,(%eax)
      c9:	00 02                	add    %al,(%edx)
      cb:	23 00                	and    (%eax),%eax
      cd:	08 e7                	or     %ah,%bh
      cf:	01 00                	add    %eax,(%eax)
      d1:	00 07                	add    %al,(%edi)
      d3:	17                   	pop    %ss
      d4:	01 99 00 00 00 02    	add    %ebx,0x2000000(%ecx)
      da:	23 04 08             	and    (%eax,%ecx,1),%eax
      dd:	a1 03 00 00 07       	mov    0x7000003,%eax
      e2:	18 01                	sbb    %al,(%ecx)
      e4:	99                   	cltd   
      e5:	00 00                	add    %al,(%eax)
      e7:	00 02                	add    %al,(%edx)
      e9:	23 08                	and    (%eax),%ecx
      eb:	08 84 01 00 00 07 19 	or     %al,0x19070000(%ecx,%eax,1)
      f2:	01 99 00 00 00 02    	add    %ebx,0x2000000(%ecx)
      f8:	23 0c 08             	and    (%eax,%ecx,1),%ecx
      fb:	31 02                	xor    %eax,(%edx)
      fd:	00 00                	add    %al,(%eax)
      ff:	07                   	pop    %es
     100:	1a 01                	sbb    (%ecx),%al
     102:	99                   	cltd   
     103:	00 00                	add    %al,(%eax)
     105:	00 02                	add    %al,(%edx)
     107:	23 10                	and    (%eax),%edx
     109:	08 bf 04 00 00 07    	or     %bh,0x7000004(%edi)
     10f:	1b 01                	sbb    (%ecx),%eax
     111:	99                   	cltd   
     112:	00 00                	add    %al,(%eax)
     114:	00 02                	add    %al,(%edx)
     116:	23 14 08             	and    (%eax,%ecx,1),%edx
     119:	3e 00 00             	add    %al,%ds:(%eax)
     11c:	00 07                	add    %al,(%edi)
     11e:	1c 01                	sbb    $0x1,%al
     120:	99                   	cltd   
     121:	00 00                	add    %al,(%eax)
     123:	00 02                	add    %al,(%edx)
     125:	23 18                	and    (%eax),%ebx
     127:	08 86 05 00 00 07    	or     %al,0x7000005(%esi)
     12d:	1d 01 99 00 00       	sbb    $0x9901,%eax
     132:	00 02                	add    %al,(%edx)
     134:	23 1c 08             	and    (%eax,%ecx,1),%ebx
     137:	29 00                	sub    %eax,(%eax)
     139:	00 00                	add    %al,(%eax)
     13b:	07                   	pop    %es
     13c:	1e                   	push   %ds
     13d:	01 99 00 00 00 02    	add    %ebx,0x2000000(%ecx)
     143:	23 20                	and    (%eax),%esp
     145:	08 9a 02 00 00 07    	or     %bl,0x7000002(%edx)
     14b:	20 01                	and    %al,(%ecx)
     14d:	99                   	cltd   
     14e:	00 00                	add    %al,(%eax)
     150:	00 02                	add    %al,(%edx)
     152:	23 24 08             	and    (%eax,%ecx,1),%esp
     155:	17                   	pop    %ss
     156:	01 00                	add    %eax,(%eax)
     158:	00 07                	add    %al,(%edi)
     15a:	21 01                	and    %eax,(%ecx)
     15c:	99                   	cltd   
     15d:	00 00                	add    %al,(%eax)
     15f:	00 02                	add    %al,(%edx)
     161:	23 28                	and    (%eax),%ebp
     163:	08 bd 00 00 00 07    	or     %bh,0x7000000(%ebp)
     169:	22 01                	and    (%ecx),%al
     16b:	99                   	cltd   
     16c:	00 00                	add    %al,(%eax)
     16e:	00 02                	add    %al,(%edx)
     170:	23 2c 08             	and    (%eax,%ecx,1),%ebp
     173:	7d 00                	jge    175 <_init-0x8048b1f>
     175:	00 00                	add    %al,(%eax)
     177:	07                   	pop    %es
     178:	24 01                	and    $0x1,%al
     17a:	b0 02                	mov    $0x2,%al
     17c:	00 00                	add    %al,(%eax)
     17e:	02 23                	add    (%ebx),%ah
     180:	30 08                	xor    %cl,(%eax)
     182:	36                   	ss
     183:	05 00 00 07 26       	add    $0x26070000,%eax
     188:	01 b6 02 00 00 02    	add    %esi,0x2000002(%esi)
     18e:	23 34 08             	and    (%eax,%ecx,1),%esi
     191:	42                   	inc    %edx
     192:	01 00                	add    %eax,(%eax)
     194:	00 07                	add    %al,(%edi)
     196:	28 01                	sub    %al,(%ecx)
     198:	5a                   	pop    %edx
     199:	00 00                	add    %al,(%eax)
     19b:	00 02                	add    %al,(%edx)
     19d:	23 38                	and    (%eax),%edi
     19f:	08 50 05             	or     %dl,0x5(%eax)
     1a2:	00 00                	add    %al,(%eax)
     1a4:	07                   	pop    %es
     1a5:	2c 01                	sub    $0x1,%al
     1a7:	5a                   	pop    %edx
     1a8:	00 00                	add    %al,(%eax)
     1aa:	00 02                	add    %al,(%edx)
     1ac:	23 3c 08             	and    (%eax,%ecx,1),%edi
     1af:	32 04 00             	xor    (%eax,%eax,1),%al
     1b2:	00 07                	add    %al,(%edi)
     1b4:	2e 01 7a 00          	add    %edi,%cs:0x0(%edx)
     1b8:	00 00                	add    %al,(%eax)
     1ba:	02 23                	add    (%ebx),%ah
     1bc:	40                   	inc    %eax
     1bd:	08 58 05             	or     %bl,0x5(%eax)
     1c0:	00 00                	add    %al,(%eax)
     1c2:	07                   	pop    %es
     1c3:	32 01                	xor    (%ecx),%al
     1c5:	3e 00 00             	add    %al,%ds:(%eax)
     1c8:	00 02                	add    %al,(%edx)
     1ca:	23 44 08 36          	and    0x36(%eax,%ecx,1),%eax
     1ce:	03 00                	add    (%eax),%eax
     1d0:	00 07                	add    %al,(%edi)
     1d2:	33 01                	xor    (%ecx),%eax
     1d4:	4c                   	dec    %esp
     1d5:	00 00                	add    %al,(%eax)
     1d7:	00 02                	add    %al,(%edx)
     1d9:	23 46 08             	and    0x8(%esi),%eax
     1dc:	00 00                	add    %al,(%eax)
     1de:	00 00                	add    %al,(%eax)
     1e0:	07                   	pop    %es
     1e1:	34 01                	xor    $0x1,%al
     1e3:	bc 02 00 00 02       	mov    $0x2000002,%esp
     1e8:	23 47 08             	and    0x8(%edi),%eax
     1eb:	25 04 00 00 07       	and    $0x7000004,%eax
     1f0:	38 01                	cmp    %al,(%ecx)
     1f2:	cc                   	int3   
     1f3:	02 00                	add    (%eax),%al
     1f5:	00 02                	add    %al,(%edx)
     1f7:	23 48 08             	and    0x8(%eax),%ecx
     1fa:	36                   	ss
     1fb:	04 00                	add    $0x0,%al
     1fd:	00 07                	add    %al,(%edi)
     1ff:	41                   	inc    %ecx
     200:	01 8c 00 00 00 02 23 	add    %ecx,0x23020000(%eax,%eax,1)
     207:	4c                   	dec    %esp
     208:	08 08                	or     %cl,(%eax)
     20a:	03 00                	add    (%eax),%eax
     20c:	00 07                	add    %al,(%edi)
     20e:	4a                   	dec    %edx
     20f:	01 97 00 00 00 02    	add    %edx,0x2000000(%edi)
     215:	23 54 08 0f          	and    0xf(%eax,%ecx,1),%edx
     219:	03 00                	add    (%eax),%eax
     21b:	00 07                	add    %al,(%edi)
     21d:	4b                   	dec    %ebx
     21e:	01 97 00 00 00 02    	add    %edx,0x2000000(%edi)
     224:	23 58 08             	and    0x8(%eax),%ebx
     227:	16                   	push   %ss
     228:	03 00                	add    (%eax),%eax
     22a:	00 07                	add    %al,(%edi)
     22c:	4c                   	dec    %esp
     22d:	01 97 00 00 00 02    	add    %edx,0x2000000(%edi)
     233:	23 5c 08 1d          	and    0x1d(%eax,%ecx,1),%ebx
     237:	03 00                	add    (%eax),%eax
     239:	00 07                	add    %al,(%edi)
     23b:	4d                   	dec    %ebp
     23c:	01 97 00 00 00 02    	add    %edx,0x2000000(%edi)
     242:	23 60 08             	and    0x8(%eax),%esp
     245:	24 03                	and    $0x3,%al
     247:	00 00                	add    %al,(%eax)
     249:	07                   	pop    %es
     24a:	4e                   	dec    %esi
     24b:	01 25 00 00 00 02    	add    %esp,0x2000000
     251:	23 64 08 cc          	and    -0x34(%eax,%ecx,1),%esp
     255:	01 00                	add    %eax,(%eax)
     257:	00 07                	add    %al,(%edi)
     259:	50                   	push   %eax
     25a:	01 5a 00             	add    %ebx,0x0(%edx)
     25d:	00 00                	add    %al,(%eax)
     25f:	02 23                	add    (%ebx),%ah
     261:	68 08 7d 05 00       	push   $0x57d08
     266:	00 07                	add    %al,(%edi)
     268:	52                   	push   %edx
     269:	01 d2                	add    %edx,%edx
     26b:	02 00                	add    (%eax),%al
     26d:	00 02                	add    %al,(%edx)
     26f:	23 6c 00 09          	and    0x9(%eax,%eax,1),%ebp
     273:	0a 00                	or     (%eax),%al
     275:	00 00                	add    %al,(%eax)
     277:	07                   	pop    %es
     278:	b6 0a                	mov    $0xa,%dh
     27a:	d2 01                	rolb   %cl,(%ecx)
     27c:	00 00                	add    %al,(%eax)
     27e:	0c 07                	or     $0x7,%al
     280:	bc b0 02 00 00       	mov    $0x2b0,%esp
     285:	0b 98 01 00 00 07    	or     0x7000001(%eax),%ebx
     28b:	bd b0 02 00 00       	mov    $0x2b0,%ebp
     290:	02 23                	add    (%ebx),%ah
     292:	00 0b                	add    %cl,(%ebx)
     294:	a7                   	cmpsl  %es:(%edi),%ds:(%esi)
     295:	04 00                	add    $0x0,%al
     297:	00 07                	add    %al,(%edi)
     299:	be b6 02 00 00       	mov    $0x2b6,%esi
     29e:	02 23                	add    (%ebx),%ah
     2a0:	04 0b                	add    $0xb,%al
     2a2:	9e                   	sahf   
     2a3:	00 00                	add    %al,(%eax)
     2a5:	00 07                	add    %al,(%edi)
     2a7:	c2 5a 00             	ret    $0x5a
     2aa:	00 00                	add    %al,(%eax)
     2ac:	02 23                	add    (%ebx),%ah
     2ae:	08 00                	or     %al,(%eax)
     2b0:	06                   	push   %es
     2b1:	04 79                	add    $0x79,%al
     2b3:	02 00                	add    (%eax),%al
     2b5:	00 06                	add    %al,(%esi)
     2b7:	04 b1                	add    $0xb1,%al
     2b9:	00 00                	add    %al,(%eax)
     2bb:	00 0c 9f             	add    %cl,(%edi,%ebx,4)
     2be:	00 00                	add    %al,(%eax)
     2c0:	00 cc                	add    %cl,%ah
     2c2:	02 00                	add    (%eax),%al
     2c4:	00 0d 30 00 00 00    	add    %cl,0x30
     2ca:	00 00                	add    %al,(%eax)
     2cc:	06                   	push   %es
     2cd:	04 72                	add    $0x72,%al
     2cf:	02 00                	add    (%eax),%al
     2d1:	00 0c 9f             	add    %cl,(%edi,%ebx,4)
     2d4:	00 00                	add    %al,(%eax)
     2d6:	00 e2                	add    %ah,%dl
     2d8:	02 00                	add    (%eax),%al
     2da:	00 0d 30 00 00 00    	add    %cl,0x30
     2e0:	27                   	daa    
     2e1:	00 06                	add    %al,(%esi)
     2e3:	04 e8                	add    $0xe8,%al
     2e5:	02 00                	add    (%eax),%al
     2e7:	00 0e                	add    %cl,(%esi)
     2e9:	9f                   	lahf   
     2ea:	00 00                	add    %al,(%eax)
     2ec:	00 06                	add    %al,(%esi)
     2ee:	04 5a                	add    $0x5a,%al
     2f0:	00 00                	add    %al,(%eax)
     2f2:	00 03                	add    %al,(%ebx)
     2f4:	0c 04                	or     $0x4,%al
     2f6:	56                   	push   %esi
     2f7:	03 00                	add    (%eax),%eax
     2f9:	00 03                	add    %al,(%ebx)
     2fb:	08 04 5b             	or     %al,(%ebx,%ebx,2)
     2fe:	03 00                	add    (%eax),%eax
     300:	00 0f                	add    %cl,(%edi)
     302:	04 09                	add    $0x9,%al
     304:	31 5d 03             	xor    %ebx,0x3(%ebp)
     307:	00 00                	add    %al,(%eax)
     309:	10 3d 05 00 00 80    	adc    %bh,0x80000005
     30f:	02 10                	add    (%eax),%dl
     311:	39 01                	cmp    %eax,(%ecx)
     313:	00 00                	add    %al,(%eax)
     315:	80 04 10 4d          	addb   $0x4d,(%eax,%edx,1)
     319:	04 00                	add    $0x0,%al
     31b:	00 80 08 10 d0 02    	add    %al,0x2d01008(%eax)
     321:	00 00                	add    %al,(%eax)
     323:	80 10 10             	adcb   $0x10,(%eax)
     326:	70 01                	jo     329 <_init-0x804896b>
     328:	00 00                	add    %al,(%eax)
     32a:	80 20 10             	andb   $0x10,(%eax)
     32d:	ec                   	in     (%dx),%al
     32e:	02 00                	add    (%eax),%al
     330:	00 80 c0 00 10 ae    	add    %al,-0x51efff40(%eax)
     336:	03 00                	add    (%eax),%eax
     338:	00 80 80 01 10 ff    	add    %al,-0xeffe80(%eax)
     33e:	03 00                	add    (%eax),%eax
     340:	00 80 80 02 10 1a    	add    %al,0x1a100280(%eax)
     346:	05 00 00 01 10       	add    $0x10010000,%eax
     34b:	a8 02                	test   $0x2,%al
     34d:	00 00                	add    %al,(%eax)
     34f:	02 10                	add    (%eax),%dl
     351:	98                   	cwtl   
     352:	03 00                	add    (%eax),%eax
     354:	00 04 10             	add    %al,(%eax,%edx,1)
     357:	ef                   	out    %eax,(%dx)
     358:	04 00                	add    $0x0,%al
     35a:	00 08                	add    %cl,(%eax)
     35c:	00 0a                	add    %cl,(%edx)
     35e:	bb 01 00 00 10       	mov    $0x10000001,%ebx
     363:	08 20                	or     %ah,(%eax)
     365:	a0 03 00 00 0b       	mov    0xb000003,%al
     36a:	b4 04                	mov    $0x4,%ah
     36c:	00 00                	add    %al,(%eax)
     36e:	08 21                	or     %ah,(%ecx)
     370:	e2 02                	loop   374 <_init-0x8048920>
     372:	00 00                	add    %al,(%eax)
     374:	02 23                	add    (%ebx),%ah
     376:	00 0b                	add    %cl,(%ebx)
     378:	24 00                	and    $0x0,%al
     37a:	00 00                	add    %al,(%eax)
     37c:	08 22                	or     %ah,(%edx)
     37e:	e5 03                	in     $0x3,%eax
     380:	00 00                	add    %al,(%eax)
     382:	02 23                	add    (%ebx),%ah
     384:	04 11                	add    $0x11,%al
     386:	70 00                	jo     388 <_init-0x804890c>
     388:	08 23                	or     %ah,(%ebx)
     38a:	97                   	xchg   %eax,%edi
     38b:	00 00                	add    %al,(%eax)
     38d:	00 02                	add    %al,(%edx)
     38f:	23 08                	and    (%eax),%ecx
     391:	11 6c 65 6e          	adc    %ebp,0x6e(%ebp,%eiz,2)
     395:	00 08                	add    %cl,(%eax)
     397:	24 5a                	and    $0x5a,%al
     399:	00 00                	add    %al,(%eax)
     39b:	00 02                	add    %al,(%edx)
     39d:	23 0c 00             	and    (%eax,%eax,1),%ecx
     3a0:	0a 1f                	or     (%edi),%bl
     3a2:	00 00                	add    %al,(%eax)
     3a4:	00 10                	add    %dl,(%eax)
     3a6:	08 81 e5 03 00 00    	or     %al,0x3e5(%ecx)
     3ac:	0b 0f                	or     (%edi),%ecx
     3ae:	02 00                	add    (%eax),%al
     3b0:	00 08                	add    %cl,(%eax)
     3b2:	82                   	(bad)  
     3b3:	5a                   	pop    %edx
     3b4:	00 00                	add    %al,(%eax)
     3b6:	00 02                	add    %al,(%edx)
     3b8:	23 00                	and    (%eax),%eax
     3ba:	0b b2 04 00 00 08    	or     0x8000004(%edx),%esi
     3c0:	83 99 00 00 00 02 23 	sbbl   $0x23,0x2000000(%ecx)
     3c7:	04 0b                	add    $0xb,%al
     3c9:	02 01                	add    (%ecx),%al
     3cb:	00 00                	add    %al,(%eax)
     3cd:	08 84 06 04 00 00 02 	or     %al,0x2000004(%esi,%eax,1)
     3d4:	23 08                	and    (%eax),%ecx
     3d6:	0b a1 04 00 00 08    	or     0x8000004(%ecx),%esp
     3dc:	85 21                	test   %esp,(%ecx)
     3de:	04 00                	add    $0x0,%al
     3e0:	00 02                	add    %al,(%edx)
     3e2:	23 0c 00             	and    (%eax,%eax,1),%ecx
     3e5:	06                   	push   %es
     3e6:	04 a0                	add    $0xa0,%al
     3e8:	03 00                	add    (%eax),%eax
     3ea:	00 12                	add    %dl,(%edx)
     3ec:	01 5a 00             	add    %ebx,0x0(%edx)
     3ef:	00 00                	add    %al,(%eax)
     3f1:	00 04 00             	add    %al,(%eax,%eax,1)
     3f4:	00 13                	add    %dl,(%ebx)
     3f6:	00 04 00             	add    %al,(%eax,%eax,1)
     3f9:	00 13                	add    %dl,(%ebx)
     3fb:	99                   	cltd   
     3fc:	00 00                	add    %al,(%eax)
     3fe:	00 00                	add    %al,(%eax)
     400:	06                   	push   %es
     401:	04 5d                	add    $0x5d,%al
     403:	03 00                	add    (%eax),%eax
     405:	00 06                	add    %al,(%esi)
     407:	04 eb                	add    $0xeb,%al
     409:	03 00                	add    (%eax),%eax
     40b:	00 12                	add    %dl,(%edx)
     40d:	01 5a 00             	add    %ebx,0x0(%edx)
     410:	00 00                	add    %al,(%eax)
     412:	21 04 00             	and    %eax,(%eax,%eax,1)
     415:	00 13                	add    %dl,(%ebx)
     417:	00 04 00             	add    %al,(%eax,%eax,1)
     41a:	00 13                	add    %dl,(%ebx)
     41c:	e2 02                	loop   420 <_init-0x8048874>
     41e:	00 00                	add    %al,(%eax)
     420:	00 06                	add    %al,(%esi)
     422:	04 0c                	add    $0xc,%al
     424:	04 00                	add    $0x0,%al
     426:	00 14 01             	add    %dl,(%ecx,%eax,1)
     429:	e5 03                	in     $0x3,%eax
     42b:	00 00                	add    %al,(%eax)
     42d:	02 60 01             	add    0x1(%eax),%ah
     430:	5a                   	pop    %edx
     431:	00 00                	add    %al,(%eax)
     433:	00 03                	add    %al,(%ebx)
     435:	01 52 04             	add    %edx,0x4(%edx)
     438:	00 00                	add    %al,(%eax)
     43a:	15 a9 01 00 00       	adc    $0x1a9,%eax
     43f:	02 60 52             	add    0x52(%eax),%ah
     442:	04 00                	add    $0x0,%al
     444:	00 15 a3 01 00 00    	add    %dl,0x1a3
     44a:	02 60 e2             	add    -0x1e(%eax),%ah
     44d:	02 00                	add    (%eax),%al
     44f:	00 16                	add    %dl,(%esi)
     451:	00 06                	add    %al,(%esi)
     453:	04 a6                	add    $0xa6,%al
     455:	00 00                	add    %al,(%eax)
     457:	00 14 01             	add    %dl,(%ecx,%eax,1)
     45a:	62 03                	bound  %eax,(%ebx)
     45c:	00 00                	add    %al,(%eax)
     45e:	02 20                	add    (%eax),%ah
     460:	01 5a 00             	add    %ebx,0x0(%edx)
     463:	00 00                	add    %al,(%eax)
     465:	03 01                	add    (%ecx),%eax
     467:	83 04 00 00          	addl   $0x0,(%eax,%eax,1)
     46b:	17                   	pop    %ss
     46c:	5f                   	pop    %edi
     46d:	5f                   	pop    %edi
     46e:	73 00                	jae    470 <_init-0x8048824>
     470:	02 20                	add    (%eax),%ah
     472:	99                   	cltd   
     473:	00 00                	add    %al,(%eax)
     475:	00 15 a3 01 00 00    	add    %dl,0x1a3
     47b:	02 20                	add    (%eax),%ah
     47d:	e2 02                	loop   481 <_init-0x8048813>
     47f:	00 00                	add    %al,(%eax)
     481:	16                   	push   %ss
     482:	00 14 01             	add    %dl,(%ecx,%eax,1)
     485:	a3 00 00 00 03       	mov    %eax,0x3000000
     48a:	67 01 99 00 00       	add    %ebx,0x0(%bx,%di)
     48f:	00 03                	add    %al,(%ebx)
     491:	01 ad 04 00 00 15    	add    %ebp,0x15000004(%ebp)
     497:	32 01                	xor    (%ecx),%al
     499:	00 00                	add    %al,(%eax)
     49b:	03 67 99             	add    -0x67(%edi),%esp
     49e:	00 00                	add    %al,(%eax)
     4a0:	00 15 b9 04 00 00    	add    %dl,0x4b9
     4a6:	03 67 e2             	add    -0x1e(%edi),%esp
     4a9:	02 00                	add    (%eax),%al
     4ab:	00 00                	add    %al,(%eax)
     4ad:	14 01                	adc    $0x1,%al
     4af:	08 01                	or     %al,(%ecx)
     4b1:	00 00                	add    %al,(%eax)
     4b3:	03 76 01             	add    0x1(%esi),%esi
     4b6:	99                   	cltd   
     4b7:	00 00                	add    %al,(%eax)
     4b9:	00 03                	add    %al,(%ebx)
     4bb:	01 e2                	add    %esp,%edx
     4bd:	04 00                	add    $0x0,%al
     4bf:	00 15 32 01 00 00    	add    %dl,0x132
     4c5:	03 76 99             	add    -0x67(%esi),%esi
     4c8:	00 00                	add    %al,(%eax)
     4ca:	00 15 b9 04 00 00    	add    %dl,0x4b9
     4d0:	03 76 e2             	add    -0x1e(%esi),%esi
     4d3:	02 00                	add    (%eax),%al
     4d5:	00 15 d4 00 00 00    	add    %dl,0xd4
     4db:	03 76 25             	add    0x25(%esi),%esi
     4de:	00 00                	add    %al,(%eax)
     4e0:	00 00                	add    %al,(%eax)
     4e2:	14 01                	adc    $0x1,%al
     4e4:	50                   	push   %eax
     4e5:	03 00                	add    (%eax),%eax
     4e7:	00 02                	add    %al,(%edx)
     4e9:	f5                   	cmc    
     4ea:	01 99 00 00 00 03    	add    %ebx,0x3000000(%ecx)
     4f0:	01 17                	add    %edx,(%edi)
     4f2:	05 00 00 17 5f       	add    $0x5f170000,%eax
     4f7:	5f                   	pop    %edi
     4f8:	73 00                	jae    4fa <_init-0x804879a>
     4fa:	02 f5                	add    %ch,%dh
     4fc:	99                   	cltd   
     4fd:	00 00                	add    %al,(%eax)
     4ff:	00 17                	add    %dl,(%edi)
     501:	5f                   	pop    %edi
     502:	5f                   	pop    %edi
     503:	6e                   	outsb  %ds:(%esi),(%dx)
     504:	00 02                	add    %al,(%edx)
     506:	f5                   	cmc    
     507:	5a                   	pop    %edx
     508:	00 00                	add    %al,(%eax)
     50a:	00 15 a9 01 00 00    	add    %dl,0x1a9
     510:	02 f5                	add    %ch,%dh
     512:	52                   	push   %edx
     513:	04 00                	add    $0x0,%al
     515:	00 00                	add    %al,(%eax)
     517:	18 01                	sbb    %al,(%ecx)
     519:	f5                   	cmc    
     51a:	02 00                	add    (%eax),%al
     51c:	00 01                	add    %al,(%ecx)
     51e:	ee                   	out    %al,(%dx)
     51f:	02 01                	add    (%ecx),%al
     521:	5a                   	pop    %edx
     522:	00 00                	add    %al,(%eax)
     524:	00 d0                	add    %dl,%al
     526:	c5 04 08             	lds    (%eax,%ecx,1),%eax
     529:	d6                   	(bad)  
     52a:	c5 04 08             	lds    (%eax,%ecx,1),%eax
     52d:	02 74 04 4e          	add    0x4e(%esp,%eax,1),%dh
     531:	05 00 00 19 76       	add    $0x76190000,%eax
     536:	61                   	popa   
     537:	72 00                	jb     539 <_init-0x804875b>
     539:	01 ee                	add    %ebp,%esi
     53b:	02 00                	add    (%eax),%al
     53d:	04 00                	add    $0x0,%al
     53f:	00 02                	add    %al,(%edx)
     541:	91                   	xchg   %eax,%ecx
     542:	00 1a                	add    %bl,(%edx)
     544:	73 00                	jae    546 <_init-0x804874e>
     546:	01 ee                	add    %ebp,%esi
     548:	02 99 00 00 00 00    	add    0x0(%ecx),%bl
     54e:	18 01                	sbb    %al,(%ecx)
     550:	dd 01                	fldl   (%ecx)
     552:	00 00                	add    %al,(%eax)
     554:	01 26                	add    %esp,(%esi)
     556:	03 01                	add    (%ecx),%eax
     558:	5a                   	pop    %edx
     559:	00 00                	add    %al,(%eax)
     55b:	00 d6                	add    %dl,%dh
     55d:	c5 04 08             	lds    (%eax,%ecx,1),%eax
     560:	dc c5                	fadd   %st,%st(5)
     562:	04 08                	add    $0x8,%al
     564:	02 74 04 85          	add    -0x7b(%esp,%eax,1),%dh
     568:	05 00 00 19 76       	add    $0x76190000,%eax
     56d:	61                   	popa   
     56e:	72 00                	jb     570 <_init-0x8048724>
     570:	01 26                	add    %esp,(%esi)
     572:	03 00                	add    (%eax),%eax
     574:	04 00                	add    $0x0,%al
     576:	00 02                	add    %al,(%edx)
     578:	91                   	xchg   %eax,%ecx
     579:	00 1a                	add    %bl,(%edx)
     57b:	73 00                	jae    57d <_init-0x8048717>
     57d:	01 26                	add    %esp,(%esi)
     57f:	03 99 00 00 00 00    	add    0x0(%ecx),%ebx
     585:	1b 01                	sbb    (%ecx),%eax
     587:	db 03                	fildl  (%ebx)
     589:	00 00                	add    %al,(%eax)
     58b:	01 b1 03 01 5a 00    	add    %esi,0x5a0103(%ecx)
     591:	00 00                	add    %al,(%eax)
     593:	dc c5                	fadd   %st,%st(5)
     595:	04 08                	add    $0x8,%al
     597:	03 c6                	add    %esi,%eax
     599:	04 08                	add    $0x8,%al
     59b:	00 00                	add    %al,(%eax)
     59d:	00 00                	add    %al,(%eax)
     59f:	c0 05 00 00 19 76 61 	rolb   $0x61,0x76190000
     5a6:	72 00                	jb     5a8 <_init-0x80486ec>
     5a8:	01 b1 03 00 04 00    	add    %esi,0x40003(%ecx)
     5ae:	00 02                	add    %al,(%edx)
     5b0:	91                   	xchg   %eax,%ecx
     5b1:	00 19                	add    %bl,(%ecx)
     5b3:	73 00                	jae    5b5 <_init-0x80486df>
     5b5:	01 b1 03 e2 02 00    	add    %esi,0x2e203(%ecx)
     5bb:	00 02                	add    %al,(%edx)
     5bd:	91                   	xchg   %eax,%ecx
     5be:	04 00                	add    $0x0,%al
     5c0:	1b 01                	sbb    (%ecx),%eax
     5c2:	f6 03 00             	testb  $0x0,(%ebx)
     5c5:	00 01                	add    %al,(%ecx)
     5c7:	9d                   	popf   
     5c8:	03 01                	add    (%ecx),%eax
     5ca:	5a                   	pop    %edx
     5cb:	00 00                	add    %al,(%eax)
     5cd:	00 03                	add    %al,(%ebx)
     5cf:	c6 04 08 2a          	movb   $0x2a,(%eax,%ecx,1)
     5d3:	c6 04 08 44          	movb   $0x44,(%eax,%ecx,1)
     5d7:	00 00                	add    %al,(%eax)
     5d9:	00 fb                	add    %bh,%bl
     5db:	05 00 00 19 76       	add    $0x76190000,%eax
     5e0:	61                   	popa   
     5e1:	72 00                	jb     5e3 <_init-0x80486b1>
     5e3:	01 9d 03 00 04 00    	add    %ebx,0x40003(%ebp)
     5e9:	00 02                	add    %al,(%edx)
     5eb:	91                   	xchg   %eax,%ecx
     5ec:	00 19                	add    %bl,(%ecx)
     5ee:	73 00                	jae    5f0 <_init-0x80486a4>
     5f0:	01 9d 03 e2 02 00    	add    %ebx,0x2e203(%ebp)
     5f6:	00 02                	add    %al,(%edx)
     5f8:	91                   	xchg   %eax,%ecx
     5f9:	04 00                	add    $0x0,%al
     5fb:	1b 01                	sbb    (%ecx),%eax
     5fd:	b4 00                	mov    $0x0,%ah
     5ff:	00 00                	add    %al,(%eax)
     601:	01 89 03 01 5a 00    	add    %ecx,0x5a0103(%ecx)
     607:	00 00                	add    %al,(%eax)
     609:	2a c6                	sub    %dh,%al
     60b:	04 08                	add    $0x8,%al
     60d:	51                   	push   %ecx
     60e:	c6 04 08 88          	movb   $0x88,(%eax,%ecx,1)
     612:	00 00                	add    %al,(%eax)
     614:	00 36                	add    %dh,(%esi)
     616:	06                   	push   %es
     617:	00 00                	add    %al,(%eax)
     619:	19 76 61             	sbb    %esi,0x61(%esi)
     61c:	72 00                	jb     61e <_init-0x8048676>
     61e:	01 89 03 00 04 00    	add    %ecx,0x40003(%ecx)
     624:	00 02                	add    %al,(%edx)
     626:	91                   	xchg   %eax,%ecx
     627:	00 19                	add    %bl,(%ecx)
     629:	73 00                	jae    62b <_init-0x8048669>
     62b:	01 89 03 e2 02 00    	add    %ecx,0x2e203(%ecx)
     631:	00 02                	add    %al,(%edx)
     633:	91                   	xchg   %eax,%ecx
     634:	04 00                	add    $0x0,%al
     636:	1b 01                	sbb    (%ecx),%eax
     638:	07                   	pop    %es
     639:	02 00                	add    (%eax),%al
     63b:	00 01                	add    %al,(%ecx)
     63d:	75 03                	jne    642 <_init-0x8048652>
     63f:	01 5a 00             	add    %ebx,0x0(%edx)
     642:	00 00                	add    %al,(%eax)
     644:	51                   	push   %ecx
     645:	c6 04 08 78          	movb   $0x78,(%eax,%ecx,1)
     649:	c6 04 08 cc          	movb   $0xcc,(%eax,%ecx,1)
     64d:	00 00                	add    %al,(%eax)
     64f:	00 71 06             	add    %dh,0x6(%ecx)
     652:	00 00                	add    %al,(%eax)
     654:	19 76 61             	sbb    %esi,0x61(%esi)
     657:	72 00                	jb     659 <_init-0x804863b>
     659:	01 75 03             	add    %esi,0x3(%ebp)
     65c:	00 04 00             	add    %al,(%eax,%eax,1)
     65f:	00 02                	add    %al,(%edx)
     661:	91                   	xchg   %eax,%ecx
     662:	00 19                	add    %bl,(%ecx)
     664:	73 00                	jae    666 <_init-0x804862e>
     666:	01 75 03             	add    %esi,0x3(%ebp)
     669:	e2 02                	loop   66d <_init-0x8048627>
     66b:	00 00                	add    %al,(%eax)
     66d:	02 91 04 00 1b 01    	add    0x11b0004(%ecx),%dl
     673:	4a                   	dec    %edx
     674:	01 00                	add    %eax,(%eax)
     676:	00 01                	add    %al,(%ecx)
     678:	41                   	inc    %ecx
     679:	03 01                	add    (%ecx),%eax
     67b:	5a                   	pop    %edx
     67c:	00 00                	add    %al,(%eax)
     67e:	00 78 c6             	add    %bh,-0x3a(%eax)
     681:	04 08                	add    $0x8,%al
     683:	9f                   	lahf   
     684:	c6 04 08 10          	movb   $0x10,(%eax,%ecx,1)
     688:	01 00                	add    %eax,(%eax)
     68a:	00 ac 06 00 00 19 76 	add    %ch,0x76190000(%esi,%eax,1)
     691:	61                   	popa   
     692:	72 00                	jb     694 <_init-0x8048600>
     694:	01 41 03             	add    %eax,0x3(%ecx)
     697:	00 04 00             	add    %al,(%eax,%eax,1)
     69a:	00 02                	add    %al,(%edx)
     69c:	91                   	xchg   %eax,%ecx
     69d:	00 19                	add    %bl,(%ecx)
     69f:	73 00                	jae    6a1 <_init-0x80485f3>
     6a1:	01 41 03             	add    %eax,0x3(%ecx)
     6a4:	e2 02                	loop   6a8 <_init-0x80485ec>
     6a6:	00 00                	add    %al,(%eax)
     6a8:	02 91 04 00 1b 01    	add    0x11b0004(%ecx),%dl
     6ae:	94                   	xchg   %eax,%esp
     6af:	00 00                	add    %al,(%eax)
     6b1:	00 01                	add    %al,(%ecx)
     6b3:	2d 03 01 5a 00       	sub    $0x5a0103,%eax
     6b8:	00 00                	add    %al,(%eax)
     6ba:	9f                   	lahf   
     6bb:	c6 04 08 c6          	movb   $0xc6,(%eax,%ecx,1)
     6bf:	c6 04 08 54          	movb   $0x54,(%eax,%ecx,1)
     6c3:	01 00                	add    %eax,(%eax)
     6c5:	00 e7                	add    %ah,%bh
     6c7:	06                   	push   %es
     6c8:	00 00                	add    %al,(%eax)
     6ca:	19 76 61             	sbb    %esi,0x61(%esi)
     6cd:	72 00                	jb     6cf <_init-0x80485c5>
     6cf:	01 2d 03 00 04 00    	add    %ebp,0x40003
     6d5:	00 02                	add    %al,(%edx)
     6d7:	91                   	xchg   %eax,%ecx
     6d8:	00 19                	add    %bl,(%ecx)
     6da:	73 00                	jae    6dc <_init-0x80485b8>
     6dc:	01 2d 03 e2 02 00    	add    %ebp,0x2e203
     6e2:	00 02                	add    %al,(%edx)
     6e4:	91                   	xchg   %eax,%ecx
     6e5:	04 00                	add    $0x0,%al
     6e7:	1b 01                	sbb    (%ecx),%eax
     6e9:	c6 02 00             	movb   $0x0,(%edx)
     6ec:	00 01                	add    %al,(%ecx)
     6ee:	1d 03 01 5a 00       	sbb    $0x5a0103,%eax
     6f3:	00 00                	add    %al,(%eax)
     6f5:	c6 c6 04             	mov    $0x4,%dh
     6f8:	08 ed                	or     %ch,%ch
     6fa:	c6 04 08 98          	movb   $0x98,(%eax,%ecx,1)
     6fe:	01 00                	add    %eax,(%eax)
     700:	00 22                	add    %ah,(%edx)
     702:	07                   	pop    %es
     703:	00 00                	add    %al,(%eax)
     705:	19 76 61             	sbb    %esi,0x61(%esi)
     708:	72 00                	jb     70a <_init-0x804858a>
     70a:	01 1d 03 00 04 00    	add    %ebx,0x40003
     710:	00 02                	add    %al,(%edx)
     712:	91                   	xchg   %eax,%ecx
     713:	00 19                	add    %bl,(%ecx)
     715:	73 00                	jae    717 <_init-0x804857d>
     717:	01 1d 03 e2 02 00    	add    %ebx,0x2e203
     71d:	00 02                	add    %al,(%edx)
     71f:	91                   	xchg   %eax,%ecx
     720:	04 00                	add    $0x0,%al
     722:	1b 01                	sbb    (%ecx),%eax
     724:	e6 04                	out    %al,$0x4
     726:	00 00                	add    %al,(%eax)
     728:	01 09                	add    %ecx,(%ecx)
     72a:	03 01                	add    (%ecx),%eax
     72c:	5a                   	pop    %edx
     72d:	00 00                	add    %al,(%eax)
     72f:	00 ed                	add    %ch,%ch
     731:	c6 04 08 14          	movb   $0x14,(%eax,%ecx,1)
     735:	c7 04 08 dc 01 00 00 	movl   $0x1dc,(%eax,%ecx,1)
     73c:	5d                   	pop    %ebp
     73d:	07                   	pop    %es
     73e:	00 00                	add    %al,(%eax)
     740:	19 76 61             	sbb    %esi,0x61(%esi)
     743:	72 00                	jb     745 <_init-0x804854f>
     745:	01 09                	add    %ecx,(%ecx)
     747:	03 00                	add    (%eax),%eax
     749:	04 00                	add    $0x0,%al
     74b:	00 02                	add    %al,(%edx)
     74d:	91                   	xchg   %eax,%ecx
     74e:	00 19                	add    %bl,(%ecx)
     750:	73 00                	jae    752 <_init-0x8048542>
     752:	01 09                	add    %ecx,(%ecx)
     754:	03 e2                	add    %edx,%esp
     756:	02 00                	add    (%eax),%al
     758:	00 02                	add    %al,(%edx)
     75a:	91                   	xchg   %eax,%ecx
     75b:	04 00                	add    $0x0,%al
     75d:	1b 01                	sbb    (%ecx),%eax
     75f:	7a 01                	jp     762 <_init-0x8048532>
     761:	00 00                	add    %al,(%eax)
     763:	01 f5                	add    %esi,%ebp
     765:	02 01                	add    (%ecx),%al
     767:	5a                   	pop    %edx
     768:	00 00                	add    %al,(%eax)
     76a:	00 14 c7             	add    %dl,(%edi,%eax,8)
     76d:	04 08                	add    $0x8,%al
     76f:	3b c7                	cmp    %edi,%eax
     771:	04 08                	add    $0x8,%al
     773:	20 02                	and    %al,(%edx)
     775:	00 00                	add    %al,(%eax)
     777:	98                   	cwtl   
     778:	07                   	pop    %es
     779:	00 00                	add    %al,(%eax)
     77b:	19 76 61             	sbb    %esi,0x61(%esi)
     77e:	72 00                	jb     780 <_init-0x8048514>
     780:	01 f5                	add    %esi,%ebp
     782:	02 00                	add    (%eax),%al
     784:	04 00                	add    $0x0,%al
     786:	00 02                	add    %al,(%edx)
     788:	91                   	xchg   %eax,%ecx
     789:	00 19                	add    %bl,(%ecx)
     78b:	73 00                	jae    78d <_init-0x8048507>
     78d:	01 f5                	add    %esi,%ebp
     78f:	02 e2                	add    %dl,%ah
     791:	02 00                	add    (%eax),%al
     793:	00 02                	add    %al,(%edx)
     795:	91                   	xchg   %eax,%ecx
     796:	04 00                	add    $0x0,%al
     798:	1b 01                	sbb    (%ecx),%eax
     79a:	ca 00 00             	lret   $0x0
     79d:	00 01                	add    %al,(%ecx)
     79f:	e6 02                	out    %al,$0x2
     7a1:	01 5a 00             	add    %ebx,0x0(%edx)
     7a4:	00 00                	add    %al,(%eax)
     7a6:	3b c7                	cmp    %edi,%eax
     7a8:	04 08                	add    $0x8,%al
     7aa:	62                   	(bad)  
     7ab:	c7 04 08 64 02 00 00 	movl   $0x264,(%eax,%ecx,1)
     7b2:	d3 07                	roll   %cl,(%edi)
     7b4:	00 00                	add    %al,(%eax)
     7b6:	19 76 61             	sbb    %esi,0x61(%esi)
     7b9:	72 00                	jb     7bb <_init-0x80484d9>
     7bb:	01 e6                	add    %esp,%esi
     7bd:	02 00                	add    (%eax),%al
     7bf:	04 00                	add    $0x0,%al
     7c1:	00 02                	add    %al,(%edx)
     7c3:	91                   	xchg   %eax,%ecx
     7c4:	00 19                	add    %bl,(%ecx)
     7c6:	73 00                	jae    7c8 <_init-0x80484cc>
     7c8:	01 e6                	add    %esp,%esi
     7ca:	02 e2                	add    %dl,%ah
     7cc:	02 00                	add    (%eax),%al
     7ce:	00 02                	add    %al,(%edx)
     7d0:	91                   	xchg   %eax,%ecx
     7d1:	04 00                	add    $0x0,%al
     7d3:	1b 01                	sbb    (%ecx),%eax
     7d5:	8e 03                	mov    (%ebx),%es
     7d7:	00 00                	add    %al,(%eax)
     7d9:	01 d2                	add    %edx,%edx
     7db:	02 01                	add    (%ecx),%al
     7dd:	5a                   	pop    %edx
     7de:	00 00                	add    %al,(%eax)
     7e0:	00 62 c7             	add    %ah,-0x39(%edx)
     7e3:	04 08                	add    $0x8,%al
     7e5:	89 c7                	mov    %eax,%edi
     7e7:	04 08                	add    $0x8,%al
     7e9:	a8 02                	test   $0x2,%al
     7eb:	00 00                	add    %al,(%eax)
     7ed:	0e                   	push   %cs
     7ee:	08 00                	or     %al,(%eax)
     7f0:	00 19                	add    %bl,(%ecx)
     7f2:	76 61                	jbe    855 <_init-0x804843f>
     7f4:	72 00                	jb     7f6 <_init-0x804849e>
     7f6:	01 d2                	add    %edx,%edx
     7f8:	02 00                	add    (%eax),%al
     7fa:	04 00                	add    $0x0,%al
     7fc:	00 02                	add    %al,(%edx)
     7fe:	91                   	xchg   %eax,%ecx
     7ff:	00 19                	add    %bl,(%ecx)
     801:	73 00                	jae    803 <_init-0x8048491>
     803:	01 d2                	add    %edx,%edx
     805:	02 e2                	add    %dl,%ah
     807:	02 00                	add    (%eax),%al
     809:	00 02                	add    %al,(%edx)
     80b:	91                   	xchg   %eax,%ecx
     80c:	04 00                	add    $0x0,%al
     80e:	1b 01                	sbb    (%ecx),%eax
     810:	dd 04 00             	fldl   (%eax,%eax,1)
     813:	00 01                	add    %al,(%ecx)
     815:	be 02 01 5a 00       	mov    $0x5a0102,%esi
     81a:	00 00                	add    %al,(%eax)
     81c:	89 c7                	mov    %eax,%edi
     81e:	04 08                	add    $0x8,%al
     820:	b0 c7                	mov    $0xc7,%al
     822:	04 08                	add    $0x8,%al
     824:	ec                   	in     (%dx),%al
     825:	02 00                	add    (%eax),%al
     827:	00 49 08             	add    %cl,0x8(%ecx)
     82a:	00 00                	add    %al,(%eax)
     82c:	19 76 61             	sbb    %esi,0x61(%esi)
     82f:	72 00                	jb     831 <_init-0x8048463>
     831:	01 be 02 00 04 00    	add    %edi,0x40002(%esi)
     837:	00 02                	add    %al,(%edx)
     839:	91                   	xchg   %eax,%ecx
     83a:	00 19                	add    %bl,(%ecx)
     83c:	73 00                	jae    83e <_init-0x8048456>
     83e:	01 be 02 e2 02 00    	add    %edi,0x2e202(%esi)
     844:	00 02                	add    %al,(%edx)
     846:	91                   	xchg   %eax,%ecx
     847:	04 00                	add    $0x0,%al
     849:	1b 01                	sbb    (%ecx),%eax
     84b:	ed                   	in     (%dx),%eax
     84c:	03 00                	add    (%eax),%eax
     84e:	00 01                	add    %al,(%ecx)
     850:	88 01                	mov    %al,(%ecx)
     852:	01 5a 00             	add    %ebx,0x0(%edx)
     855:	00 00                	add    %al,(%eax)
     857:	b0 c7                	mov    $0xc7,%al
     859:	04 08                	add    $0x8,%al
     85b:	fb                   	sti    
     85c:	c7 04 08 30 03 00 00 	movl   $0x330,(%eax,%ecx,1)
     863:	a7                   	cmpsl  %es:(%edi),%ds:(%esi)
     864:	08 00                	or     %al,(%eax)
     866:	00 19                	add    %bl,(%ecx)
     868:	76 61                	jbe    8cb <_init-0x80483c9>
     86a:	72 00                	jb     86c <_init-0x8048428>
     86c:	01 88 01 00 04 00    	add    %ecx,0x40001(%eax)
     872:	00 02                	add    %al,(%edx)
     874:	91                   	xchg   %eax,%ecx
     875:	00 19                	add    %bl,(%ecx)
     877:	73 00                	jae    879 <_init-0x804841b>
     879:	01 88 01 99 00 00    	add    %ecx,0x9901(%eax)
     87f:	00 02                	add    %al,(%edx)
     881:	91                   	xchg   %eax,%ecx
     882:	04 1c                	add    $0x1c,%al
     884:	58                   	pop    %eax
     885:	04 00                	add    $0x0,%al
     887:	00 ce                	add    %cl,%dh
     889:	c7 04 08 f2 c7 04 08 	movl   $0x804c7f2,(%eax,%ecx,1)
     890:	01 8f 01 1d 76 04    	add    %ecx,0x4761d01(%edi)
     896:	00 00                	add    %al,(%eax)
     898:	5c                   	pop    %esp
     899:	03 00                	add    (%eax),%eax
     89b:	00 1d 6b 04 00 00    	add    %bl,0x46b
     8a1:	74 03                	je     8a6 <_init-0x80483ee>
     8a3:	00 00                	add    %al,(%eax)
     8a5:	00 00                	add    %al,(%eax)
     8a7:	1b 01                	sbb    (%ecx),%eax
     8a9:	94                   	xchg   %eax,%esp
     8aa:	05 00 00 01 99       	add    $0x99010000,%eax
     8af:	01 01                	add    %eax,(%ecx)
     8b1:	5a                   	pop    %edx
     8b2:	00 00                	add    %al,(%eax)
     8b4:	00 fb                	add    %bh,%bl
     8b6:	c7 04 08 48 c8 04 08 	movl   $0x804c848,(%eax,%ecx,1)
     8bd:	88 03                	mov    %al,(%ebx)
     8bf:	00 00                	add    %al,(%eax)
     8c1:	05 09 00 00 19       	add    $0x19000009,%eax
     8c6:	76 61                	jbe    929 <_init-0x804836b>
     8c8:	72 00                	jb     8ca <_init-0x80483ca>
     8ca:	01 99 01 00 04 00    	add    %ebx,0x40001(%ecx)
     8d0:	00 02                	add    %al,(%edx)
     8d2:	91                   	xchg   %eax,%ecx
     8d3:	00 19                	add    %bl,(%ecx)
     8d5:	73 00                	jae    8d7 <_init-0x80483bd>
     8d7:	01 99 01 99 00 00    	add    %ebx,0x9901(%ecx)
     8dd:	00 02                	add    %al,(%edx)
     8df:	91                   	xchg   %eax,%ecx
     8e0:	04 1c                	add    $0x1c,%al
     8e2:	58                   	pop    %eax
     8e3:	04 00                	add    $0x0,%al
     8e5:	00 19                	add    %bl,(%ecx)
     8e7:	c8 04 08 3f          	enter  $0x804,$0x3f
     8eb:	c8 04 08 01          	enter  $0x804,$0x1
     8ef:	a0 01 1d 76 04       	mov    0x4761d01,%al
     8f4:	00 00                	add    %al,(%eax)
     8f6:	b4 03                	mov    $0x3,%ah
     8f8:	00 00                	add    %al,(%eax)
     8fa:	1d 6b 04 00 00       	sbb    $0x46b,%eax
     8ff:	cc                   	int3   
     900:	03 00                	add    (%eax),%eax
     902:	00 00                	add    %al,(%eax)
     904:	00 1b                	add    %bl,(%ebx)
     906:	01 93 05 00 00 01    	add    %edx,0x1000005(%ebx)
     90c:	b3 01                	mov    $0x1,%bl
     90e:	01 5a 00             	add    %ebx,0x0(%edx)
     911:	00 00                	add    %al,(%eax)
     913:	48                   	dec    %eax
     914:	c8 04 08 95          	enter  $0x804,$0x95
     918:	c8 04 08 e0          	enter  $0x804,$0xe0
     91c:	03 00                	add    (%eax),%eax
     91e:	00 63 09             	add    %ah,0x9(%ebx)
     921:	00 00                	add    %al,(%eax)
     923:	19 76 61             	sbb    %esi,0x61(%esi)
     926:	72 00                	jb     928 <_init-0x804836c>
     928:	01 b3 01 00 04 00    	add    %esi,0x40001(%ebx)
     92e:	00 02                	add    %al,(%edx)
     930:	91                   	xchg   %eax,%ecx
     931:	00 19                	add    %bl,(%ecx)
     933:	73 00                	jae    935 <_init-0x804835f>
     935:	01 b3 01 99 00 00    	add    %esi,0x9901(%ebx)
     93b:	00 02                	add    %al,(%edx)
     93d:	91                   	xchg   %eax,%ecx
     93e:	04 1c                	add    $0x1c,%al
     940:	58                   	pop    %eax
     941:	04 00                	add    $0x0,%al
     943:	00 66 c8             	add    %ah,-0x38(%esi)
     946:	04 08                	add    $0x8,%al
     948:	8c c8                	mov    %cs,%eax
     94a:	04 08                	add    $0x8,%al
     94c:	01 ba 01 1d 76 04    	add    %edi,0x4761d01(%edx)
     952:	00 00                	add    %al,(%eax)
     954:	0c 04                	or     $0x4,%al
     956:	00 00                	add    %al,(%eax)
     958:	1d 6b 04 00 00       	sbb    $0x46b,%eax
     95d:	24 04                	and    $0x4,%al
     95f:	00 00                	add    %al,(%eax)
     961:	00 00                	add    %al,(%eax)
     963:	1b 01                	sbb    (%ecx),%eax
     965:	fe 00                	incb   (%eax)
     967:	00 00                	add    %al,(%eax)
     969:	01 cd                	add    %ecx,%ebp
     96b:	01 01                	add    %eax,(%ecx)
     96d:	5a                   	pop    %edx
     96e:	00 00                	add    %al,(%eax)
     970:	00 95 c8 04 08 e2    	add    %dl,-0x1df7fb38(%ebp)
     976:	c8 04 08 38          	enter  $0x804,$0x38
     97a:	04 00                	add    $0x0,%al
     97c:	00 c1                	add    %al,%cl
     97e:	09 00                	or     %eax,(%eax)
     980:	00 19                	add    %bl,(%ecx)
     982:	76 61                	jbe    9e5 <_init-0x80482af>
     984:	72 00                	jb     986 <_init-0x804830e>
     986:	01 cd                	add    %ecx,%ebp
     988:	01 00                	add    %eax,(%eax)
     98a:	04 00                	add    $0x0,%al
     98c:	00 02                	add    %al,(%edx)
     98e:	91                   	xchg   %eax,%ecx
     98f:	00 19                	add    %bl,(%ecx)
     991:	73 00                	jae    993 <_init-0x8048301>
     993:	01 cd                	add    %ecx,%ebp
     995:	01 99 00 00 00 02    	add    %ebx,0x2000000(%ecx)
     99b:	91                   	xchg   %eax,%ecx
     99c:	04 1c                	add    $0x1c,%al
     99e:	58                   	pop    %eax
     99f:	04 00                	add    $0x0,%al
     9a1:	00 b3 c8 04 08 d9    	add    %dh,-0x26f7fb38(%ebx)
     9a7:	c8 04 08 01          	enter  $0x804,$0x1
     9ab:	d4 01                	aam    $0x1
     9ad:	1d 76 04 00 00       	sbb    $0x476,%eax
     9b2:	64                   	fs
     9b3:	04 00                	add    $0x0,%al
     9b5:	00 1d 6b 04 00 00    	add    %bl,0x46b
     9bb:	7c 04                	jl     9c1 <_init-0x80482d3>
     9bd:	00 00                	add    %al,(%eax)
     9bf:	00 00                	add    %al,(%eax)
     9c1:	1b 01                	sbb    (%ecx),%eax
     9c3:	7a 04                	jp     9c9 <_init-0x80482cb>
     9c5:	00 00                	add    %al,(%eax)
     9c7:	01 e1                	add    %esp,%ecx
     9c9:	01 01                	add    %eax,(%ecx)
     9cb:	5a                   	pop    %edx
     9cc:	00 00                	add    %al,(%eax)
     9ce:	00 e2                	add    %ah,%dl
     9d0:	c8 04 08 2d          	enter  $0x804,$0x2d
     9d4:	c9                   	leave  
     9d5:	04 08                	add    $0x8,%al
     9d7:	90                   	nop
     9d8:	04 00                	add    $0x0,%al
     9da:	00 2e                	add    %ch,(%esi)
     9dc:	0a 00                	or     (%eax),%al
     9de:	00 19                	add    %bl,(%ecx)
     9e0:	76 61                	jbe    a43 <_init-0x8048251>
     9e2:	72 00                	jb     9e4 <_init-0x80482b0>
     9e4:	01 e1                	add    %esp,%ecx
     9e6:	01 00                	add    %eax,(%eax)
     9e8:	04 00                	add    $0x0,%al
     9ea:	00 02                	add    %al,(%edx)
     9ec:	91                   	xchg   %eax,%ecx
     9ed:	00 19                	add    %bl,(%ecx)
     9ef:	73 00                	jae    9f1 <_init-0x80482a3>
     9f1:	01 e1                	add    %esp,%ecx
     9f3:	01 99 00 00 00 02    	add    %ebx,0x2000000(%ecx)
     9f9:	91                   	xchg   %eax,%ecx
     9fa:	04 1e                	add    $0x1e,%al
     9fc:	63 70 00             	arpl   %si,0x0(%eax)
     9ff:	01 e3                	add    %esp,%ebx
     a01:	01 99 00 00 00 bc    	add    %ebx,-0x44000000(%ecx)
     a07:	04 00                	add    $0x0,%al
     a09:	00 1c 58             	add    %bl,(%eax,%ebx,2)
     a0c:	04 00                	add    $0x0,%al
     a0e:	00 00                	add    %al,(%eax)
     a10:	c9                   	leave  
     a11:	04 08                	add    $0x8,%al
     a13:	24 c9                	and    $0xc9,%al
     a15:	04 08                	add    $0x8,%al
     a17:	01 eb                	add    %ebp,%ebx
     a19:	01 1d 76 04 00 00    	add    %ebx,0x476
     a1f:	d3 04 00             	roll   %cl,(%eax,%eax,1)
     a22:	00 1d 6b 04 00 00    	add    %bl,0x46b
     a28:	eb 04                	jmp    a2e <_init-0x8048266>
     a2a:	00 00                	add    %al,(%eax)
     a2c:	00 00                	add    %al,(%eax)
     a2e:	18 01                	sbb    %al,(%ecx)
     a30:	ff 04 00             	incl   (%eax,%eax,1)
     a33:	00 01                	add    %al,(%ecx)
     a35:	1a 02                	sbb    (%edx),%al
     a37:	01 5a 00             	add    %ebx,0x0(%edx)
     a3a:	00 00                	add    %al,(%eax)
     a3c:	2d c9 04 08 5b       	sub    $0x5b0804c9,%eax
     a41:	c9                   	leave  
     a42:	04 08                	add    $0x8,%al
     a44:	02 74 04 68          	add    0x68(%esp,%eax,1),%dh
     a48:	0a 00                	or     (%eax),%al
     a4a:	00 19                	add    %bl,(%ecx)
     a4c:	76 61                	jbe    aaf <_init-0x80481e5>
     a4e:	72 00                	jb     a50 <_init-0x8048244>
     a50:	01 1a                	add    %ebx,(%edx)
     a52:	02 00                	add    (%eax),%al
     a54:	04 00                	add    $0x0,%al
     a56:	00 02                	add    %al,(%edx)
     a58:	91                   	xchg   %eax,%ecx
     a59:	00 19                	add    %bl,(%ecx)
     a5b:	73 00                	jae    a5d <_init-0x8048237>
     a5d:	01 1a                	add    %ebx,(%edx)
     a5f:	02 99 00 00 00 02    	add    0x2000000(%ecx),%bl
     a65:	91                   	xchg   %eax,%ecx
     a66:	04 00                	add    $0x0,%al
     a68:	1b 01                	sbb    (%ecx),%eax
     a6a:	62 04 00             	bound  %eax,(%eax,%eax,1)
     a6d:	00 01                	add    %al,(%ecx)
     a6f:	41                   	inc    %ecx
     a70:	02 01                	add    (%ecx),%al
     a72:	5a                   	pop    %edx
     a73:	00 00                	add    %al,(%eax)
     a75:	00 5b c9             	add    %bl,-0x37(%ebx)
     a78:	04 08                	add    $0x8,%al
     a7a:	a9 c9 04 08 ff       	test   $0xff0804c9,%eax
     a7f:	04 00                	add    $0x0,%al
     a81:	00 c6                	add    %al,%dh
     a83:	0a 00                	or     (%eax),%al
     a85:	00 19                	add    %bl,(%ecx)
     a87:	76 61                	jbe    aea <_init-0x80481aa>
     a89:	72 00                	jb     a8b <_init-0x8048209>
     a8b:	01 41 02             	add    %eax,0x2(%ecx)
     a8e:	00 04 00             	add    %al,(%eax,%eax,1)
     a91:	00 02                	add    %al,(%edx)
     a93:	91                   	xchg   %eax,%ecx
     a94:	00 19                	add    %bl,(%ecx)
     a96:	73 00                	jae    a98 <_init-0x80481fc>
     a98:	01 41 02             	add    %eax,0x2(%ecx)
     a9b:	99                   	cltd   
     a9c:	00 00                	add    %al,(%eax)
     a9e:	00 02                	add    %al,(%edx)
     aa0:	91                   	xchg   %eax,%ecx
     aa1:	04 1c                	add    $0x1c,%al
     aa3:	58                   	pop    %eax
     aa4:	04 00                	add    $0x0,%al
     aa6:	00 80 c9 04 08 a0    	add    %al,-0x5ff7fb37(%eax)
     aac:	c9                   	leave  
     aad:	04 08                	add    $0x8,%al
     aaf:	01 4a 02             	add    %ecx,0x2(%edx)
     ab2:	1d 76 04 00 00       	sbb    $0x476,%eax
     ab7:	2b 05 00 00 1d 6b    	sub    0x6b1d0000,%eax
     abd:	04 00                	add    $0x0,%al
     abf:	00 43 05             	add    %al,0x5(%ebx)
     ac2:	00 00                	add    %al,(%eax)
     ac4:	00 00                	add    %al,(%eax)
     ac6:	1b 01                	sbb    (%ecx),%eax
     ac8:	35 00 00 00 01       	xor    $0x1000000,%eax
     acd:	5f                   	pop    %edi
     ace:	02 01                	add    (%ecx),%al
     ad0:	5a                   	pop    %edx
     ad1:	00 00                	add    %al,(%eax)
     ad3:	00 a9 c9 04 08 f7    	add    %ch,-0x8f7fb37(%ecx)
     ad9:	c9                   	leave  
     ada:	04 08                	add    $0x8,%al
     adc:	57                   	push   %edi
     add:	05 00 00 24 0b       	add    $0xb240000,%eax
     ae2:	00 00                	add    %al,(%eax)
     ae4:	19 76 61             	sbb    %esi,0x61(%esi)
     ae7:	72 00                	jb     ae9 <_init-0x80481ab>
     ae9:	01 5f 02             	add    %ebx,0x2(%edi)
     aec:	00 04 00             	add    %al,(%eax,%eax,1)
     aef:	00 02                	add    %al,(%edx)
     af1:	91                   	xchg   %eax,%ecx
     af2:	00 19                	add    %bl,(%ecx)
     af4:	73 00                	jae    af6 <_init-0x804819e>
     af6:	01 5f 02             	add    %ebx,0x2(%edi)
     af9:	99                   	cltd   
     afa:	00 00                	add    %al,(%eax)
     afc:	00 02                	add    %al,(%edx)
     afe:	91                   	xchg   %eax,%ecx
     aff:	04 1c                	add    $0x1c,%al
     b01:	58                   	pop    %eax
     b02:	04 00                	add    $0x0,%al
     b04:	00 ce                	add    %cl,%dh
     b06:	c9                   	leave  
     b07:	04 08                	add    $0x8,%al
     b09:	ee                   	out    %al,(%dx)
     b0a:	c9                   	leave  
     b0b:	04 08                	add    $0x8,%al
     b0d:	01 66 02             	add    %esp,0x2(%esi)
     b10:	1d 76 04 00 00       	sbb    $0x476,%eax
     b15:	83 05 00 00 1d 6b 04 	addl   $0x4,0x6b1d0000
     b1c:	00 00                	add    %al,(%eax)
     b1e:	9b                   	fwait
     b1f:	05 00 00 00 00       	add    $0x0,%eax
     b24:	1b 01                	sbb    (%ecx),%eax
     b26:	11 04 00             	adc    %eax,(%eax,%eax,1)
     b29:	00 01                	add    %al,(%ecx)
     b2b:	73 02                	jae    b2f <_init-0x8048165>
     b2d:	01 5a 00             	add    %ebx,0x0(%edx)
     b30:	00 00                	add    %al,(%eax)
     b32:	f7                   	(bad)  
     b33:	c9                   	leave  
     b34:	04 08                	add    $0x8,%al
     b36:	44                   	inc    %esp
     b37:	ca 04 08             	lret   $0x804
     b3a:	af                   	scas   %es:(%edi),%eax
     b3b:	05 00 00 82 0b       	add    $0xb820000,%eax
     b40:	00 00                	add    %al,(%eax)
     b42:	19 76 61             	sbb    %esi,0x61(%esi)
     b45:	72 00                	jb     b47 <_init-0x804814d>
     b47:	01 73 02             	add    %esi,0x2(%ebx)
     b4a:	00 04 00             	add    %al,(%eax,%eax,1)
     b4d:	00 02                	add    %al,(%edx)
     b4f:	91                   	xchg   %eax,%ecx
     b50:	00 19                	add    %bl,(%ecx)
     b52:	73 00                	jae    b54 <_init-0x8048140>
     b54:	01 73 02             	add    %esi,0x2(%ebx)
     b57:	99                   	cltd   
     b58:	00 00                	add    %al,(%eax)
     b5a:	00 02                	add    %al,(%edx)
     b5c:	91                   	xchg   %eax,%ecx
     b5d:	04 1c                	add    $0x1c,%al
     b5f:	58                   	pop    %eax
     b60:	04 00                	add    $0x0,%al
     b62:	00 15 ca 04 08 3b    	add    %dl,0x3b0804ca
     b68:	ca 04 08             	lret   $0x804
     b6b:	01 7a 02             	add    %edi,0x2(%edx)
     b6e:	1d 76 04 00 00       	sbb    $0x476,%eax
     b73:	db 05 00 00 1d 6b    	fildl  0x6b1d0000
     b79:	04 00                	add    $0x0,%al
     b7b:	00 f3                	add    %dh,%bl
     b7d:	05 00 00 00 00       	add    $0x0,%eax
     b82:	1b 01                	sbb    (%ecx),%eax
     b84:	66 01 00             	add    %ax,(%eax)
     b87:	00 01                	add    %al,(%ecx)
     b89:	87 02                	xchg   %eax,(%edx)
     b8b:	01 5a 00             	add    %ebx,0x0(%edx)
     b8e:	00 00                	add    %al,(%eax)
     b90:	44                   	inc    %esp
     b91:	ca 04 08             	lret   $0x804
     b94:	91                   	xchg   %eax,%ecx
     b95:	ca 04 08             	lret   $0x804
     b98:	07                   	pop    %es
     b99:	06                   	push   %es
     b9a:	00 00                	add    %al,(%eax)
     b9c:	e0 0b                	loopne ba9 <_init-0x80480eb>
     b9e:	00 00                	add    %al,(%eax)
     ba0:	19 76 61             	sbb    %esi,0x61(%esi)
     ba3:	72 00                	jb     ba5 <_init-0x80480ef>
     ba5:	01 87 02 00 04 00    	add    %eax,0x40002(%edi)
     bab:	00 02                	add    %al,(%edx)
     bad:	91                   	xchg   %eax,%ecx
     bae:	00 19                	add    %bl,(%ecx)
     bb0:	73 00                	jae    bb2 <_init-0x80480e2>
     bb2:	01 87 02 99 00 00    	add    %eax,0x9902(%edi)
     bb8:	00 02                	add    %al,(%edx)
     bba:	91                   	xchg   %eax,%ecx
     bbb:	04 1c                	add    $0x1c,%al
     bbd:	58                   	pop    %eax
     bbe:	04 00                	add    $0x0,%al
     bc0:	00 62 ca             	add    %ah,-0x36(%edx)
     bc3:	04 08                	add    $0x8,%al
     bc5:	88 ca                	mov    %cl,%dl
     bc7:	04 08                	add    $0x8,%al
     bc9:	01 8e 02 1d 76 04    	add    %ecx,0x4761d02(%esi)
     bcf:	00 00                	add    %al,(%eax)
     bd1:	33 06                	xor    (%esi),%eax
     bd3:	00 00                	add    %al,(%eax)
     bd5:	1d 6b 04 00 00       	sbb    $0x46b,%eax
     bda:	4b                   	dec    %ebx
     bdb:	06                   	push   %es
     bdc:	00 00                	add    %al,(%eax)
     bde:	00 00                	add    %al,(%eax)
     be0:	1b 01                	sbb    (%ecx),%eax
     be2:	f4                   	hlt    
     be3:	01 00                	add    %eax,(%eax)
     be5:	00 01                	add    %al,(%ecx)
     be7:	9c                   	pushf  
     be8:	02 01                	add    (%ecx),%al
     bea:	5a                   	pop    %edx
     beb:	00 00                	add    %al,(%eax)
     bed:	00 91 ca 04 08 e7    	add    %dl,-0x18f7fb36(%ecx)
     bf3:	ca 04 08             	lret   $0x804
     bf6:	5f                   	pop    %edi
     bf7:	06                   	push   %es
     bf8:	00 00                	add    %al,(%eax)
     bfa:	3e                   	ds
     bfb:	0c 00                	or     $0x0,%al
     bfd:	00 19                	add    %bl,(%ecx)
     bff:	76 61                	jbe    c62 <_init-0x8048032>
     c01:	72 00                	jb     c03 <_init-0x8048091>
     c03:	01 9c 02 00 04 00 00 	add    %ebx,0x400(%edx,%eax,1)
     c0a:	02 91 00 19 73 00    	add    0x731900(%ecx),%dl
     c10:	01 9c 02 99 00 00 00 	add    %ebx,0x99(%edx,%eax,1)
     c17:	02 91 04 1c 58 04    	add    0x4581c04(%ecx),%dl
     c1d:	00 00                	add    %al,(%eax)
     c1f:	b0 ca                	mov    $0xca,%al
     c21:	04 08                	add    $0x8,%al
     c23:	dd ca                	(bad)  
     c25:	04 08                	add    $0x8,%al
     c27:	01 a3 02 1d 76 04    	add    %esp,0x4761d02(%ebx)
     c2d:	00 00                	add    %al,(%eax)
     c2f:	a3 06 00 00 1d       	mov    %eax,0x1d000006
     c34:	6b 04 00 00          	imul   $0x0,(%eax,%eax,1),%eax
     c38:	bb 06 00 00 00       	mov    $0x6,%ebx
     c3d:	00 18                	add    %bl,(%eax)
     c3f:	01 62 00             	add    %esp,0x0(%edx)
     c42:	00 00                	add    %al,(%eax)
     c44:	01 b3 02 01 5a 00    	add    %esi,0x5a0102(%ebx)
     c4a:	00 00                	add    %al,(%eax)
     c4c:	e7 ca                	out    %eax,$0xca
     c4e:	04 08                	add    $0x8,%al
     c50:	05 cb 04 08 02       	add    $0x20804cb,%eax
     c55:	74 04                	je     c5b <_init-0x8048039>
     c57:	78 0c                	js     c65 <_init-0x804802f>
     c59:	00 00                	add    %al,(%eax)
     c5b:	19 76 61             	sbb    %esi,0x61(%esi)
     c5e:	72 00                	jb     c60 <_init-0x8048034>
     c60:	01 b3 02 00 04 00    	add    %esi,0x40002(%ebx)
     c66:	00 02                	add    %al,(%edx)
     c68:	91                   	xchg   %eax,%ecx
     c69:	00 19                	add    %bl,(%ecx)
     c6b:	73 00                	jae    c6d <_init-0x8048027>
     c6d:	01 b3 02 99 00 00    	add    %esi,0x9902(%ebx)
     c73:	00 02                	add    %al,(%edx)
     c75:	91                   	xchg   %eax,%ecx
     c76:	04 00                	add    $0x0,%al
     c78:	18 01                	sbb    %al,(%ecx)
     c7a:	08 05 00 00 01 c7    	or     %al,0xc7010000
     c80:	02 01                	add    (%ecx),%al
     c82:	5a                   	pop    %edx
     c83:	00 00                	add    %al,(%eax)
     c85:	00 05 cb 04 08 23    	add    %al,0x230804cb
     c8b:	cb                   	lret   
     c8c:	04 08                	add    $0x8,%al
     c8e:	02 74 04 b2          	add    -0x4e(%esp,%eax,1),%dh
     c92:	0c 00                	or     $0x0,%al
     c94:	00 19                	add    %bl,(%ecx)
     c96:	76 61                	jbe    cf9 <_init-0x8047f9b>
     c98:	72 00                	jb     c9a <_init-0x8047ffa>
     c9a:	01 c7                	add    %eax,%edi
     c9c:	02 00                	add    (%eax),%al
     c9e:	04 00                	add    $0x0,%al
     ca0:	00 02                	add    %al,(%edx)
     ca2:	91                   	xchg   %eax,%ecx
     ca3:	00 19                	add    %bl,(%ecx)
     ca5:	73 00                	jae    ca7 <_init-0x8047fed>
     ca7:	01 c7                	add    %eax,%edi
     ca9:	02 99 00 00 00 02    	add    0x2000000(%ecx),%bl
     caf:	91                   	xchg   %eax,%ecx
     cb0:	04 00                	add    $0x0,%al
     cb2:	18 01                	sbb    %al,(%ecx)
     cb4:	16                   	push   %ss
     cb5:	02 00                	add    (%eax),%al
     cb7:	00 01                	add    %al,(%ecx)
     cb9:	db 02                	fildl  (%edx)
     cbb:	01 5a 00             	add    %ebx,0x0(%edx)
     cbe:	00 00                	add    %al,(%eax)
     cc0:	23 cb                	and    %ebx,%ecx
     cc2:	04 08                	add    $0x8,%al
     cc4:	41                   	inc    %ecx
     cc5:	cb                   	lret   
     cc6:	04 08                	add    $0x8,%al
     cc8:	02 74 04 ec          	add    -0x14(%esp,%eax,1),%dh
     ccc:	0c 00                	or     $0x0,%al
     cce:	00 19                	add    %bl,(%ecx)
     cd0:	76 61                	jbe    d33 <_init-0x8047f61>
     cd2:	72 00                	jb     cd4 <_init-0x8047fc0>
     cd4:	01 db                	add    %ebx,%ebx
     cd6:	02 00                	add    (%eax),%al
     cd8:	04 00                	add    $0x0,%al
     cda:	00 02                	add    %al,(%edx)
     cdc:	91                   	xchg   %eax,%ecx
     cdd:	00 19                	add    %bl,(%ecx)
     cdf:	73 00                	jae    ce1 <_init-0x8047fb3>
     ce1:	01 db                	add    %ebx,%ebx
     ce3:	02 99 00 00 00 02    	add    0x2000000(%ecx),%bl
     ce9:	91                   	xchg   %eax,%ecx
     cea:	04 00                	add    $0x0,%al
     cec:	18 01                	sbb    %al,(%ecx)
     cee:	6b 00 00             	imul   $0x0,(%eax),%eax
     cf1:	00 01                	add    %al,(%ecx)
     cf3:	fe 02                	incb   (%edx)
     cf5:	01 5a 00             	add    %ebx,0x0(%edx)
     cf8:	00 00                	add    %al,(%eax)
     cfa:	41                   	inc    %ecx
     cfb:	cb                   	lret   
     cfc:	04 08                	add    $0x8,%al
     cfe:	5f                   	pop    %edi
     cff:	cb                   	lret   
     d00:	04 08                	add    $0x8,%al
     d02:	02 74 04 26          	add    0x26(%esp,%eax,1),%dh
     d06:	0d 00 00 19 76       	or     $0x76190000,%eax
     d0b:	61                   	popa   
     d0c:	72 00                	jb     d0e <_init-0x8047f86>
     d0e:	01 fe                	add    %edi,%esi
     d10:	02 00                	add    (%eax),%al
     d12:	04 00                	add    $0x0,%al
     d14:	00 02                	add    %al,(%edx)
     d16:	91                   	xchg   %eax,%ecx
     d17:	00 19                	add    %bl,(%ecx)
     d19:	73 00                	jae    d1b <_init-0x8047f79>
     d1b:	01 fe                	add    %edi,%esi
     d1d:	02 99 00 00 00 02    	add    0x2000000(%ecx),%bl
     d23:	91                   	xchg   %eax,%ecx
     d24:	04 00                	add    $0x0,%al
     d26:	18 01                	sbb    %al,(%ecx)
     d28:	1b 04 00             	sbb    (%eax,%eax,1),%eax
     d2b:	00 01                	add    %al,(%ecx)
     d2d:	12 03                	adc    (%ebx),%al
     d2f:	01 5a 00             	add    %ebx,0x0(%edx)
     d32:	00 00                	add    %al,(%eax)
     d34:	5f                   	pop    %edi
     d35:	cb                   	lret   
     d36:	04 08                	add    $0x8,%al
     d38:	7d cb                	jge    d05 <_init-0x8047f8f>
     d3a:	04 08                	add    $0x8,%al
     d3c:	02 74 04 60          	add    0x60(%esp,%eax,1),%dh
     d40:	0d 00 00 19 76       	or     $0x76190000,%eax
     d45:	61                   	popa   
     d46:	72 00                	jb     d48 <_init-0x8047f4c>
     d48:	01 12                	add    %edx,(%edx)
     d4a:	03 00                	add    (%eax),%eax
     d4c:	04 00                	add    $0x0,%al
     d4e:	00 02                	add    %al,(%edx)
     d50:	91                   	xchg   %eax,%ecx
     d51:	00 19                	add    %bl,(%ecx)
     d53:	73 00                	jae    d55 <_init-0x8047f3f>
     d55:	01 12                	add    %edx,(%edx)
     d57:	03 99 00 00 00 02    	add    0x2000000(%ecx),%ebx
     d5d:	91                   	xchg   %eax,%ecx
     d5e:	04 00                	add    $0x0,%al
     d60:	18 01                	sbb    %al,(%ecx)
     d62:	d9 02                	flds   (%edx)
     d64:	00 00                	add    %al,(%eax)
     d66:	01 36                	add    %esi,(%esi)
     d68:	03 01                	add    (%ecx),%eax
     d6a:	5a                   	pop    %edx
     d6b:	00 00                	add    %al,(%eax)
     d6d:	00 7d cb             	add    %bh,-0x35(%ebp)
     d70:	04 08                	add    $0x8,%al
     d72:	9b                   	fwait
     d73:	cb                   	lret   
     d74:	04 08                	add    $0x8,%al
     d76:	02 74 04 9a          	add    -0x66(%esp,%eax,1),%dh
     d7a:	0d 00 00 19 76       	or     $0x76190000,%eax
     d7f:	61                   	popa   
     d80:	72 00                	jb     d82 <_init-0x8047f12>
     d82:	01 36                	add    %esi,(%esi)
     d84:	03 00                	add    (%eax),%eax
     d86:	04 00                	add    $0x0,%al
     d88:	00 02                	add    %al,(%edx)
     d8a:	91                   	xchg   %eax,%ecx
     d8b:	00 19                	add    %bl,(%ecx)
     d8d:	73 00                	jae    d8f <_init-0x8047f05>
     d8f:	01 36                	add    %esi,(%esi)
     d91:	03 99 00 00 00 02    	add    0x2000000(%ecx),%ebx
     d97:	91                   	xchg   %eax,%ecx
     d98:	04 00                	add    $0x0,%al
     d9a:	18 01                	sbb    %al,(%ecx)
     d9c:	cd 03                	int    $0x3
     d9e:	00 00                	add    %al,(%eax)
     da0:	01 6a 03             	add    %ebp,0x3(%edx)
     da3:	01 5a 00             	add    %ebx,0x0(%edx)
     da6:	00 00                	add    %al,(%eax)
     da8:	9b                   	fwait
     da9:	cb                   	lret   
     daa:	04 08                	add    $0x8,%al
     dac:	b9 cb 04 08 02       	mov    $0x20804cb,%ecx
     db1:	74 04                	je     db7 <_init-0x8047edd>
     db3:	d4 0d                	aam    $0xd
     db5:	00 00                	add    %al,(%eax)
     db7:	19 76 61             	sbb    %esi,0x61(%esi)
     dba:	72 00                	jb     dbc <_init-0x8047ed8>
     dbc:	01 6a 03             	add    %ebp,0x3(%edx)
     dbf:	00 04 00             	add    %al,(%eax,%eax,1)
     dc2:	00 02                	add    %al,(%edx)
     dc4:	91                   	xchg   %eax,%ecx
     dc5:	00 19                	add    %bl,(%ecx)
     dc7:	73 00                	jae    dc9 <_init-0x8047ecb>
     dc9:	01 6a 03             	add    %ebp,0x3(%edx)
     dcc:	99                   	cltd   
     dcd:	00 00                	add    %al,(%eax)
     dcf:	00 02                	add    %al,(%edx)
     dd1:	91                   	xchg   %eax,%ecx
     dd2:	04 00                	add    $0x0,%al
     dd4:	18 01                	sbb    %al,(%ecx)
     dd6:	fe 01                	incb   (%ecx)
     dd8:	00 00                	add    %al,(%eax)
     dda:	01 7e 03             	add    %edi,0x3(%esi)
     ddd:	01 5a 00             	add    %ebx,0x0(%edx)
     de0:	00 00                	add    %al,(%eax)
     de2:	b9 cb 04 08 d7       	mov    $0xd70804cb,%ecx
     de7:	cb                   	lret   
     de8:	04 08                	add    $0x8,%al
     dea:	02 74 04 0e          	add    0xe(%esp,%eax,1),%dh
     dee:	0e                   	push   %cs
     def:	00 00                	add    %al,(%eax)
     df1:	19 76 61             	sbb    %esi,0x61(%esi)
     df4:	72 00                	jb     df6 <_init-0x8047e9e>
     df6:	01 7e 03             	add    %edi,0x3(%esi)
     df9:	00 04 00             	add    %al,(%eax,%eax,1)
     dfc:	00 02                	add    %al,(%edx)
     dfe:	91                   	xchg   %eax,%ecx
     dff:	00 19                	add    %bl,(%ecx)
     e01:	73 00                	jae    e03 <_init-0x8047e91>
     e03:	01 7e 03             	add    %edi,0x3(%esi)
     e06:	99                   	cltd   
     e07:	00 00                	add    %al,(%eax)
     e09:	00 02                	add    %al,(%edx)
     e0b:	91                   	xchg   %eax,%ecx
     e0c:	04 00                	add    $0x0,%al
     e0e:	18 01                	sbb    %al,(%ecx)
     e10:	6a 05                	push   $0x5
     e12:	00 00                	add    %al,(%eax)
     e14:	01 92 03 01 5a 00    	add    %edx,0x5a0103(%edx)
     e1a:	00 00                	add    %al,(%eax)
     e1c:	d7                   	xlat   %ds:(%ebx)
     e1d:	cb                   	lret   
     e1e:	04 08                	add    $0x8,%al
     e20:	f5                   	cmc    
     e21:	cb                   	lret   
     e22:	04 08                	add    $0x8,%al
     e24:	02 74 04 48          	add    0x48(%esp,%eax,1),%dh
     e28:	0e                   	push   %cs
     e29:	00 00                	add    %al,(%eax)
     e2b:	19 76 61             	sbb    %esi,0x61(%esi)
     e2e:	72 00                	jb     e30 <_init-0x8047e64>
     e30:	01 92 03 00 04 00    	add    %edx,0x40003(%edx)
     e36:	00 02                	add    %al,(%edx)
     e38:	91                   	xchg   %eax,%ecx
     e39:	00 19                	add    %bl,(%ecx)
     e3b:	73 00                	jae    e3d <_init-0x8047e57>
     e3d:	01 92 03 99 00 00    	add    %edx,0x9903(%edx)
     e43:	00 02                	add    %al,(%edx)
     e45:	91                   	xchg   %eax,%ecx
     e46:	04 00                	add    $0x0,%al
     e48:	18 01                	sbb    %al,(%ecx)
     e4a:	46                   	inc    %esi
     e4b:	05 00 00 01 a6       	add    $0xa6010000,%eax
     e50:	03 01                	add    (%ecx),%eax
     e52:	5a                   	pop    %edx
     e53:	00 00                	add    %al,(%eax)
     e55:	00 f5                	add    %dh,%ch
     e57:	cb                   	lret   
     e58:	04 08                	add    $0x8,%al
     e5a:	13 cc                	adc    %esp,%ecx
     e5c:	04 08                	add    $0x8,%al
     e5e:	02 74 04 82          	add    -0x7e(%esp,%eax,1),%dh
     e62:	0e                   	push   %cs
     e63:	00 00                	add    %al,(%eax)
     e65:	19 76 61             	sbb    %esi,0x61(%esi)
     e68:	72 00                	jb     e6a <_init-0x8047e2a>
     e6a:	01 a6 03 00 04 00    	add    %esp,0x40003(%esi)
     e70:	00 02                	add    %al,(%edx)
     e72:	91                   	xchg   %eax,%ecx
     e73:	00 19                	add    %bl,(%ecx)
     e75:	73 00                	jae    e77 <_init-0x8047e1d>
     e77:	01 a6 03 99 00 00    	add    %esp,0x9903(%esi)
     e7d:	00 02                	add    %al,(%edx)
     e7f:	91                   	xchg   %eax,%ecx
     e80:	04 00                	add    $0x0,%al
     e82:	1b 01                	sbb    (%ecx),%eax
     e84:	aa                   	stos   %al,%es:(%edi)
     e85:	00 00                	add    %al,(%eax)
     e87:	00 01                	add    %al,(%ecx)
     e89:	a8 02                	test   $0x2,%al
     e8b:	01 5a 00             	add    %ebx,0x0(%edx)
     e8e:	00 00                	add    %al,(%eax)
     e90:	13 cc                	adc    %esp,%ecx
     e92:	04 08                	add    $0x8,%al
     e94:	55                   	push   %ebp
     e95:	cc                   	int3   
     e96:	04 08                	add    $0x8,%al
     e98:	cf                   	iret   
     e99:	06                   	push   %es
     e9a:	00 00                	add    %al,(%eax)
     e9c:	bd 0e 00 00 19       	mov    $0x1900000e,%ebp
     ea1:	76 61                	jbe    f04 <_init-0x8047d90>
     ea3:	72 00                	jb     ea5 <_init-0x8047def>
     ea5:	01 a8 02 00 04 00    	add    %ebp,0x40002(%eax)
     eab:	00 02                	add    %al,(%edx)
     ead:	91                   	xchg   %eax,%ecx
     eae:	00 19                	add    %bl,(%ecx)
     eb0:	73 00                	jae    eb2 <_init-0x8047de2>
     eb2:	01 a8 02 e2 02 00    	add    %ebp,0x2e202(%eax)
     eb8:	00 02                	add    %al,(%edx)
     eba:	91                   	xchg   %eax,%ecx
     ebb:	04 00                	add    $0x0,%al
     ebd:	1b 01                	sbb    (%ecx),%eax
     ebf:	4c                   	dec    %esp
     ec0:	00 00                	add    %al,(%eax)
     ec2:	00 01                	add    %al,(%ecx)
     ec4:	92                   	xchg   %eax,%edx
     ec5:	02 01                	add    (%ecx),%al
     ec7:	5a                   	pop    %edx
     ec8:	00 00                	add    %al,(%eax)
     eca:	00 55 cc             	add    %dl,-0x34(%ebp)
     ecd:	04 08                	add    $0x8,%al
     ecf:	97                   	xchg   %eax,%edi
     ed0:	cc                   	int3   
     ed1:	04 08                	add    $0x8,%al
     ed3:	13 07                	adc    (%edi),%eax
     ed5:	00 00                	add    %al,(%eax)
     ed7:	f8                   	clc    
     ed8:	0e                   	push   %cs
     ed9:	00 00                	add    %al,(%eax)
     edb:	19 76 61             	sbb    %esi,0x61(%esi)
     ede:	72 00                	jb     ee0 <_init-0x8047db4>
     ee0:	01 92 02 00 04 00    	add    %edx,0x40002(%edx)
     ee6:	00 02                	add    %al,(%edx)
     ee8:	91                   	xchg   %eax,%ecx
     ee9:	00 19                	add    %bl,(%ecx)
     eeb:	73 00                	jae    eed <_init-0x8047da7>
     eed:	01 92 02 e2 02 00    	add    %edx,0x2e202(%edx)
     ef3:	00 02                	add    %al,(%edx)
     ef5:	91                   	xchg   %eax,%ecx
     ef6:	04 00                	add    $0x0,%al
     ef8:	1b 01                	sbb    (%ecx),%eax
     efa:	bc 02 00 00 01       	mov    $0x1000002,%esp
     eff:	7e 02                	jle    f03 <_init-0x8047d91>
     f01:	01 5a 00             	add    %ebx,0x0(%edx)
     f04:	00 00                	add    %al,(%eax)
     f06:	97                   	xchg   %eax,%edi
     f07:	cc                   	int3   
     f08:	04 08                	add    $0x8,%al
     f0a:	d9 cc                	fxch   %st(4)
     f0c:	04 08                	add    $0x8,%al
     f0e:	57                   	push   %edi
     f0f:	07                   	pop    %es
     f10:	00 00                	add    %al,(%eax)
     f12:	33 0f                	xor    (%edi),%ecx
     f14:	00 00                	add    %al,(%eax)
     f16:	19 76 61             	sbb    %esi,0x61(%esi)
     f19:	72 00                	jb     f1b <_init-0x8047d79>
     f1b:	01 7e 02             	add    %edi,0x2(%esi)
     f1e:	00 04 00             	add    %al,(%eax,%eax,1)
     f21:	00 02                	add    %al,(%edx)
     f23:	91                   	xchg   %eax,%ecx
     f24:	00 19                	add    %bl,(%ecx)
     f26:	73 00                	jae    f28 <_init-0x8047d6c>
     f28:	01 7e 02             	add    %edi,0x2(%esi)
     f2b:	e2 02                	loop   f2f <_init-0x8047d65>
     f2d:	00 00                	add    %al,(%eax)
     f2f:	02 91 04 00 1b 01    	add    0x11b0004(%ecx),%dl
     f35:	71 04                	jno    f3b <_init-0x8047d59>
     f37:	00 00                	add    %al,(%eax)
     f39:	01 6a 02             	add    %ebp,0x2(%edx)
     f3c:	01 5a 00             	add    %ebx,0x0(%edx)
     f3f:	00 00                	add    %al,(%eax)
     f41:	d9 cc                	fxch   %st(4)
     f43:	04 08                	add    $0x8,%al
     f45:	1b cd                	sbb    %ebp,%ecx
     f47:	04 08                	add    $0x8,%al
     f49:	9b                   	fwait
     f4a:	07                   	pop    %es
     f4b:	00 00                	add    %al,(%eax)
     f4d:	6e                   	outsb  %ds:(%esi),(%dx)
     f4e:	0f 00 00             	sldt   (%eax)
     f51:	19 76 61             	sbb    %esi,0x61(%esi)
     f54:	72 00                	jb     f56 <_init-0x8047d3e>
     f56:	01 6a 02             	add    %ebp,0x2(%edx)
     f59:	00 04 00             	add    %al,(%eax,%eax,1)
     f5c:	00 02                	add    %al,(%edx)
     f5e:	91                   	xchg   %eax,%ecx
     f5f:	00 19                	add    %bl,(%ecx)
     f61:	73 00                	jae    f63 <_init-0x8047d31>
     f63:	01 6a 02             	add    %ebp,0x2(%edx)
     f66:	e2 02                	loop   f6a <_init-0x8047d2a>
     f68:	00 00                	add    %al,(%eax)
     f6a:	02 91 04 00 1b 01    	add    0x11b0004(%ecx),%dl
     f70:	9d                   	popf   
     f71:	04 00                	add    $0x0,%al
     f73:	00 01                	add    %al,(%ecx)
     f75:	d8 01                	fadds  (%ecx)
     f77:	01 5a 00             	add    %ebx,0x0(%edx)
     f7a:	00 00                	add    %al,(%eax)
     f7c:	1b cd                	sbb    %ebp,%ecx
     f7e:	04 08                	add    $0x8,%al
     f80:	5d                   	pop    %ebp
     f81:	cd 04                	int    $0x4
     f83:	08 df                	or     %bl,%bh
     f85:	07                   	pop    %es
     f86:	00 00                	add    %al,(%eax)
     f88:	a9 0f 00 00 19       	test   $0x1900000f,%eax
     f8d:	76 61                	jbe    ff0 <_init-0x8047ca4>
     f8f:	72 00                	jb     f91 <_init-0x8047d03>
     f91:	01 d8                	add    %ebx,%eax
     f93:	01 00                	add    %eax,(%eax)
     f95:	04 00                	add    $0x0,%al
     f97:	00 02                	add    %al,(%edx)
     f99:	91                   	xchg   %eax,%ecx
     f9a:	00 19                	add    %bl,(%ecx)
     f9c:	73 00                	jae    f9e <_init-0x8047cf6>
     f9e:	01 d8                	add    %ebx,%eax
     fa0:	01 e2                	add    %esp,%edx
     fa2:	02 00                	add    (%eax),%al
     fa4:	00 02                	add    %al,(%edx)
     fa6:	91                   	xchg   %eax,%ecx
     fa7:	04 00                	add    $0x0,%al
     fa9:	1b 01                	sbb    (%ecx),%eax
     fab:	74 00                	je     fad <_init-0x8047ce7>
     fad:	00 00                	add    %al,(%eax)
     faf:	01 93 01 01 5a 00    	add    %edx,0x5a0101(%ebx)
     fb5:	00 00                	add    %al,(%eax)
     fb7:	5d                   	pop    %ebp
     fb8:	cd 04                	int    $0x4
     fba:	08 88 cd 04 08 23    	or     %cl,0x230804cd(%eax)
     fc0:	08 00                	or     %al,(%eax)
     fc2:	00 e4                	add    %ah,%ah
     fc4:	0f 00 00             	sldt   (%eax)
     fc7:	19 76 61             	sbb    %esi,0x61(%esi)
     fca:	72 00                	jb     fcc <_init-0x8047cc8>
     fcc:	01 93 01 00 04 00    	add    %edx,0x40001(%ebx)
     fd2:	00 02                	add    %al,(%edx)
     fd4:	91                   	xchg   %eax,%ecx
     fd5:	00 19                	add    %bl,(%ecx)
     fd7:	73 00                	jae    fd9 <_init-0x8047cbb>
     fd9:	01 93 01 e2 02 00    	add    %edx,0x2e201(%ebx)
     fdf:	00 02                	add    %al,(%edx)
     fe1:	91                   	xchg   %eax,%ecx
     fe2:	04 00                	add    $0x0,%al
     fe4:	1b 01                	sbb    (%ecx),%eax
     fe6:	ff 02                	incl   (%edx)
     fe8:	00 00                	add    %al,(%eax)
     fea:	01 4e 02             	add    %ecx,0x2(%esi)
     fed:	01 5a 00             	add    %ebx,0x0(%edx)
     ff0:	00 00                	add    %al,(%eax)
     ff2:	88 cd                	mov    %cl,%ch
     ff4:	04 08                	add    $0x8,%al
     ff6:	e9 cd 04 08 4f       	jmp    4f0814c8 <_end+0x4702ff84>
     ffb:	08 00                	or     %al,(%eax)
     ffd:	00 48 10             	add    %cl,0x10(%eax)
    1000:	00 00                	add    %al,(%eax)
    1002:	19 76 61             	sbb    %esi,0x61(%esi)
    1005:	72 00                	jb     1007 <_init-0x8047c8d>
    1007:	01 4e 02             	add    %ecx,0x2(%esi)
    100a:	00 04 00             	add    %al,(%eax,%eax,1)
    100d:	00 02                	add    %al,(%edx)
    100f:	91                   	xchg   %eax,%ecx
    1010:	00 19                	add    %bl,(%ecx)
    1012:	73 00                	jae    1014 <_init-0x8047c80>
    1014:	01 4e 02             	add    %ecx,0x2(%esi)
    1017:	e2 02                	loop   101b <_init-0x8047c79>
    1019:	00 00                	add    %al,(%eax)
    101b:	02 91 04 1e 63 70    	add    0x70631e04(%ecx),%dl
    1021:	00 01                	add    %al,(%ecx)
    1023:	50                   	push   %eax
    1024:	02 99 00 00 00 ab    	add    -0x55000000(%ecx),%bl
    102a:	08 00                	or     %al,(%eax)
    102c:	00 1f                	add    %bl,(%edi)
    102e:	a6                   	cmpsb  %es:(%edi),%ds:(%esi)
    102f:	cd 04                	int    $0x4
    1031:	08 c7                	or     %al,%bh
    1033:	cd 04                	int    $0x4
    1035:	08 1e                	or     %bl,(%esi)
    1037:	5f                   	pop    %edi
    1038:	63 70 00             	arpl   %si,0x0(%eax)
    103b:	01 57 02             	add    %edx,0x2(%edi)
    103e:	99                   	cltd   
    103f:	00 00                	add    %al,(%eax)
    1041:	00 ca                	add    %cl,%dl
    1043:	08 00                	or     %al,(%eax)
    1045:	00 00                	add    %al,(%eax)
    1047:	00 1b                	add    %bl,(%ebx)
    1049:	01 80 03 00 00 01    	add    %eax,0x1000003(%eax)
    104f:	23 02                	and    (%edx),%eax
    1051:	01 5a 00             	add    %ebx,0x0(%edx)
    1054:	00 00                	add    %al,(%eax)
    1056:	e9 cd 04 08 36       	jmp    36081528 <_end+0x2e02ffe4>
    105b:	cf                   	iret   
    105c:	04 08                	add    $0x8,%al
    105e:	e9 08 00 00 ac       	jmp    ac00106b <_end+0xa3fafb27>
    1063:	10 00                	adc    %al,(%eax)
    1065:	00 19                	add    %bl,(%ecx)
    1067:	76 61                	jbe    10ca <_init-0x8047bca>
    1069:	72 00                	jb     106b <_init-0x8047c29>
    106b:	01 23                	add    %esp,(%ebx)
    106d:	02 00                	add    (%eax),%al
    106f:	04 00                	add    $0x0,%al
    1071:	00 02                	add    %al,(%edx)
    1073:	91                   	xchg   %eax,%ecx
    1074:	00 19                	add    %bl,(%ecx)
    1076:	73 00                	jae    1078 <_init-0x8047c1c>
    1078:	01 23                	add    %esp,(%ebx)
    107a:	02 e2                	add    %dl,%ah
    107c:	02 00                	add    (%eax),%al
    107e:	00 02                	add    %al,(%edx)
    1080:	91                   	xchg   %eax,%ecx
    1081:	04 1e                	add    $0x1e,%al
    1083:	63 70 00             	arpl   %si,0x0(%eax)
    1086:	01 25 02 99 00 00    	add    %esp,0x9902
    108c:	00 45 09             	add    %al,0x9(%ebp)
    108f:	00 00                	add    %al,(%eax)
    1091:	1f                   	pop    %ds
    1092:	07                   	pop    %es
    1093:	ce                   	into   
    1094:	04 08                	add    $0x8,%al
    1096:	28 ce                	sub    %cl,%dh
    1098:	04 08                	add    $0x8,%al
    109a:	1e                   	push   %ds
    109b:	5f                   	pop    %edi
    109c:	63 70 00             	arpl   %si,0x0(%eax)
    109f:	01 2c 02             	add    %ebp,(%edx,%eax,1)
    10a2:	99                   	cltd   
    10a3:	00 00                	add    %al,(%eax)
    10a5:	00 64 09 00          	add    %ah,0x0(%ecx,%ecx,1)
    10a9:	00 00                	add    %al,(%eax)
    10ab:	00 1b                	add    %bl,(%ebx)
    10ad:	01 2b                	add    %ebp,(%ebx)
    10af:	03 00                	add    (%eax),%eax
    10b1:	00 01                	add    %al,(%ecx)
    10b3:	f0 01 01             	lock add %eax,(%ecx)
    10b6:	5a                   	pop    %edx
    10b7:	00 00                	add    %al,(%eax)
    10b9:	00 36                	add    %dh,(%esi)
    10bb:	cf                   	iret   
    10bc:	04 08                	add    $0x8,%al
    10be:	2a d0                	sub    %al,%dl
    10c0:	04 08                	add    $0x8,%al
    10c2:	83 09 00             	orl    $0x0,(%ecx)
    10c5:	00 3b                	add    %bh,(%ebx)
    10c7:	11 00                	adc    %eax,(%eax)
    10c9:	00 19                	add    %bl,(%ecx)
    10cb:	76 61                	jbe    112e <_init-0x8047b66>
    10cd:	72 00                	jb     10cf <_init-0x8047bc5>
    10cf:	01 f0                	add    %esi,%eax
    10d1:	01 00                	add    %eax,(%eax)
    10d3:	04 00                	add    $0x0,%al
    10d5:	00 02                	add    %al,(%edx)
    10d7:	91                   	xchg   %eax,%ecx
    10d8:	00 19                	add    %bl,(%ecx)
    10da:	73 00                	jae    10dc <_init-0x8047bb8>
    10dc:	01 f0                	add    %esi,%eax
    10de:	01 e2                	add    %esp,%edx
    10e0:	02 00                	add    (%eax),%al
    10e2:	00 02                	add    %al,(%edx)
    10e4:	91                   	xchg   %eax,%ecx
    10e5:	04 1e                	add    $0x1e,%al
    10e7:	63 70 00             	arpl   %si,0x0(%eax)
    10ea:	01 f2                	add    %esi,%edx
    10ec:	01 99 00 00 00 f7    	add    %ebx,-0x9000000(%ecx)
    10f2:	09 00                	or     %eax,(%eax)
    10f4:	00 1e                	add    %bl,(%esi)
    10f6:	6c                   	insb   (%dx),%es:(%edi)
    10f7:	65 6e                	outsb  %gs:(%esi),(%dx)
    10f9:	00 01                	add    %al,(%ecx)
    10fb:	f3 01 5a 00          	repz add %ebx,0x0(%edx)
    10ff:	00 00                	add    %al,(%eax)
    1101:	3a 0a                	cmp    (%edx),%cl
    1103:	00 00                	add    %al,(%eax)
    1105:	20 d5                	and    %dl,%ch
    1107:	03 00                	add    (%eax),%eax
    1109:	00 01                	add    %al,(%ecx)
    110b:	f4                   	hlt    
    110c:	01 9f 00 00 00 66    	add    %ebx,0x66000000(%edi)
    1112:	0a 00                	or     (%eax),%al
    1114:	00 1e                	add    %bl,(%esi)
    1116:	65                   	gs
    1117:	70 00                	jo     1119 <_init-0x8047b7b>
    1119:	01 f5                	add    %esi,%ebp
    111b:	01 99 00 00 00 7a    	add    %ebx,0x7a000000(%ecx)
    1121:	0a 00                	or     (%eax),%al
    1123:	00 21                	add    %ah,(%ecx)
    1125:	00 00                	add    %al,(%eax)
    1127:	00 00                	add    %al,(%eax)
    1129:	1e                   	push   %ds
    112a:	5f                   	pop    %edi
    112b:	63 70 00             	arpl   %si,0x0(%eax)
    112e:	01 fb                	add    %edi,%ebx
    1130:	01 99 00 00 00 8d    	add    %ebx,-0x73000000(%ecx)
    1136:	0a 00                	or     (%eax),%al
    1138:	00 00                	add    %al,(%eax)
    113a:	00 1b                	add    %bl,(%ebx)
    113c:	01 08                	add    %ecx,(%eax)
    113e:	04 00                	add    $0x0,%al
    1140:	00 01                	add    %al,(%ecx)
    1142:	be 01 01 5a 00       	mov    $0x5a0101,%esi
    1147:	00 00                	add    %al,(%eax)
    1149:	2a d0                	sub    %al,%dl
    114b:	04 08                	add    $0x8,%al
    114d:	72 d0                	jb     111f <_init-0x8047b75>
    114f:	04 08                	add    $0x8,%al
    1151:	b8 0a 00 00 84       	mov    $0x8400000a,%eax
    1156:	11 00                	adc    %eax,(%eax)
    1158:	00 19                	add    %bl,(%ecx)
    115a:	76 61                	jbe    11bd <_init-0x8047ad7>
    115c:	72 00                	jb     115e <_init-0x8047b36>
    115e:	01 be 01 00 04 00    	add    %edi,0x40001(%esi)
    1164:	00 02                	add    %al,(%edx)
    1166:	91                   	xchg   %eax,%ecx
    1167:	00 19                	add    %bl,(%ecx)
    1169:	73 00                	jae    116b <_init-0x8047b29>
    116b:	01 be 01 e2 02 00    	add    %edi,0x2e201(%esi)
    1171:	00 02                	add    %al,(%edx)
    1173:	91                   	xchg   %eax,%ecx
    1174:	04 1e                	add    $0x1e,%al
    1176:	70 00                	jo     1178 <_init-0x8047b1c>
    1178:	01 c0                	add    %eax,%eax
    117a:	01 84 11 00 00 fc 0a 	add    %eax,0xafc0000(%ecx,%edx,1)
    1181:	00 00                	add    %al,(%eax)
    1183:	00 06                	add    %al,(%esi)
    1185:	04 30                	add    $0x30,%al
    1187:	00 00                	add    %al,(%eax)
    1189:	00 1b                	add    %bl,(%ebx)
    118b:	01 09                	add    %ecx,(%ecx)
    118d:	04 00                	add    $0x0,%al
    118f:	00 01                	add    %al,(%ecx)
    1191:	a4                   	movsb  %ds:(%esi),%es:(%edi)
    1192:	01 01                	add    %eax,(%ecx)
    1194:	5a                   	pop    %edx
    1195:	00 00                	add    %al,(%eax)
    1197:	00 72 d0             	add    %dh,-0x30(%edx)
    119a:	04 08                	add    $0x8,%al
    119c:	ba d0 04 08 1e       	mov    $0x1e0804d0,%edx
    11a1:	0b 00                	or     (%eax),%eax
    11a3:	00 d3                	add    %dl,%bl
    11a5:	11 00                	adc    %eax,(%eax)
    11a7:	00 19                	add    %bl,(%ecx)
    11a9:	76 61                	jbe    120c <_init-0x8047a88>
    11ab:	72 00                	jb     11ad <_init-0x8047ae7>
    11ad:	01 a4 01 00 04 00 00 	add    %esp,0x400(%ecx,%eax,1)
    11b4:	02 91 00 19 73 00    	add    0x731900(%ecx),%dl
    11ba:	01 a4 01 e2 02 00 00 	add    %esp,0x2e2(%ecx,%eax,1)
    11c1:	02 91 04 1e 70 00    	add    0x701e04(%ecx),%dl
    11c7:	01 a6 01 ed 02 00    	add    %esp,0x2ed01(%esi)
    11cd:	00 62 0b             	add    %ah,0xb(%edx)
    11d0:	00 00                	add    %al,(%eax)
    11d2:	00 22                	add    %ah,(%edx)
    11d4:	6a 03                	push   $0x3
    11d6:	00 00                	add    %al,(%eax)
    11d8:	01 45 01             	add    %eax,0x1(%ebp)
    11db:	01 5a 00             	add    %ebx,0x0(%edx)
    11de:	00 00                	add    %al,(%eax)
    11e0:	ba d0 04 08 8b       	mov    $0x8b0804d0,%edx
    11e5:	d2 04 08             	rolb   %cl,(%eax,%ecx,1)
    11e8:	84 0b                	test   %cl,(%ebx)
    11ea:	00 00                	add    %al,(%eax)
    11ec:	3e 13 00             	adc    %ds:(%eax),%eax
    11ef:	00 23                	add    %ah,(%ebx)
    11f1:	66                   	data16
    11f2:	00 01                	add    %al,(%ecx)
    11f4:	45                   	inc    %ebp
    11f5:	01 52 04             	add    %edx,0x4(%edx)
    11f8:	00 00                	add    %al,(%eax)
    11fa:	11 0c 00             	adc    %ecx,(%eax,%eax,1)
    11fd:	00 24 70             	add    %ah,(%eax,%esi,2)
    1200:	03 00                	add    (%eax),%eax
    1202:	00 01                	add    %al,(%ecx)
    1204:	45                   	inc    %ebp
    1205:	01 00                	add    %eax,(%eax)
    1207:	04 00                	add    $0x0,%al
    1209:	00 31                	add    %dh,(%ecx)
    120b:	0c 00                	or     $0x0,%al
    120d:	00 24 10             	add    %ah,(%eax,%edx,1)
    1210:	01 00                	add    %eax,(%eax)
    1212:	00 01                	add    %al,(%ecx)
    1214:	45                   	inc    %ebp
    1215:	01 99 00 00 00 44    	add    %ebx,0x44000000(%ecx)
    121b:	0c 00                	or     $0x0,%al
    121d:	00 20                	add    %ah,(%eax)
    121f:	e1 00                	loope  1221 <_init-0x8047a73>
    1221:	00 00                	add    %al,(%eax)
    1223:	01 47 01             	add    %eax,0x1(%edi)
    1226:	5a                   	pop    %edx
    1227:	00 00                	add    %al,(%eax)
    1229:	00 71 0c             	add    %dh,0xc(%ecx)
    122c:	00 00                	add    %al,(%eax)
    122e:	20 6b 04             	and    %ch,0x4(%ebx)
    1231:	00 00                	add    %al,(%eax)
    1233:	01 48 01             	add    %ecx,0x1(%eax)
    1236:	00 04 00             	add    %al,(%eax,%eax,1)
    1239:	00 b5 0c 00 00 25    	add    %dh,0x2500000c(%ebp)
    123f:	62 75 66             	bound  %esi,0x66(%ebp)
    1242:	00 01                	add    %al,(%ecx)
    1244:	49                   	dec    %ecx
    1245:	01 3e                	add    %edi,(%esi)
    1247:	13 00                	adc    (%eax),%eax
    1249:	00 03                	add    %al,(%ebx)
    124b:	91                   	xchg   %eax,%ecx
    124c:	dc 6f 26             	fsubrl 0x26(%edi)
    124f:	47                   	inc    %edi
    1250:	04 00                	add    $0x0,%al
    1252:	00 01                	add    %al,(%ecx)
    1254:	4c                   	dec    %esp
    1255:	01 4f 13             	add    %ecx,0x13(%edi)
    1258:	00 00                	add    %al,(%eax)
    125a:	03 91 dc 4f 20 5d    	add    0x5d204fdc(%ecx),%edx
    1260:	00 00                	add    %al,(%eax)
    1262:	00 01                	add    %al,(%ecx)
    1264:	4d                   	dec    %ebp
    1265:	01 5a 00             	add    %ebx,0x0(%edx)
    1268:	00 00                	add    %al,(%eax)
    126a:	16                   	push   %ss
    126b:	0d 00 00 20 d8       	or     $0xd8200000,%eax
    1270:	04 00                	add    $0x0,%al
    1272:	00 01                	add    %al,(%ecx)
    1274:	4e                   	dec    %esi
    1275:	01 5a 00             	add    %ebx,0x0(%edx)
    1278:	00 00                	add    %al,(%eax)
    127a:	4c                   	dec    %esp
    127b:	0d 00 00 27 27       	or     $0x27270000,%eax
    1280:	04 00                	add    $0x0,%al
    1282:	00 30                	add    %dh,(%eax)
    1284:	d1 04 08             	roll   (%eax,%ecx,1)
    1287:	58                   	pop    %eax
    1288:	d1 04 08             	roll   (%eax,%ecx,1)
    128b:	01 5a 01             	add    %ebx,0x1(%edx)
    128e:	a5                   	movsl  %ds:(%esi),%es:(%edi)
    128f:	12 00                	adc    (%eax),%al
    1291:	00 1d 45 04 00 00    	add    %bl,0x445
    1297:	90                   	nop
    1298:	0d 00 00 1d 3a       	or     $0x3a1d0000,%eax
    129d:	04 00                	add    $0x0,%al
    129f:	00 a8 0d 00 00 00    	add    %ch,0xd(%eax)
    12a5:	27                   	daa    
    12a6:	27                   	daa    
    12a7:	04 00                	add    $0x0,%al
    12a9:	00 58 d1             	add    %bl,-0x2f(%eax)
    12ac:	04 08                	add    $0x8,%al
    12ae:	82                   	(bad)  
    12af:	d1 04 08             	roll   (%eax,%ecx,1)
    12b2:	01 5d 01             	add    %ebx,0x1(%ebp)
    12b5:	cc                   	int3   
    12b6:	12 00                	adc    (%eax),%al
    12b8:	00 1d 45 04 00 00    	add    %bl,0x445
    12be:	bd 0d 00 00 1d       	mov    $0x1d00000d,%ebp
    12c3:	3a 04 00             	cmp    (%eax,%eax,1),%al
    12c6:	00 d5                	add    %dl,%ch
    12c8:	0d 00 00 00 28       	or     $0x28000000,%eax
    12cd:	58                   	pop    %eax
    12ce:	04 00                	add    $0x0,%al
    12d0:	00 cf                	add    %cl,%bh
    12d2:	d1 04 08             	roll   (%eax,%ecx,1)
    12d5:	18 00                	sbb    %al,(%eax)
    12d7:	00 00                	add    %al,(%eax)
    12d9:	01 69 01             	add    %ebp,0x1(%ecx)
    12dc:	f3 12 00             	repz adc (%eax),%al
    12df:	00 1d 76 04 00 00    	add    %bl,0x476
    12e5:	ea 0d 00 00 1d 6b 04 	ljmp   $0x46b,$0x1d00000d
    12ec:	00 00                	add    %al,(%eax)
    12ee:	02 0e                	add    (%esi),%cl
    12f0:	00 00                	add    %al,(%eax)
    12f2:	00 27                	add    %ah,(%edi)
    12f4:	83 04 00 00          	addl   $0x0,(%eax,%eax,1)
    12f8:	fb                   	sti    
    12f9:	d1 04 08             	roll   (%eax,%ecx,1)
    12fc:	11 d2                	adc    %edx,%edx
    12fe:	04 08                	add    $0x8,%al
    1300:	01 6b 01             	add    %ebp,0x1(%ebx)
    1303:	1a 13                	sbb    (%ebx),%dl
    1305:	00 00                	add    %al,(%eax)
    1307:	1d a1 04 00 00       	sbb    $0x4a1,%eax
    130c:	15 0e 00 00 1d       	adc    $0x1d00000e,%eax
    1311:	96                   	xchg   %eax,%esi
    1312:	04 00                	add    $0x0,%al
    1314:	00 29                	add    %ch,(%ecx)
    1316:	0e                   	push   %cs
    1317:	00 00                	add    %al,(%eax)
    1319:	00 1c 27             	add    %bl,(%edi,%eiz,1)
    131c:	04 00                	add    $0x0,%al
    131e:	00 11                	add    %dl,(%ecx)
    1320:	d2 04 08             	rolb   %cl,(%eax,%ecx,1)
    1323:	31 d2                	xor    %edx,%edx
    1325:	04 08                	add    $0x8,%al
    1327:	01 6c 01 1d          	add    %ebp,0x1d(%ecx,%eax,1)
    132b:	45                   	inc    %ebp
    132c:	04 00                	add    $0x0,%al
    132e:	00 3c 0e             	add    %bh,(%esi,%ecx,1)
    1331:	00 00                	add    %al,(%eax)
    1333:	1d 3a 04 00 00       	sbb    $0x43a,%eax
    1338:	64                   	fs
    1339:	0e                   	push   %cs
    133a:	00 00                	add    %al,(%eax)
    133c:	00 00                	add    %al,(%eax)
    133e:	0c 9f                	or     $0x9f,%al
    1340:	00 00                	add    %al,(%eax)
    1342:	00 4f 13             	add    %cl,0x13(%edi)
    1345:	00 00                	add    %al,(%eax)
    1347:	29 30                	sub    %esi,(%eax)
    1349:	00 00                	add    %al,(%eax)
    134b:	00 ff                	add    %bh,%bh
    134d:	07                   	pop    %es
    134e:	00 0c 00             	add    %cl,(%eax,%eax,1)
    1351:	04 00                	add    $0x0,%al
    1353:	00 60 13             	add    %ah,0x13(%eax)
    1356:	00 00                	add    %al,(%eax)
    1358:	29 30                	sub    %esi,(%eax)
    135a:	00 00                	add    %al,(%eax)
    135c:	00 ff                	add    %bh,%bh
    135e:	03 00                	add    (%eax),%eax
    1360:	2a 01                	sub    (%ecx),%al
    1362:	54                   	push   %esp
    1363:	01 00                	add    %eax,(%eax)
    1365:	00 01                	add    %al,(%ecx)
    1367:	5d                   	pop    %ebp
    1368:	01 00                	add    %eax,(%eax)
    136a:	04 00                	add    $0x0,%al
    136c:	00 8b d2 04 08 e6    	add    %cl,-0x19f7fb2e(%ebx)
    1372:	d2 04 08             	rolb   %cl,(%eax,%ecx,1)
    1375:	86 0e                	xchg   %cl,(%esi)
    1377:	00 00                	add    %al,(%eax)
    1379:	c9                   	leave  
    137a:	13 00                	adc    (%eax),%eax
    137c:	00 2b                	add    %ch,(%ebx)
    137e:	70 03                	jo     1383 <_init-0x8047911>
    1380:	00 00                	add    %al,(%eax)
    1382:	01 5d 00             	add    %ebx,0x0(%ebp)
    1385:	04 00                	add    $0x0,%al
    1387:	00 02                	add    %al,(%edx)
    1389:	91                   	xchg   %eax,%ecx
    138a:	00 2b                	add    %ch,(%ebx)
    138c:	b4 04                	mov    $0x4,%ah
    138e:	00 00                	add    %al,(%eax)
    1390:	01 5d e2             	add    %ebx,-0x1e(%ebp)
    1393:	02 00                	add    (%eax),%al
    1395:	00 02                	add    %al,(%edx)
    1397:	91                   	xchg   %eax,%ecx
    1398:	04 2c                	add    $0x2c,%al
    139a:	6b 04 00 00          	imul   $0x0,(%eax,%eax,1),%eax
    139e:	01 5f 00             	add    %ebx,0x0(%edi)
    13a1:	04 00                	add    $0x0,%al
    13a3:	00 e2                	add    %ah,%dl
    13a5:	0e                   	push   %cs
    13a6:	00 00                	add    %al,(%eax)
    13a8:	1f                   	pop    %ds
    13a9:	b2 d2                	mov    $0xd2,%dl
    13ab:	04 08                	add    $0x8,%al
    13ad:	be d2 04 08 2d       	mov    $0x2d0804d2,%esi
    13b2:	b2 01                	mov    $0x1,%dl
    13b4:	00 00                	add    %al,(%eax)
    13b6:	01 6c 25 00          	add    %ebp,0x0(%ebp,%eiz,1)
    13ba:	00 00                	add    %al,(%eax)
    13bc:	2d 91 02 00 00       	sub    $0x291,%eax
    13c1:	01 6c 25 00          	add    %ebp,0x0(%ebp,%eiz,1)
    13c5:	00 00                	add    %al,(%eax)
    13c7:	00 00                	add    %al,(%eax)
    13c9:	2a 01                	sub    (%ecx),%al
    13cb:	c4 01                	les    (%ecx),%eax
    13cd:	00 00                	add    %al,(%eax)
    13cf:	01 75 01             	add    %esi,0x1(%ebp)
    13d2:	5a                   	pop    %edx
    13d3:	00 00                	add    %al,(%eax)
    13d5:	00 e6                	add    %ah,%dh
    13d7:	d2 04 08             	rolb   %cl,(%eax,%ecx,1)
    13da:	2e d3 04 08          	roll   %cl,%cs:(%eax,%ecx,1)
    13de:	0d 0f 00 00 21       	or     $0x2100000f,%eax
    13e3:	14 00                	adc    $0x0,%al
    13e5:	00 2b                	add    %ch,(%ebx)
    13e7:	70 03                	jo     13ec <_init-0x80478a8>
    13e9:	00 00                	add    %al,(%eax)
    13eb:	01 75 00             	add    %esi,0x0(%ebp)
    13ee:	04 00                	add    $0x0,%al
    13f0:	00 02                	add    %al,(%edx)
    13f2:	91                   	xchg   %eax,%ecx
    13f3:	00 2b                	add    %ch,(%ebx)
    13f5:	b4 04                	mov    $0x4,%ah
    13f7:	00 00                	add    %al,(%eax)
    13f9:	01 75 e2             	add    %esi,-0x1e(%ebp)
    13fc:	02 00                	add    (%eax),%al
    13fe:	00 02                	add    %al,(%edx)
    1400:	91                   	xchg   %eax,%ecx
    1401:	04 2e                	add    $0x2e,%al
    1403:	64                   	fs
    1404:	05 00 00 01 75       	add    $0x75010000,%eax
    1409:	e2 02                	loop   140d <_init-0x8047887>
    140b:	00 00                	add    %al,(%eax)
    140d:	51                   	push   %ecx
    140e:	0f 00 00             	sldt   (%eax)
    1411:	2c 6b                	sub    $0x6b,%al
    1413:	04 00                	add    $0x0,%al
    1415:	00 01                	add    %al,(%ecx)
    1417:	77 00                	ja     1419 <_init-0x804787b>
    1419:	04 00                	add    $0x0,%al
    141b:	00 7c 0f 00          	add    %bh,0x0(%edi,%ecx,1)
    141f:	00 00                	add    %al,(%eax)
    1421:	2a 01                	sub    (%ecx),%al
    1423:	78 03                	js     1428 <_init-0x804786c>
    1425:	00 00                	add    %al,(%eax)
    1427:	01 87 01 5a 00 00    	add    %eax,0x5a01(%edi)
    142d:	00 2e                	add    %ch,(%esi)
    142f:	d3 04 08             	roll   %cl,(%eax,%ecx,1)
    1432:	8e d3                	mov    %ebx,%ss
    1434:	04 08                	add    $0x8,%al
    1436:	9a 0f 00 00 78 14 00 	lcall  $0x14,$0x7800000f
    143d:	00 2b                	add    %ch,(%ebx)
    143f:	70 03                	jo     1444 <_init-0x8047850>
    1441:	00 00                	add    %al,(%eax)
    1443:	01 87 00 04 00 00    	add    %eax,0x400(%edi)
    1449:	02 91 00 2b b4 04    	add    0x4b42b00(%ecx),%dl
    144f:	00 00                	add    %al,(%eax)
    1451:	01 87 e2 02 00 00    	add    %eax,0x2e2(%edi)
    1457:	02 91 04 2b 64 05    	add    0x5642b04(%ecx),%dl
    145d:	00 00                	add    %al,(%eax)
    145f:	01 87 99 00 00 00    	add    %eax,0x99(%edi)
    1465:	02 91 08 2c 6b 04    	add    0x46b2c08(%ecx),%dl
    146b:	00 00                	add    %al,(%eax)
    146d:	01 89 00 04 00 00    	add    %ecx,0x400(%ecx)
    1473:	de 0f                	fimul  (%edi)
    1475:	00 00                	add    %al,(%eax)
    1477:	00 2a                	add    %ch,(%edx)
    1479:	01 27                	add    %esp,(%edi)
    147b:	02 00                	add    (%eax),%al
    147d:	00 01                	add    %al,(%ecx)
    147f:	9c                   	pushf  
    1480:	01 5a 00             	add    %ebx,0x0(%edx)
    1483:	00 00                	add    %al,(%eax)
    1485:	8e d3                	mov    %ebx,%ss
    1487:	04 08                	add    $0x8,%al
    1489:	f4                   	hlt    
    148a:	d7                   	xlat   %ds:(%ebx)
    148b:	04 08                	add    $0x8,%al
    148d:	fc                   	cld    
    148e:	0f 00 00             	sldt   (%eax)
    1491:	55                   	push   %ebp
    1492:	17                   	pop    %ss
    1493:	00 00                	add    %al,(%eax)
    1495:	2b 9e 01 00 00 01    	sub    0x1000001(%esi),%ebx
    149b:	9c                   	pushf  
    149c:	e2 02                	loop   14a0 <_init-0x80477f4>
    149e:	00 00                	add    %al,(%eax)
    14a0:	02 91 00 2b 89 03    	add    0x3892b00(%ecx),%dl
    14a6:	00 00                	add    %al,(%eax)
    14a8:	01 9c 00 04 00 00 02 	add    %ebx,0x2000004(%eax,%eax,1)
    14af:	91                   	xchg   %eax,%ecx
    14b0:	04 2f                	add    $0x2f,%al
    14b2:	66                   	data16
    14b3:	00 01                	add    %al,(%ecx)
    14b5:	9e                   	sahf   
    14b6:	52                   	push   %edx
    14b7:	04 00                	add    $0x0,%al
    14b9:	00 89 10 00 00 30    	add    %cl,0x30000010(%ecx)
    14bf:	62 75 66             	bound  %esi,0x66(%ebp)
    14c2:	00 01                	add    %al,(%ecx)
    14c4:	9f                   	lahf   
    14c5:	55                   	push   %ebp
    14c6:	17                   	pop    %ss
    14c7:	00 00                	add    %al,(%eax)
    14c9:	03 91 dc 6f 31 b4    	add    -0x4bce9024(%ecx),%edx
    14cf:	04 00                	add    $0x0,%al
    14d1:	00 01                	add    %al,(%ecx)
    14d3:	a0 66 17 00 00       	mov    0x1766,%al
    14d8:	03 91 dc 77 31 64    	add    0x643177dc(%ecx),%edx
    14de:	05 00 00 01 a1       	add    $0xa1010000,%eax
    14e3:	66 17                	popw   %ss
    14e5:	00 00                	add    %al,(%eax)
    14e7:	03 91 dc 7b 2c e1    	add    -0x1ed38424(%ecx),%edx
    14ed:	00 00                	add    %al,(%eax)
    14ef:	00 01                	add    %al,(%ecx)
    14f1:	a2 5a 00 00 00       	mov    %al,0x5a
    14f6:	a9 10 00 00 2f       	test   $0x2f000010,%eax
    14fb:	63 70 00             	arpl   %si,0x0(%eax)
    14fe:	01 a3 99 00 00 00    	add    %esp,0x99(%ebx)
    1504:	be 10 00 00 2f       	mov    $0x2f000010,%esi
    1509:	65                   	gs
    150a:	70 00                	jo     150c <_init-0x8047788>
    150c:	01 a4 99 00 00 00 48 	add    %esp,0x48000000(%ecx,%ebx,4)
    1513:	11 00                	adc    %eax,(%eax)
    1515:	00 2f                	add    %ch,(%edi)
    1517:	61                   	popa   
    1518:	70 00                	jo     151a <_init-0x804777a>
    151a:	01 a5 99 00 00 00    	add    %esp,0x99(%ebp)
    1520:	66 11 00             	adc    %ax,(%eax)
    1523:	00 2c ad 04 00 00 01 	add    %ch,0x1000004(,%ebp,4)
    152a:	a6                   	cmpsb  %es:(%edi),%ds:(%esi)
    152b:	5a                   	pop    %edx
    152c:	00 00                	add    %al,(%eax)
    152e:	00 79 11             	add    %bh,0x11(%ecx)
    1531:	00 00                	add    %al,(%eax)
    1533:	2c 70                	sub    $0x70,%al
    1535:	03 00                	add    (%eax),%eax
    1537:	00 01                	add    %al,(%ecx)
    1539:	a7                   	cmpsl  %es:(%edi),%ds:(%esi)
    153a:	00 04 00             	add    %al,(%eax,%eax,1)
    153d:	00 8e 11 00 00 2c    	add    %cl,0x2c000011(%esi)
    1543:	6b 04 00 00          	imul   $0x0,(%eax,%eax,1),%eax
    1547:	01 a8 00 04 00 00    	add    %ebp,0x400(%eax)
    154d:	bb 11 00 00 2c       	mov    $0x2c000011,%ebx
    1552:	da 00                	fiaddl (%eax)
    1554:	00 00                	add    %al,(%eax)
    1556:	01 a9 5a 00 00 00    	add    %ebp,0x5a(%ecx)
    155c:	ef                   	out    %eax,(%dx)
    155d:	11 00                	adc    %eax,(%eax)
    155f:	00 32                	add    %dh,(%edx)
    1561:	07                   	pop    %es
    1562:	d4 04                	aam    $0x4
    1564:	08 32                	or     %dh,(%edx)
    1566:	d4 04                	aam    $0x4
    1568:	08 7d 15             	or     %bh,0x15(%ebp)
    156b:	00 00                	add    %al,(%eax)
    156d:	2f                   	das    
    156e:	5f                   	pop    %edi
    156f:	63 70 00             	arpl   %si,0x0(%eax)
    1572:	01 cd                	add    %ecx,%ebp
    1574:	99                   	cltd   
    1575:	00 00                	add    %al,(%eax)
    1577:	00 67 12             	add    %ah,0x12(%edi)
    157a:	00 00                	add    %al,(%eax)
    157c:	00 32                	add    %dh,(%edx)
    157e:	32 d4                	xor    %ah,%dl
    1580:	04 08                	add    $0x8,%al
    1582:	69 d4 04 08 9a 15    	imul   $0x159a0804,%esp,%edx
    1588:	00 00                	add    %al,(%eax)
    158a:	2f                   	das    
    158b:	5f                   	pop    %edi
    158c:	63 70 00             	arpl   %si,0x0(%eax)
    158f:	01 ce                	add    %ecx,%esi
    1591:	99                   	cltd   
    1592:	00 00                	add    %al,(%eax)
    1594:	00 88 12 00 00 00    	add    %cl,0x12(%eax)
    159a:	32 96 d4 04 08 c0    	xor    -0x3ff7fb2c(%esi),%dl
    15a0:	d4 04                	aam    $0x4
    15a2:	08 b7 15 00 00 2f    	or     %dh,0x2f000015(%edi)
    15a8:	5f                   	pop    %edi
    15a9:	63 70 00             	arpl   %si,0x0(%eax)
    15ac:	01 da                	add    %ebx,%edx
    15ae:	99                   	cltd   
    15af:	00 00                	add    %al,(%eax)
    15b1:	00 a8 12 00 00 00    	add    %ch,0x12(%eax)
    15b7:	33 30                	xor    (%eax),%esi
    15b9:	00 00                	add    %al,(%eax)
    15bb:	00 d0                	add    %dl,%al
    15bd:	15 00 00 2f 5f       	adc    $0x5f2f0000,%eax
    15c2:	63 70 00             	arpl   %si,0x0(%eax)
    15c5:	01 e3                	add    %esp,%ebx
    15c7:	99                   	cltd   
    15c8:	00 00                	add    %al,(%eax)
    15ca:	00 d5                	add    %dl,%ch
    15cc:	12 00                	adc    (%eax),%al
    15ce:	00 00                	add    %al,(%eax)
    15d0:	34 27                	xor    $0x27,%al
    15d2:	04 00                	add    $0x0,%al
    15d4:	00 01                	add    %al,(%ecx)
    15d6:	d5 04                	aad    $0x4
    15d8:	08 2e                	or     %ch,(%esi)
    15da:	d5 04                	aad    $0x4
    15dc:	08 01                	or     %al,(%ecx)
    15de:	df f2                	fcomip %st(2),%st
    15e0:	15 00 00 1d 45       	adc    $0x451d0000,%eax
    15e5:	04 00                	add    $0x0,%al
    15e7:	00 00                	add    %al,(%eax)
    15e9:	13 00                	adc    (%eax),%eax
    15eb:	00 35 3a 04 00 00    	add    %dh,0x43a
    15f1:	00 34 27             	add    %dh,(%edi,%eiz,1)
    15f4:	04 00                	add    $0x0,%al
    15f6:	00 66 d5             	add    %ah,-0x2b(%esi)
    15f9:	04 08                	add    $0x8,%al
    15fb:	97                   	xchg   %eax,%edi
    15fc:	d5 04                	aad    $0x4
    15fe:	08 01                	or     %al,(%ecx)
    1600:	e9 14 16 00 00       	jmp    2c19 <_init-0x804607b>
    1605:	1d 45 04 00 00       	sbb    $0x445,%eax
    160a:	18 13                	sbb    %dl,(%ebx)
    160c:	00 00                	add    %al,(%eax)
    160e:	35 3a 04 00 00       	xor    $0x43a,%eax
    1613:	00 34 27             	add    %dh,(%edi,%eiz,1)
    1616:	04 00                	add    $0x0,%al
    1618:	00 ad d5 04 08 de    	add    %ch,-0x21f7fb2b(%ebp)
    161e:	d5 04                	aad    $0x4
    1620:	08 01                	or     %al,(%ecx)
    1622:	ef                   	out    %eax,(%dx)
    1623:	36                   	ss
    1624:	16                   	push   %ss
    1625:	00 00                	add    %al,(%eax)
    1627:	1d 45 04 00 00       	sbb    $0x445,%eax
    162c:	30 13                	xor    %dl,(%ebx)
    162e:	00 00                	add    %al,(%eax)
    1630:	35 3a 04 00 00       	xor    $0x43a,%eax
    1635:	00 27                	add    %ah,(%edi)
    1637:	27                   	daa    
    1638:	04 00                	add    $0x0,%al
    163a:	00 22                	add    %ah,(%edx)
    163c:	d6                   	(bad)  
    163d:	04 08                	add    $0x8,%al
    163f:	4f                   	dec    %edi
    1640:	d6                   	(bad)  
    1641:	04 08                	add    $0x8,%al
    1643:	01 06                	add    %eax,(%esi)
    1645:	01 59 16             	add    %ebx,0x16(%ecx)
    1648:	00 00                	add    %al,(%eax)
    164a:	1d 45 04 00 00       	sbb    $0x445,%eax
    164f:	48                   	dec    %eax
    1650:	13 00                	adc    (%eax),%eax
    1652:	00 35 3a 04 00 00    	add    %dh,0x43a
    1658:	00 32                	add    %dh,(%edx)
    165a:	5b                   	pop    %ebx
    165b:	d6                   	(bad)  
    165c:	04 08                	add    $0x8,%al
    165e:	82                   	(bad)  
    165f:	d6                   	(bad)  
    1660:	04 08                	add    $0x8,%al
    1662:	77 16                	ja     167a <_init-0x804761a>
    1664:	00 00                	add    %al,(%eax)
    1666:	1e                   	push   %ds
    1667:	5f                   	pop    %edi
    1668:	63 70 00             	arpl   %si,0x0(%eax)
    166b:	01 16                	add    %edx,(%esi)
    166d:	01 99 00 00 00 60    	add    %ebx,0x60000000(%ecx)
    1673:	13 00                	adc    (%eax),%eax
    1675:	00 00                	add    %al,(%eax)
    1677:	27                   	daa    
    1678:	83 04 00 00          	addl   $0x0,(%eax,%eax,1)
    167c:	82                   	(bad)  
    167d:	d6                   	(bad)  
    167e:	04 08                	add    $0x8,%al
    1680:	9d                   	popf   
    1681:	d6                   	(bad)  
    1682:	04 08                	add    $0x8,%al
    1684:	01 1a                	add    %ebx,(%edx)
    1686:	01 9e 16 00 00 1d    	add    %ebx,0x1d000016(%esi)
    168c:	a1 04 00 00 66       	mov    0x66000004,%eax
    1691:	11 00                	adc    %eax,(%eax)
    1693:	00 1d 96 04 00 00    	add    %bl,0x496
    1699:	89 13                	mov    %edx,(%ebx)
    169b:	00 00                	add    %al,(%eax)
    169d:	00 32                	add    %dh,(%edx)
    169f:	9d                   	popf   
    16a0:	d6                   	(bad)  
    16a1:	04 08                	add    $0x8,%al
    16a3:	da d6                	fcmovbe %st(6),%st
    16a5:	04 08                	add    $0x8,%al
    16a7:	bc 16 00 00 1e       	mov    $0x1e000016,%esp
    16ac:	5f                   	pop    %edi
    16ad:	63 70 00             	arpl   %si,0x0(%eax)
    16b0:	01 1f                	add    %ebx,(%edi)
    16b2:	01 99 00 00 00 9f    	add    %ebx,-0x61000000(%ecx)
    16b8:	13 00                	adc    (%eax),%eax
    16ba:	00 00                	add    %al,(%eax)
    16bc:	27                   	daa    
    16bd:	83 04 00 00          	addl   $0x0,(%eax,%eax,1)
    16c1:	da d6                	fcmovbe %st(6),%st
    16c3:	04 08                	add    $0x8,%al
    16c5:	f5                   	cmc    
    16c6:	d6                   	(bad)  
    16c7:	04 08                	add    $0x8,%al
    16c9:	01 20                	add    %esp,(%eax)
    16cb:	01 e3                	add    %esp,%ebx
    16cd:	16                   	push   %ss
    16ce:	00 00                	add    %al,(%eax)
    16d0:	1d a1 04 00 00       	sbb    $0x4a1,%eax
    16d5:	bf 13 00 00 1d       	mov    $0x1d000013,%edi
    16da:	96                   	xchg   %eax,%esi
    16db:	04 00                	add    $0x0,%al
    16dd:	00 d2                	add    %dl,%dl
    16df:	13 00                	adc    (%eax),%eax
    16e1:	00 00                	add    %al,(%eax)
    16e3:	27                   	daa    
    16e4:	27                   	daa    
    16e5:	04 00                	add    $0x0,%al
    16e7:	00 10                	add    %dl,(%eax)
    16e9:	d7                   	xlat   %ds:(%ebx)
    16ea:	04 08                	add    $0x8,%al
    16ec:	48                   	dec    %eax
    16ed:	d7                   	xlat   %ds:(%ebx)
    16ee:	04 08                	add    $0x8,%al
    16f0:	01 2b                	add    %ebp,(%ebx)
    16f2:	01 06                	add    %eax,(%esi)
    16f4:	17                   	pop    %ss
    16f5:	00 00                	add    %al,(%eax)
    16f7:	1d 45 04 00 00       	sbb    $0x445,%eax
    16fc:	e8 13 00 00 35       	call   35001714 <_end+0x2cfb01d0>
    1701:	3a 04 00             	cmp    (%eax,%eax,1),%al
    1704:	00 00                	add    %al,(%eax)
    1706:	27                   	daa    
    1707:	27                   	daa    
    1708:	04 00                	add    $0x0,%al
    170a:	00 69 d7             	add    %ch,-0x29(%ecx)
    170d:	04 08                	add    $0x8,%al
    170f:	96                   	xchg   %eax,%esi
    1710:	d7                   	xlat   %ds:(%ebx)
    1711:	04 08                	add    $0x8,%al
    1713:	01 37                	add    %esi,(%edi)
    1715:	01 29                	add    %ebp,(%ecx)
    1717:	17                   	pop    %ss
    1718:	00 00                	add    %al,(%eax)
    171a:	1d 45 04 00 00       	sbb    $0x445,%eax
    171f:	00 14 00             	add    %dl,(%eax,%eax,1)
    1722:	00 35 3a 04 00 00    	add    %dh,0x43a
    1728:	00 36                	add    %dh,(%esi)
    172a:	e2 04                	loop   1730 <_init-0x8047564>
    172c:	00 00                	add    %al,(%eax)
    172e:	96                   	xchg   %eax,%esi
    172f:	d7                   	xlat   %ds:(%ebx)
    1730:	04 08                	add    $0x8,%al
    1732:	b2 d7                	mov    $0xd7,%dl
    1734:	04 08                	add    $0x8,%al
    1736:	01 c1                	add    %eax,%ecx
    1738:	1d 0b 05 00 00       	sbb    $0x50b,%eax
    173d:	18 14 00             	sbb    %dl,(%eax,%eax,1)
    1740:	00 1d 00 05 00 00    	add    %bl,0x500
    1746:	2d 14 00 00 1d       	sub    $0x1d000014,%eax
    174b:	f5                   	cmc    
    174c:	04 00                	add    $0x0,%al
    174e:	00 43 14             	add    %al,0x14(%ebx)
    1751:	00 00                	add    %al,(%eax)
    1753:	00 00                	add    %al,(%eax)
    1755:	0c 9f                	or     $0x9f,%al
    1757:	00 00                	add    %al,(%eax)
    1759:	00 66 17             	add    %ah,0x17(%esi)
    175c:	00 00                	add    %al,(%eax)
    175e:	29 30                	sub    %esi,(%eax)
    1760:	00 00                	add    %al,(%eax)
    1762:	00 ff                	add    %bh,%bh
    1764:	03 00                	add    (%eax),%eax
    1766:	0c 9f                	or     $0x9f,%al
    1768:	00 00                	add    %al,(%eax)
    176a:	00 77 17             	add    %dh,0x17(%edi)
    176d:	00 00                	add    %al,(%eax)
    176f:	29 30                	sub    %esi,(%eax)
    1771:	00 00                	add    %al,(%eax)
    1773:	00 ff                	add    %bh,%bh
    1775:	01 00                	add    %eax,(%eax)
    1777:	1b 01                	sbb    (%ecx),%eax
    1779:	85 04 00             	test   %eax,(%eax,%eax,1)
    177c:	00 01                	add    %al,(%ecx)
    177e:	73 01                	jae    1781 <_init-0x8047513>
    1780:	01 5a 00             	add    %ebx,0x0(%edx)
    1783:	00 00                	add    %al,(%eax)
    1785:	f4                   	hlt    
    1786:	d7                   	xlat   %ds:(%ebx)
    1787:	04 08                	add    $0x8,%al
    1789:	46                   	inc    %esi
    178a:	d8 04 08             	fadds  (%eax,%ecx,1)
    178d:	72 14                	jb     17a3 <_init-0x80474f1>
    178f:	00 00                	add    %al,(%eax)
    1791:	d2 17                	rclb   %cl,(%edi)
    1793:	00 00                	add    %al,(%eax)
    1795:	37                   	aaa    
    1796:	9e                   	sahf   
    1797:	01 00                	add    %eax,(%eax)
    1799:	00 01                	add    %al,(%ecx)
    179b:	73 01                	jae    179e <_init-0x80474f6>
    179d:	e2 02                	loop   17a1 <_init-0x80474f3>
    179f:	00 00                	add    %al,(%eax)
    17a1:	02 91 00 37 89 03    	add    0x3893700(%ecx),%dl
    17a7:	00 00                	add    %al,(%eax)
    17a9:	01 73 01             	add    %esi,0x1(%ebx)
    17ac:	00 04 00             	add    %al,(%eax,%eax,1)
    17af:	00 02                	add    %al,(%edx)
    17b1:	91                   	xchg   %eax,%ecx
    17b2:	04 1e                	add    $0x1e,%al
    17b4:	66                   	data16
    17b5:	00 01                	add    %al,(%ecx)
    17b7:	75 01                	jne    17ba <_init-0x80474da>
    17b9:	52                   	push   %edx
    17ba:	04 00                	add    $0x0,%al
    17bc:	00 9e 14 00 00 20    	add    %bl,0x20000014(%esi)
    17c2:	e1 00                	loope  17c4 <_init-0x80474d0>
    17c4:	00 00                	add    %al,(%eax)
    17c6:	01 76 01             	add    %esi,0x1(%esi)
    17c9:	5a                   	pop    %edx
    17ca:	00 00                	add    %al,(%eax)
    17cc:	00 bc 14 00 00 00 1b 	add    %bh,0x1b000000(%esp,%edx,1)
    17d3:	01 15 00 00 00 01    	add    %edx,0x1000000
    17d9:	83 01 01             	addl   $0x1,(%ecx)
    17dc:	5a                   	pop    %edx
    17dd:	00 00                	add    %al,(%eax)
    17df:	00 46 d8             	add    %al,-0x28(%esi)
    17e2:	04 08                	add    $0x8,%al
    17e4:	60                   	pusha  
    17e5:	d8 04 08             	fadds  (%eax,%ecx,1)
    17e8:	da 14 00             	ficoml (%eax,%eax,1)
    17eb:	00 00                	add    %al,(%eax)
    17ed:	18 00                	sbb    %al,(%eax)
    17ef:	00 37                	add    %dh,(%edi)
    17f1:	89 03                	mov    %eax,(%ebx)
    17f3:	00 00                	add    %al,(%eax)
    17f5:	01 83 01 00 04 00    	add    %eax,0x40001(%ebx)
    17fb:	00 02                	add    %al,(%edx)
    17fd:	91                   	xchg   %eax,%ecx
    17fe:	00 00                	add    %al,(%eax)
    1800:	18 01                	sbb    %al,(%ecx)
    1802:	b1 02                	mov    $0x2,%cl
    1804:	00 00                	add    %al,(%eax)
    1806:	01 4a 03             	add    %ecx,0x3(%edx)
    1809:	01 5a 00             	add    %ebx,0x0(%edx)
    180c:	00 00                	add    %al,(%eax)
    180e:	60                   	pusha  
    180f:	d8 04 08             	fadds  (%eax,%ecx,1)
    1812:	66                   	data16
    1813:	d8 04 08             	fadds  (%eax,%ecx,1)
    1816:	02 74 04 37          	add    0x37(%esp,%eax,1),%dh
    181a:	18 00                	sbb    %al,(%eax)
    181c:	00 19                	add    %bl,(%ecx)
    181e:	76 61                	jbe    1881 <_init-0x8047413>
    1820:	72 00                	jb     1822 <_init-0x8047472>
    1822:	01 4a 03             	add    %ecx,0x3(%edx)
    1825:	00 04 00             	add    %al,(%eax,%eax,1)
    1828:	00 02                	add    %al,(%edx)
    182a:	91                   	xchg   %eax,%ecx
    182b:	00 1a                	add    %bl,(%edx)
    182d:	73 00                	jae    182f <_init-0x8047465>
    182f:	01 4a 03             	add    %ecx,0x3(%edx)
    1832:	99                   	cltd   
    1833:	00 00                	add    %al,(%eax)
    1835:	00 00                	add    %al,(%eax)
    1837:	1b 01                	sbb    (%ecx),%eax
    1839:	27                   	daa    
    183a:	01 00                	add    %eax,(%eax)
    183c:	00 01                	add    %al,(%ecx)
    183e:	51                   	push   %ecx
    183f:	03 01                	add    (%ecx),%eax
    1841:	5a                   	pop    %edx
    1842:	00 00                	add    %al,(%eax)
    1844:	00 66 d8             	add    %ah,-0x28(%esi)
    1847:	04 08                	add    $0x8,%al
    1849:	8d                   	(bad)  
    184a:	d8 04 08             	fadds  (%eax,%ecx,1)
    184d:	06                   	push   %es
    184e:	15 00 00 72 18       	adc    $0x18720000,%eax
    1853:	00 00                	add    %al,(%eax)
    1855:	19 76 61             	sbb    %esi,0x61(%esi)
    1858:	72 00                	jb     185a <_init-0x804743a>
    185a:	01 51 03             	add    %edx,0x3(%ecx)
    185d:	00 04 00             	add    %al,(%eax,%eax,1)
    1860:	00 02                	add    %al,(%edx)
    1862:	91                   	xchg   %eax,%ecx
    1863:	00 19                	add    %bl,(%ecx)
    1865:	73 00                	jae    1867 <_init-0x804742d>
    1867:	01 51 03             	add    %edx,0x3(%ecx)
    186a:	e2 02                	loop   186e <_init-0x8047426>
    186c:	00 00                	add    %al,(%eax)
    186e:	02 91 04 00 18 01    	add    0x1180004(%ecx),%dl
    1874:	cd 04                	int    $0x4
    1876:	00 00                	add    %al,(%eax)
    1878:	01 5a 03             	add    %ebx,0x3(%edx)
    187b:	01 5a 00             	add    %ebx,0x0(%edx)
    187e:	00 00                	add    %al,(%eax)
    1880:	8d                   	(bad)  
    1881:	d8 04 08             	fadds  (%eax,%ecx,1)
    1884:	93                   	xchg   %eax,%ebx
    1885:	d8 04 08             	fadds  (%eax,%ecx,1)
    1888:	02 74 04 a9          	add    -0x57(%esp,%eax,1),%dh
    188c:	18 00                	sbb    %al,(%eax)
    188e:	00 19                	add    %bl,(%ecx)
    1890:	76 61                	jbe    18f3 <_init-0x80473a1>
    1892:	72 00                	jb     1894 <_init-0x8047400>
    1894:	01 5a 03             	add    %ebx,0x3(%edx)
    1897:	00 04 00             	add    %al,(%eax,%eax,1)
    189a:	00 02                	add    %al,(%edx)
    189c:	91                   	xchg   %eax,%ecx
    189d:	00 1a                	add    %bl,(%edx)
    189f:	73 00                	jae    18a1 <_init-0x80473f3>
    18a1:	01 5a 03             	add    %ebx,0x3(%edx)
    18a4:	99                   	cltd   
    18a5:	00 00                	add    %al,(%eax)
    18a7:	00 00                	add    %al,(%eax)
    18a9:	1b 01                	sbb    (%ecx),%eax
    18ab:	45                   	inc    %ebp
    18ac:	03 00                	add    (%eax),%eax
    18ae:	00 01                	add    %al,(%ecx)
    18b0:	61                   	popa   
    18b1:	03 01                	add    (%ecx),%eax
    18b3:	5a                   	pop    %edx
    18b4:	00 00                	add    %al,(%eax)
    18b6:	00 93 d8 04 08 ba    	add    %dl,-0x45f7fb28(%ebx)
    18bc:	d8 04 08             	fadds  (%eax,%ecx,1)
    18bf:	4a                   	dec    %edx
    18c0:	15 00 00 e4 18       	adc    $0x18e40000,%eax
    18c5:	00 00                	add    %al,(%eax)
    18c7:	19 76 61             	sbb    %esi,0x61(%esi)
    18ca:	72 00                	jb     18cc <_init-0x80473c8>
    18cc:	01 61 03             	add    %esp,0x3(%ecx)
    18cf:	00 04 00             	add    %al,(%eax,%eax,1)
    18d2:	00 02                	add    %al,(%edx)
    18d4:	91                   	xchg   %eax,%ecx
    18d5:	00 19                	add    %bl,(%ecx)
    18d7:	73 00                	jae    18d9 <_init-0x80473bb>
    18d9:	01 61 03             	add    %esp,0x3(%ecx)
    18dc:	e2 02                	loop   18e0 <_init-0x80473b4>
    18de:	00 00                	add    %al,(%eax)
    18e0:	02 91 04 00 0c 9f    	add    -0x60f3fffc(%ecx),%dl
    18e6:	00 00                	add    %al,(%eax)
    18e8:	00 f4                	add    %dh,%ah
    18ea:	18 00                	sbb    %al,(%eax)
    18ec:	00 0d 30 00 00 00    	add    %cl,0x30
    18f2:	04 00                	add    $0x0,%al
    18f4:	31 c1                	xor    %eax,%ecx
    18f6:	03 00                	add    (%eax),%eax
    18f8:	00 01                	add    %al,(%ecx)
    18fa:	30 05 19 00 00 05    	xor    %al,0x5000019
    1900:	03 d4                	add    %esp,%edx
    1902:	e1 04                	loope  1908 <_init-0x804738c>
    1904:	08 0e                	or     %cl,(%esi)
    1906:	e4 18                	in     $0x18,%al
    1908:	00 00                	add    %al,(%eax)
    190a:	38 92 01 00 00 06    	cmp    %dl,0x6000001(%edx)
    1910:	a9 b6 02 00 00       	test   $0x2b6,%eax
    1915:	01 01                	add    %eax,(%ecx)
    1917:	38 f8                	cmp    %bh,%al
    1919:	04 00                	add    $0x0,%al
    191b:	00 06                	add    %al,(%esi)
    191d:	aa                   	stos   %al,%es:(%edi)
    191e:	b6 02                	mov    $0x2,%dh
    1920:	00 00                	add    %al,(%eax)
    1922:	01 01                	add    %eax,(%ecx)
    1924:	38 20                	cmp    %ah,(%eax)
    1926:	02 00                	add    (%eax),%al
    1928:	00 06                	add    %al,(%esi)
    192a:	ab                   	stos   %eax,%es:(%edi)
    192b:	b6 02                	mov    $0x2,%dh
    192d:	00 00                	add    %al,(%eax)
    192f:	01 01                	add    %eax,(%ecx)
    1931:	0c a0                	or     $0xa0,%al
    1933:	03 00                	add    (%eax),%eax
    1935:	00 41 19             	add    %al,0x19(%ecx)
    1938:	00 00                	add    %al,(%eax)
    193a:	0d 30 00 00 00       	or     $0x30,%eax
    193f:	19 00                	sbb    %eax,(%eax)
    1941:	39 86 00 00 00 01    	cmp    %eax,0x1000000(%esi)
    1947:	3e 31 19             	xor    %ebx,%ds:(%ecx)
    194a:	00 00                	add    %al,(%eax)
    194c:	01 05 03 a0 11 05    	add    %eax,0x511a003
    1952:	08 00                	or     %al,(%eax)

Disassembly of section .debug_abbrev:

00000000 <.debug_abbrev>:
   0:	01 11                	add    %edx,(%ecx)
   2:	01 25 0e 13 0b 03    	add    %esp,0x30b130e
   8:	0e                   	push   %cs
   9:	1b 0e                	sbb    (%esi),%ecx
   b:	11 01                	adc    %eax,(%ecx)
   d:	12 01                	adc    (%ecx),%al
   f:	10 06                	adc    %al,(%esi)
  11:	00 00                	add    %al,(%eax)
  13:	02 16                	add    (%esi),%dl
  15:	00 03                	add    %al,(%ebx)
  17:	0e                   	push   %cs
  18:	3a 0b                	cmp    (%ebx),%cl
  1a:	3b 0b                	cmp    (%ebx),%ecx
  1c:	49                   	dec    %ecx
  1d:	13 00                	adc    (%eax),%eax
  1f:	00 03                	add    %al,(%ebx)
  21:	24 00                	and    $0x0,%al
  23:	0b 0b                	or     (%ebx),%ecx
  25:	3e 0b 03             	or     %ds:(%ebx),%eax
  28:	0e                   	push   %cs
  29:	00 00                	add    %al,(%eax)
  2b:	04 24                	add    $0x24,%al
  2d:	00 0b                	add    %cl,(%ebx)
  2f:	0b 3e                	or     (%esi),%edi
  31:	0b 03                	or     (%ebx),%eax
  33:	08 00                	or     %al,(%eax)
  35:	00 05 0f 00 0b 0b    	add    %al,0xb0b000f
  3b:	00 00                	add    %al,(%eax)
  3d:	06                   	push   %es
  3e:	0f 00 0b             	str    (%ebx)
  41:	0b 49 13             	or     0x13(%ecx),%ecx
  44:	00 00                	add    %al,(%eax)
  46:	07                   	pop    %es
  47:	13 01                	adc    (%ecx),%eax
  49:	03 0e                	add    (%esi),%ecx
  4b:	0b 0b                	or     (%ebx),%ecx
  4d:	3a 0b                	cmp    (%ebx),%cl
  4f:	3b 05 01 13 00 00    	cmp    0x1301,%eax
  55:	08 0d 00 03 0e 3a    	or     %cl,0x3a0e0300
  5b:	0b 3b                	or     (%ebx),%edi
  5d:	05 49 13 38 0a       	add    $0xa381349,%eax
  62:	00 00                	add    %al,(%eax)
  64:	09 16                	or     %edx,(%esi)
  66:	00 03                	add    %al,(%ebx)
  68:	0e                   	push   %cs
  69:	3a 0b                	cmp    (%ebx),%cl
  6b:	3b 0b                	cmp    (%ebx),%ecx
  6d:	00 00                	add    %al,(%eax)
  6f:	0a 13                	or     (%ebx),%dl
  71:	01 03                	add    %eax,(%ebx)
  73:	0e                   	push   %cs
  74:	0b 0b                	or     (%ebx),%ecx
  76:	3a 0b                	cmp    (%ebx),%cl
  78:	3b 0b                	cmp    (%ebx),%ecx
  7a:	01 13                	add    %edx,(%ebx)
  7c:	00 00                	add    %al,(%eax)
  7e:	0b 0d 00 03 0e 3a    	or     0x3a0e0300,%ecx
  84:	0b 3b                	or     (%ebx),%edi
  86:	0b 49 13             	or     0x13(%ecx),%ecx
  89:	38 0a                	cmp    %cl,(%edx)
  8b:	00 00                	add    %al,(%eax)
  8d:	0c 01                	or     $0x1,%al
  8f:	01 49 13             	add    %ecx,0x13(%ecx)
  92:	01 13                	add    %edx,(%ebx)
  94:	00 00                	add    %al,(%eax)
  96:	0d 21 00 49 13       	or     $0x13490021,%eax
  9b:	2f                   	das    
  9c:	0b 00                	or     (%eax),%eax
  9e:	00 0e                	add    %cl,(%esi)
  a0:	26 00 49 13          	add    %cl,%es:0x13(%ecx)
  a4:	00 00                	add    %al,(%eax)
  a6:	0f 04                	(bad)  
  a8:	01 0b                	add    %ecx,(%ebx)
  aa:	0b 3a                	or     (%edx),%edi
  ac:	0b 3b                	or     (%ebx),%edi
  ae:	0b 01                	or     (%ecx),%eax
  b0:	13 00                	adc    (%eax),%eax
  b2:	00 10                	add    %dl,(%eax)
  b4:	28 00                	sub    %al,(%eax)
  b6:	03 0e                	add    (%esi),%ecx
  b8:	1c 0d                	sbb    $0xd,%al
  ba:	00 00                	add    %al,(%eax)
  bc:	11 0d 00 03 08 3a    	adc    %ecx,0x3a080300
  c2:	0b 3b                	or     (%ebx),%edi
  c4:	0b 49 13             	or     0x13(%ecx),%ecx
  c7:	38 0a                	cmp    %cl,(%edx)
  c9:	00 00                	add    %al,(%eax)
  cb:	12 15 01 27 0c 49    	adc    0x490c2701,%dl
  d1:	13 01                	adc    (%ecx),%eax
  d3:	13 00                	adc    (%eax),%eax
  d5:	00 13                	add    %dl,(%ebx)
  d7:	05 00 49 13 00       	add    $0x134900,%eax
  dc:	00 14 2e             	add    %dl,(%esi,%ebp,1)
  df:	01 3f                	add    %edi,(%edi)
  e1:	0c 03                	or     $0x3,%al
  e3:	0e                   	push   %cs
  e4:	3a 0b                	cmp    (%ebx),%cl
  e6:	3b 0b                	cmp    (%ebx),%ecx
  e8:	27                   	daa    
  e9:	0c 49                	or     $0x49,%al
  eb:	13 20                	adc    (%eax),%esp
  ed:	0b 34 0c             	or     (%esp,%ecx,1),%esi
  f0:	01 13                	add    %edx,(%ebx)
  f2:	00 00                	add    %al,(%eax)
  f4:	15 05 00 03 0e       	adc    $0xe030005,%eax
  f9:	3a 0b                	cmp    (%ebx),%cl
  fb:	3b 0b                	cmp    (%ebx),%ecx
  fd:	49                   	dec    %ecx
  fe:	13 00                	adc    (%eax),%eax
 100:	00 16                	add    %dl,(%esi)
 102:	18 00                	sbb    %al,(%eax)
 104:	00 00                	add    %al,(%eax)
 106:	17                   	pop    %ss
 107:	05 00 03 08 3a       	add    $0x3a080300,%eax
 10c:	0b 3b                	or     (%ebx),%edi
 10e:	0b 49 13             	or     0x13(%ecx),%ecx
 111:	00 00                	add    %al,(%eax)
 113:	18 2e                	sbb    %ch,(%esi)
 115:	01 3f                	add    %edi,(%edi)
 117:	0c 03                	or     $0x3,%al
 119:	0e                   	push   %cs
 11a:	3a 0b                	cmp    (%ebx),%cl
 11c:	3b 05 27 0c 49 13    	cmp    0x13490c27,%eax
 122:	11 01                	adc    %eax,(%ecx)
 124:	12 01                	adc    (%ecx),%al
 126:	40                   	inc    %eax
 127:	0a 01                	or     (%ecx),%al
 129:	13 00                	adc    (%eax),%eax
 12b:	00 19                	add    %bl,(%ecx)
 12d:	05 00 03 08 3a       	add    $0x3a080300,%eax
 132:	0b 3b                	or     (%ebx),%edi
 134:	05 49 13 02 0a       	add    $0xa021349,%eax
 139:	00 00                	add    %al,(%eax)
 13b:	1a 05 00 03 08 3a    	sbb    0x3a080300,%al
 141:	0b 3b                	or     (%ebx),%edi
 143:	05 49 13 00 00       	add    $0x1349,%eax
 148:	1b 2e                	sbb    (%esi),%ebp
 14a:	01 3f                	add    %edi,(%edi)
 14c:	0c 03                	or     $0x3,%al
 14e:	0e                   	push   %cs
 14f:	3a 0b                	cmp    (%ebx),%cl
 151:	3b 05 27 0c 49 13    	cmp    0x13490c27,%eax
 157:	11 01                	adc    %eax,(%ecx)
 159:	12 01                	adc    (%ecx),%al
 15b:	40                   	inc    %eax
 15c:	06                   	push   %es
 15d:	01 13                	add    %edx,(%ebx)
 15f:	00 00                	add    %al,(%eax)
 161:	1c 1d                	sbb    $0x1d,%al
 163:	01 31                	add    %esi,(%ecx)
 165:	13 11                	adc    (%ecx),%edx
 167:	01 12                	add    %edx,(%edx)
 169:	01 58 0b             	add    %ebx,0xb(%eax)
 16c:	59                   	pop    %ecx
 16d:	05 00 00 1d 05       	add    $0x51d0000,%eax
 172:	00 31                	add    %dh,(%ecx)
 174:	13 02                	adc    (%edx),%eax
 176:	06                   	push   %es
 177:	00 00                	add    %al,(%eax)
 179:	1e                   	push   %ds
 17a:	34 00                	xor    $0x0,%al
 17c:	03 08                	add    (%eax),%ecx
 17e:	3a 0b                	cmp    (%ebx),%cl
 180:	3b 05 49 13 02 06    	cmp    0x6021349,%eax
 186:	00 00                	add    %al,(%eax)
 188:	1f                   	pop    %ds
 189:	0b 01                	or     (%ecx),%eax
 18b:	11 01                	adc    %eax,(%ecx)
 18d:	12 01                	adc    (%ecx),%al
 18f:	00 00                	add    %al,(%eax)
 191:	20 34 00             	and    %dh,(%eax,%eax,1)
 194:	03 0e                	add    (%esi),%ecx
 196:	3a 0b                	cmp    (%ebx),%cl
 198:	3b 05 49 13 02 06    	cmp    0x6021349,%eax
 19e:	00 00                	add    %al,(%eax)
 1a0:	21 0b                	and    %ecx,(%ebx)
 1a2:	01 55 06             	add    %edx,0x6(%ebp)
 1a5:	00 00                	add    %al,(%eax)
 1a7:	22 2e                	and    (%esi),%ch
 1a9:	01 03                	add    %eax,(%ebx)
 1ab:	0e                   	push   %cs
 1ac:	3a 0b                	cmp    (%ebx),%cl
 1ae:	3b 05 27 0c 49 13    	cmp    0x13490c27,%eax
 1b4:	11 01                	adc    %eax,(%ecx)
 1b6:	12 01                	adc    (%ecx),%al
 1b8:	40                   	inc    %eax
 1b9:	06                   	push   %es
 1ba:	01 13                	add    %edx,(%ebx)
 1bc:	00 00                	add    %al,(%eax)
 1be:	23 05 00 03 08 3a    	and    0x3a080300,%eax
 1c4:	0b 3b                	or     (%ebx),%edi
 1c6:	05 49 13 02 06       	add    $0x6021349,%eax
 1cb:	00 00                	add    %al,(%eax)
 1cd:	24 05                	and    $0x5,%al
 1cf:	00 03                	add    %al,(%ebx)
 1d1:	0e                   	push   %cs
 1d2:	3a 0b                	cmp    (%ebx),%cl
 1d4:	3b 05 49 13 02 06    	cmp    0x6021349,%eax
 1da:	00 00                	add    %al,(%eax)
 1dc:	25 34 00 03 08       	and    $0x8030034,%eax
 1e1:	3a 0b                	cmp    (%ebx),%cl
 1e3:	3b 05 49 13 02 0a    	cmp    0xa021349,%eax
 1e9:	00 00                	add    %al,(%eax)
 1eb:	26                   	es
 1ec:	34 00                	xor    $0x0,%al
 1ee:	03 0e                	add    (%esi),%ecx
 1f0:	3a 0b                	cmp    (%ebx),%cl
 1f2:	3b 05 49 13 02 0a    	cmp    0xa021349,%eax
 1f8:	00 00                	add    %al,(%eax)
 1fa:	27                   	daa    
 1fb:	1d 01 31 13 11       	sbb    $0x11133101,%eax
 200:	01 12                	add    %edx,(%edx)
 202:	01 58 0b             	add    %ebx,0xb(%eax)
 205:	59                   	pop    %ecx
 206:	05 01 13 00 00       	add    $0x1301,%eax
 20b:	28 1d 01 31 13 52    	sub    %bl,0x52133101
 211:	01 55 06             	add    %edx,0x6(%ebp)
 214:	58                   	pop    %eax
 215:	0b 59 05             	or     0x5(%ecx),%ebx
 218:	01 13                	add    %edx,(%ebx)
 21a:	00 00                	add    %al,(%eax)
 21c:	29 21                	sub    %esp,(%ecx)
 21e:	00 49 13             	add    %cl,0x13(%ecx)
 221:	2f                   	das    
 222:	05 00 00 2a 2e       	add    $0x2e2a0000,%eax
 227:	01 3f                	add    %edi,(%edi)
 229:	0c 03                	or     $0x3,%al
 22b:	0e                   	push   %cs
 22c:	3a 0b                	cmp    (%ebx),%cl
 22e:	3b 0b                	cmp    (%ebx),%ecx
 230:	27                   	daa    
 231:	0c 49                	or     $0x49,%al
 233:	13 11                	adc    (%ecx),%edx
 235:	01 12                	add    %edx,(%edx)
 237:	01 40 06             	add    %eax,0x6(%eax)
 23a:	01 13                	add    %edx,(%ebx)
 23c:	00 00                	add    %al,(%eax)
 23e:	2b 05 00 03 0e 3a    	sub    0x3a0e0300,%eax
 244:	0b 3b                	or     (%ebx),%edi
 246:	0b 49 13             	or     0x13(%ecx),%ecx
 249:	02 0a                	add    (%edx),%cl
 24b:	00 00                	add    %al,(%eax)
 24d:	2c 34                	sub    $0x34,%al
 24f:	00 03                	add    %al,(%ebx)
 251:	0e                   	push   %cs
 252:	3a 0b                	cmp    (%ebx),%cl
 254:	3b 0b                	cmp    (%ebx),%ecx
 256:	49                   	dec    %ecx
 257:	13 02                	adc    (%edx),%eax
 259:	06                   	push   %es
 25a:	00 00                	add    %al,(%eax)
 25c:	2d 34 00 03 0e       	sub    $0xe030034,%eax
 261:	3a 0b                	cmp    (%ebx),%cl
 263:	3b 0b                	cmp    (%ebx),%ecx
 265:	49                   	dec    %ecx
 266:	13 00                	adc    (%eax),%eax
 268:	00 2e                	add    %ch,(%esi)
 26a:	05 00 03 0e 3a       	add    $0x3a0e0300,%eax
 26f:	0b 3b                	or     (%ebx),%edi
 271:	0b 49 13             	or     0x13(%ecx),%ecx
 274:	02 06                	add    (%esi),%al
 276:	00 00                	add    %al,(%eax)
 278:	2f                   	das    
 279:	34 00                	xor    $0x0,%al
 27b:	03 08                	add    (%eax),%ecx
 27d:	3a 0b                	cmp    (%ebx),%cl
 27f:	3b 0b                	cmp    (%ebx),%ecx
 281:	49                   	dec    %ecx
 282:	13 02                	adc    (%edx),%eax
 284:	06                   	push   %es
 285:	00 00                	add    %al,(%eax)
 287:	30 34 00             	xor    %dh,(%eax,%eax,1)
 28a:	03 08                	add    (%eax),%ecx
 28c:	3a 0b                	cmp    (%ebx),%cl
 28e:	3b 0b                	cmp    (%ebx),%ecx
 290:	49                   	dec    %ecx
 291:	13 02                	adc    (%edx),%eax
 293:	0a 00                	or     (%eax),%al
 295:	00 31                	add    %dh,(%ecx)
 297:	34 00                	xor    $0x0,%al
 299:	03 0e                	add    (%esi),%ecx
 29b:	3a 0b                	cmp    (%ebx),%cl
 29d:	3b 0b                	cmp    (%ebx),%ecx
 29f:	49                   	dec    %ecx
 2a0:	13 02                	adc    (%edx),%eax
 2a2:	0a 00                	or     (%eax),%al
 2a4:	00 32                	add    %dh,(%edx)
 2a6:	0b 01                	or     (%ecx),%eax
 2a8:	11 01                	adc    %eax,(%ecx)
 2aa:	12 01                	adc    (%ecx),%al
 2ac:	01 13                	add    %edx,(%ebx)
 2ae:	00 00                	add    %al,(%eax)
 2b0:	33 0b                	xor    (%ebx),%ecx
 2b2:	01 55 06             	add    %edx,0x6(%ebp)
 2b5:	01 13                	add    %edx,(%ebx)
 2b7:	00 00                	add    %al,(%eax)
 2b9:	34 1d                	xor    $0x1d,%al
 2bb:	01 31                	add    %esi,(%ecx)
 2bd:	13 11                	adc    (%ecx),%edx
 2bf:	01 12                	add    %edx,(%edx)
 2c1:	01 58 0b             	add    %ebx,0xb(%eax)
 2c4:	59                   	pop    %ecx
 2c5:	0b 01                	or     (%ecx),%eax
 2c7:	13 00                	adc    (%eax),%eax
 2c9:	00 35 05 00 31 13    	add    %dh,0x13310005
 2cf:	00 00                	add    %al,(%eax)
 2d1:	36                   	ss
 2d2:	1d 01 31 13 11       	sbb    $0x11133101,%eax
 2d7:	01 12                	add    %edx,(%edx)
 2d9:	01 58 0b             	add    %ebx,0xb(%eax)
 2dc:	59                   	pop    %ecx
 2dd:	0b 00                	or     (%eax),%eax
 2df:	00 37                	add    %dh,(%edi)
 2e1:	05 00 03 0e 3a       	add    $0x3a0e0300,%eax
 2e6:	0b 3b                	or     (%ebx),%edi
 2e8:	05 49 13 02 0a       	add    $0xa021349,%eax
 2ed:	00 00                	add    %al,(%eax)
 2ef:	38 34 00             	cmp    %dh,(%eax,%eax,1)
 2f2:	03 0e                	add    (%esi),%ecx
 2f4:	3a 0b                	cmp    (%ebx),%cl
 2f6:	3b 0b                	cmp    (%ebx),%ecx
 2f8:	49                   	dec    %ecx
 2f9:	13 3f                	adc    (%edi),%edi
 2fb:	0c 3c                	or     $0x3c,%al
 2fd:	0c 00                	or     $0x0,%al
 2ff:	00 39                	add    %bh,(%ecx)
 301:	34 00                	xor    $0x0,%al
 303:	03 0e                	add    (%esi),%ecx
 305:	3a 0b                	cmp    (%ebx),%cl
 307:	3b 0b                	cmp    (%ebx),%ecx
 309:	49                   	dec    %ecx
 30a:	13 3f                	adc    (%edi),%edi
 30c:	0c 02                	or     $0x2,%al
 30e:	0a 00                	or     (%eax),%al
 310:	00 00                	add    %al,(%eax)

Disassembly of section .debug_line:

00000000 <.debug_line>:
   0:	ab                   	stos   %eax,%es:(%edi)
   1:	06                   	push   %es
   2:	00 00                	add    %al,(%eax)
   4:	02 00                	add    (%eax),%al
   6:	d9 00                	flds   (%eax)
   8:	00 00                	add    %al,(%eax)
   a:	01 01                	add    %eax,(%ecx)
   c:	fb                   	sti    
   d:	0e                   	push   %cs
   e:	0d 00 01 01 01       	or     $0x1010100,%eax
  13:	01 00                	add    %eax,(%eax)
  15:	00 00                	add    %al,(%eax)
  17:	01 00                	add    %eax,(%eax)
  19:	00 01                	add    %al,(%ecx)
  1b:	2f                   	das    
  1c:	75 73                	jne    91 <_init-0x8048c03>
  1e:	72 2f                	jb     4f <_init-0x8048c45>
  20:	69 6e 63 6c 75 64 65 	imul   $0x6564756c,0x63(%esi),%ebp
  27:	2f                   	das    
  28:	69 33 38 36 2d 6c    	imul   $0x6c2d3638,(%ebx),%esi
  2e:	69 6e 75 78 2d 67 6e 	imul   $0x6e672d78,0x75(%esi),%ebp
  35:	75 2f                	jne    66 <_init-0x8048c2e>
  37:	62 69 74             	bound  %ebp,0x74(%ecx)
  3a:	73 00                	jae    3c <_init-0x8048c58>
  3c:	2f                   	das    
  3d:	75 73                	jne    b2 <_init-0x8048be2>
  3f:	72 2f                	jb     70 <_init-0x8048c24>
  41:	6c                   	insb   (%dx),%es:(%edi)
  42:	69 62 2f 67 63 63 2f 	imul   $0x2f636367,0x2f(%edx),%esp
  49:	69 36 38 36 2d 6c    	imul   $0x6c2d3638,(%esi),%esi
  4f:	69 6e 75 78 2d 67 6e 	imul   $0x6e672d78,0x75(%esi),%ebp
  56:	75 2f                	jne    87 <_init-0x8048c0d>
  58:	34 2e                	xor    $0x2e,%al
  5a:	36                   	ss
  5b:	2f                   	das    
  5c:	69 6e 63 6c 75 64 65 	imul   $0x6564756c,0x63(%esi),%ebp
  63:	00 2f                	add    %ch,(%edi)
  65:	75 73                	jne    da <_init-0x8048bba>
  67:	72 2f                	jb     98 <_init-0x8048bfc>
  69:	69 6e 63 6c 75 64 65 	imul   $0x6564756c,0x63(%esi),%ebp
  70:	00 2e                	add    %ch,(%esi)
  72:	2e                   	cs
  73:	2f                   	das    
  74:	69 6e 63 6c 75 64 65 	imul   $0x6564756c,0x63(%esi),%ebp
  7b:	00 00                	add    %al,(%eax)
  7d:	63 6f 6e             	arpl   %bp,0x6e(%edi)
  80:	66                   	data16
  81:	2e 63 00             	arpl   %ax,%cs:(%eax)
  84:	00 00                	add    %al,(%eax)
  86:	00 73 74             	add    %dh,0x74(%ebx)
  89:	64 69 6f 32 2e 68 00 01 	imul   $0x100682e,%fs:0x32(%edi),%ebp
  91:	00 00                	add    %al,(%eax)
  93:	73 74                	jae    109 <_init-0x8048b8b>
  95:	72 69                	jb     100 <_init-0x8048b94>
  97:	6e                   	outsb  %ds:(%esi),(%dx)
  98:	67 33 2e 68 00       	xor    0x68,%ebp
  9d:	01 00                	add    %eax,(%eax)
  9f:	00 73 74             	add    %dh,0x74(%ebx)
  a2:	64                   	fs
  a3:	64                   	fs
  a4:	65                   	gs
  a5:	66                   	data16
  a6:	2e                   	cs
  a7:	68 00 02 00 00       	push   $0x200
  ac:	74 79                	je     127 <_init-0x8048b6d>
  ae:	70 65                	jo     115 <_init-0x8048b7f>
  b0:	73 2e                	jae    e0 <_init-0x8048bb4>
  b2:	68 00 01 00 00       	push   $0x100
  b7:	73 74                	jae    12d <_init-0x8048b67>
  b9:	64 69 6f 2e 68 00 03 00 	imul   $0x30068,%fs:0x2e(%edi),%ebp
  c1:	00 6c 69 62          	add    %ch,0x62(%ecx,%ebp,2)
  c5:	69 6f 2e 68 00 03 00 	imul   $0x30068,0x2e(%edi),%ebp
  cc:	00 63 6f             	add    %ah,0x6f(%ebx)
  cf:	6e                   	outsb  %ds:(%esi),(%dx)
  d0:	66                   	data16
  d1:	2e                   	cs
  d2:	68 00 04 00 00       	push   $0x400
  d7:	63 74 79 70          	arpl   %si,0x70(%ecx,%edi,2)
  db:	65                   	gs
  dc:	2e                   	cs
  dd:	68 00 03 00 00       	push   $0x300
  e2:	00 00                	add    %al,(%eax)
  e4:	05 02 d0 c5 04       	add    $0x4c5d002,%eax
  e9:	08 03                	or     %al,(%ebx)
  eb:	ee                   	out    %al,(%dx)
  ec:	05 01 16 03 34       	add    $0x34031601,%eax
  f1:	66 16                	pushw  %ss
  f3:	03 87 01 66 83 67    	add    0x67836601(%edi),%eax
  f9:	e8 03 66 9e 83       	call   839e6701 <_end+0x7b9951bd>
  fe:	67 e8 03 66 9e 83    	addr16 call 839e6707 <_end+0x7b9951c3>
 104:	67 e8 03 66 9e 83    	addr16 call 839e670d <_end+0x7b9951c9>
 10a:	67 e8 03 46 9e 83    	addr16 call 839e4713 <_end+0x7b9931cf>
 110:	67 e8 03 66 9e 83    	addr16 call 839e6719 <_end+0x7b9951d5>
 116:	67 e8 03 6a 9e 83    	addr16 call 839e6b1f <_end+0x7b9955db>
 11c:	67 e8 03 66 9e 83    	addr16 call 839e6725 <_end+0x7b9951e1>
 122:	67 e8 03 66 9e 83    	addr16 call 839e672b <_end+0x7b9951e7>
 128:	67 e8 03 6b 9e 83    	addr16 call 839e6c31 <_end+0x7b9956ed>
 12e:	67 e7 03             	addr16 out %eax,$0x3
 131:	67 9e                	addr16 sahf 
 133:	83 67 e8 03          	andl   $0x3,-0x18(%edi)
 137:	66                   	data16
 138:	9e                   	sahf   
 139:	83 67 e8 03          	andl   $0x3,-0x18(%edi)
 13d:	c4 7d 9e             	les    -0x62(%ebp),%edi
 140:	75 04                	jne    146 <_init-0x8048b4e>
 142:	02 03                	add    (%ebx),%al
 144:	98                   	cwtl   
 145:	7d ac                	jge    f3 <_init-0x8048ba1>
 147:	04 01                	add    $0x1,%al
 149:	03 ea                	add    %edx,%ebp
 14b:	02 9e 04 02 03 96    	add    -0x69fcfdfc(%esi),%bl
 151:	7d 2e                	jge    181 <_init-0x8048b13>
 153:	04 01                	add    $0x1,%al
 155:	03 ee                	add    %esi,%ebp
 157:	02 02                	add    (%edx),%al
 159:	24 01                	and    $0x1,%al
 15b:	59                   	pop    %ecx
 15c:	03 09                	add    (%ecx),%ecx
 15e:	4a                   	dec    %edx
 15f:	75 04                	jne    165 <_init-0x8048b2f>
 161:	02 03                	add    (%ebx),%al
 163:	87 7d ac             	xchg   %edi,-0x54(%ebp)
 166:	04 01                	add    $0x1,%al
 168:	03 fb                	add    %ebx,%edi
 16a:	02 9e 04 02 03 85    	add    -0x7afcfdfc(%esi),%bl
 170:	7d 2e                	jge    1a0 <_init-0x8048af4>
 172:	04 01                	add    $0x1,%al
 174:	03 ff                	add    %edi,%edi
 176:	02 02                	add    (%edx),%al
 178:	26 01 59 03          	add    %ebx,%es:0x3(%ecx)
 17c:	12 4a 75             	adc    0x75(%edx),%cl
 17f:	04 02                	add    $0x2,%al
 181:	03 ed                	add    %ebp,%ebp
 183:	7c ac                	jl     131 <_init-0x8048b63>
 185:	04 01                	add    $0x1,%al
 187:	03 95 03 9e 04 02    	add    0x2049e03(%ebp),%edx
 18d:	03 eb                	add    %ebx,%ebp
 18f:	7c 2e                	jl     1bf <_init-0x8048ad5>
 191:	04 01                	add    $0x1,%al
 193:	03 99 03 02 26 01    	add    0x1260203(%ecx),%ebx
 199:	59                   	pop    %ecx
 19a:	03 12                	add    (%edx),%edx
 19c:	4a                   	dec    %edx
 19d:	75 04                	jne    1a3 <_init-0x8048af1>
 19f:	02 03                	add    (%ebx),%al
 1a1:	d3 7c ac 04          	sarl   %cl,0x4(%esp,%ebp,4)
 1a5:	01 03                	add    %eax,(%ebx)
 1a7:	af                   	scas   %es:(%edi),%eax
 1a8:	03 9e 04 02 03 d1    	add    -0x2efcfdfc(%esi),%ebx
 1ae:	7c 2e                	jl     1de <_init-0x8048ab6>
 1b0:	04 01                	add    $0x1,%al
 1b2:	03 b3 03 02 26 01    	add    0x1260203(%ebx),%esi
 1b8:	59                   	pop    %ecx
 1b9:	03 0c 4a             	add    (%edx,%ecx,2),%ecx
 1bc:	77 04                	ja     1c2 <_init-0x8048ad2>
 1be:	02 03                	add    (%ebx),%al
 1c0:	bd 7c ac 04 01       	mov    $0x104ac7c,%ebp
 1c5:	03 c5                	add    %ebp,%eax
 1c7:	03 9e 04 02 03 bb    	add    -0x44fcfdfc(%esi),%ebx
 1cd:	7c 2e                	jl     1fd <_init-0x8048a97>
 1cf:	04 01                	add    $0x1,%al
 1d1:	03 cb                	add    %ebx,%ecx
 1d3:	03 02                	add    (%edx),%eax
 1d5:	24 01                	and    $0x1,%al
 1d7:	59                   	pop    %ecx
 1d8:	03 2d 4a 4b 04 02    	add    0x2044b4a,%ebp
 1de:	03 86 7c ba 04 01    	add    0x104ba7c(%esi),%eax
 1e4:	03 ff                	add    %edi,%edi
 1e6:	03 08                	add    (%eax),%ecx
 1e8:	74 03                	je     1ed <_init-0x8048aa7>
 1ea:	21 66 75             	and    %esp,0x75(%esi)
 1ed:	04 02                	add    $0x2,%al
 1ef:	03 df                	add    %edi,%ebx
 1f1:	7b ac                	jnp    19f <_init-0x8048af5>
 1f3:	04 01                	add    $0x1,%al
 1f5:	03 a3 04 9e 33 04    	add    0x4339e04(%ebx),%esp
 1fb:	02 03                	add    (%ebx),%al
 1fd:	d8 7b 74             	fdivrs 0x74(%ebx)
 200:	04 01                	add    $0x1,%al
 202:	03 a9 04 08 e4 59    	add    0x59e40804(%ecx),%ebp
 208:	03 14 4a             	add    (%edx,%ecx,2),%edx
 20b:	75 04                	jne    211 <_init-0x8048a83>
 20d:	02 03                	add    (%ebx),%al
 20f:	c1 7b ac 04          	sarl   $0x4,-0x54(%ebx)
 213:	01 03                	add    %eax,(%ebx)
 215:	c1 04 9e 31          	roll   $0x31,(%esi,%ebx,4)
 219:	04 02                	add    $0x2,%al
 21b:	03 bc 7b 74 04 01 03 	add    0x3010474(%ebx,%edi,2),%edi
 222:	c5 04 08             	lds    (%eax,%ecx,1),%eax
 225:	e4 59                	in     $0x59,%al
 227:	03 0c 4a             	add    (%edx,%ecx,2),%ecx
 22a:	75 04                	jne    230 <_init-0x8048a64>
 22c:	02 03                	add    (%ebx),%al
 22e:	ad                   	lods   %ds:(%esi),%eax
 22f:	7b ac                	jnp    1dd <_init-0x8048ab7>
 231:	04 01                	add    $0x1,%al
 233:	03 d5                	add    %ebp,%edx
 235:	04 9e                	add    $0x9e,%al
 237:	04 02                	add    $0x2,%al
 239:	03 ab 7b 2e 04 01    	add    0x1042e7b(%ebx),%ebp
 23f:	03 d9                	add    %ecx,%ebx
 241:	04 02                	add    $0x2,%al
 243:	26 01 59 03          	add    %ebx,%es:0x3(%ecx)
 247:	0c 4a                	or     $0x4a,%al
 249:	75 04                	jne    24f <_init-0x8048a45>
 24b:	02 03                	add    (%ebx),%al
 24d:	99                   	cltd   
 24e:	7b ac                	jnp    1fc <_init-0x8048a98>
 250:	04 01                	add    $0x1,%al
 252:	03 e9                	add    %ecx,%ebp
 254:	04 9e                	add    $0x9e,%al
 256:	04 02                	add    $0x2,%al
 258:	03 97 7b 2e 04 01    	add    0x1042e7b(%edi),%edx
 25e:	03 ed                	add    %ebp,%ebp
 260:	04 02                	add    $0x2,%al
 262:	26 01 59 03          	add    %ebx,%es:0x3(%ecx)
 266:	0d 4a 83 04 02       	or     $0x204834a,%eax
 26b:	03 84 7b ac 04 01 03 	add    0x30104ac(%ebx,%edi,2),%eax
 272:	fe 04 9e             	incb   (%esi,%ebx,4)
 275:	04 02                	add    $0x2,%al
 277:	03 82 7b 2e 04 01    	add    0x1042e7b(%edx),%eax
 27d:	03 83 05 02 2d 01    	add    0x12d0205(%ebx),%eax
 283:	59                   	pop    %ecx
 284:	03 0e                	add    (%esi),%ecx
 286:	58                   	pop    %eax
 287:	4b                   	dec    %ebx
 288:	04 02                	add    $0x2,%al
 28a:	03 ed                	add    %ebp,%ebp
 28c:	7a 9e                	jp     22c <_init-0x8048a68>
 28e:	04 01                	add    $0x1,%al
 290:	03 9a 05 9e 03 0c    	add    0xc039e05(%edx),%ebx
 296:	66 4b                	dec    %bx
 298:	04 02                	add    $0x2,%al
 29a:	03 d9                	add    %ecx,%ebx
 29c:	7a 9e                	jp     23c <_init-0x8048a58>
 29e:	04 01                	add    $0x1,%al
 2a0:	03 ae 05 9e 03 0c    	add    0xc039e05(%esi),%ebp
 2a6:	66 4b                	dec    %bx
 2a8:	04 02                	add    $0x2,%al
 2aa:	03 c5                	add    %ebp,%eax
 2ac:	7a 9e                	jp     24c <_init-0x8048a48>
 2ae:	04 01                	add    $0x1,%al
 2b0:	03 c2                	add    %edx,%eax
 2b2:	05 9e 03 1b 66       	add    $0x661b039e,%eax
 2b7:	4b                   	dec    %ebx
 2b8:	04 02                	add    $0x2,%al
 2ba:	03 a2 7a 9e 04 01    	add    0x1049e7a(%edx),%esp
 2c0:	03 e5                	add    %ebp,%esp
 2c2:	05 9e 03 0c 66       	add    $0x660c039e,%eax
 2c7:	4b                   	dec    %ebx
 2c8:	04 02                	add    $0x2,%al
 2ca:	03 8e 7a 9e 04 01    	add    0x1049e7a(%esi),%ecx
 2d0:	03 f9                	add    %ecx,%edi
 2d2:	05 9e 03 1c 66       	add    $0x661c039e,%eax
 2d7:	4b                   	dec    %ebx
 2d8:	04 02                	add    $0x2,%al
 2da:	03 ea                	add    %edx,%ebp
 2dc:	79 9e                	jns    27c <_init-0x8048a18>
 2de:	04 01                	add    $0x1,%al
 2e0:	03 9d 06 9e 03 2c    	add    0x2c039e06(%ebp),%ebx
 2e6:	66 4b                	dec    %bx
 2e8:	04 02                	add    $0x2,%al
 2ea:	03 b6 79 9e 04 01    	add    0x1049e79(%esi),%esi
 2f0:	03 d1                	add    %ecx,%edx
 2f2:	06                   	push   %es
 2f3:	9e                   	sahf   
 2f4:	03 0c 66             	add    (%esi,%eiz,2),%ecx
 2f7:	4b                   	dec    %ebx
 2f8:	04 02                	add    $0x2,%al
 2fa:	03 a2 79 9e 04 01    	add    0x1049e79(%edx),%esp
 300:	03 e5                	add    %ebp,%esp
 302:	06                   	push   %es
 303:	9e                   	sahf   
 304:	03 0c 66             	add    (%esi,%eiz,2),%ecx
 307:	4b                   	dec    %ebx
 308:	04 02                	add    $0x2,%al
 30a:	03 8e 79 9e 04 01    	add    0x1049e79(%esi),%ecx
 310:	03 f9                	add    %ecx,%edi
 312:	06                   	push   %es
 313:	9e                   	sahf   
 314:	03 0c 66             	add    (%esi,%eiz,2),%ecx
 317:	4b                   	dec    %ebx
 318:	04 02                	add    $0x2,%al
 31a:	03 fa                	add    %edx,%edi
 31c:	78 9e                	js     2bc <_init-0x80489d8>
 31e:	04 01                	add    $0x1,%al
 320:	03 8d 07 9e 03 fa    	add    -0x5fc61f9(%ebp),%ecx
 326:	7d 66                	jge    38e <_init-0x8048906>
 328:	83 67 e7 08          	andl   $0x8,-0x19(%edi)
 32c:	a1 03 62 9e 83       	mov    0x839e6203,%eax
 331:	67 e7 08             	addr16 out %eax,$0x8
 334:	a0 03 65 9e 83       	mov    0x839e6503,%al
 339:	67 e6 08             	addr16 out %al,$0x8
 33c:	a0 03 66 9e 83       	mov    0x839e6603,%al
 341:	67 e6 08             	addr16 out %al,$0x8
 344:	a0 03 e8 7e 9e       	mov    0x9e7ee803,%al
 349:	83 67 e6 08          	andl   $0x8,-0x1a(%edi)
 34d:	a0 03 b5 7f 9e       	mov    0x9e7fb503,%al
 352:	3d 08 d8 03 b8       	cmp    $0xb803d808,%eax
 357:	01 90 93 67 e8 00    	add    %edx,0xe86793(%eax)
 35d:	02 04 04             	add    (%esp,%eax,1),%al
 360:	06                   	push   %es
 361:	c8 00 02 04          	enter  $0x200,$0x4
 365:	01 3c 00             	add    %edi,(%eax,%eax,1)
 368:	02 04 02             	add    (%edx,%eax,1),%al
 36b:	c8 00 02 04          	enter  $0x200,$0x4
 36f:	03 06                	add    (%esi),%eax
 371:	4e                   	dec    %esi
 372:	00 02                	add    %al,(%edx)
 374:	04 03                	add    $0x3,%al
 376:	08 68 03             	or     %ch,0x3(%eax)
 379:	47                   	inc    %edi
 37a:	ac                   	lods   %ds:(%esi),%al
 37b:	93                   	xchg   %eax,%ebx
 37c:	67 e8 00 02 04 04    	addr16 call 4040582 <_init-0x4008712>
 382:	06                   	push   %es
 383:	c8 00 02 04          	enter  $0x200,$0x4
 387:	01 3c 00             	add    %edi,(%eax,%eax,1)
 38a:	02 04 02             	add    (%edx,%eax,1),%al
 38d:	c8 00 02 04          	enter  $0x200,$0x4
 391:	03 06                	add    (%esi),%eax
 393:	4c                   	dec    %esp
 394:	00 02                	add    %al,(%edx)
 396:	04 01                	add    $0x1,%al
 398:	08 ad 00 02 04 01    	or     %ch,0x1040200(%ebp)
 39e:	08 73 4c             	or     %dh,0x4c(%ebx)
 3a1:	08 73 4b             	or     %dh,0x4b(%ebx)
 3a4:	08 ae 91 a1 00 02    	or     %ch,0x200a191(%esi)
 3aa:	04 01                	add    $0x1,%al
 3ac:	08 ad 00 02 04 01    	or     %ch,0x1040200(%ebp)
 3b2:	08 73 4c             	or     %dh,0x4c(%ebx)
 3b5:	08 73 4b             	or     %dh,0x4b(%ebx)
 3b8:	08 96 03 7a 58 4c    	or     %dl,0x4c587a03(%esi)
 3be:	91                   	xchg   %eax,%ecx
 3bf:	5c                   	pop    %esp
 3c0:	03 b2 7f 66 dc f6    	add    -0x9239981(%edx),%esi
 3c6:	00 02                	add    %al,(%edx)
 3c8:	04 04                	add    $0x4,%al
 3ca:	06                   	push   %es
 3cb:	ac                   	lods   %ds:(%esi),%al
 3cc:	00 02                	add    %al,(%edx)
 3ce:	04 01                	add    $0x1,%al
 3d0:	3c 00                	cmp    $0x0,%al
 3d2:	02 04 02             	add    (%edx,%eax,1),%al
 3d5:	c8 4a 00 02          	enter  $0x4a,$0x2
 3d9:	04 03                	add    $0x3,%al
 3db:	4a                   	dec    %edx
 3dc:	00 02                	add    %al,(%edx)
 3de:	04 03                	add    $0x3,%al
 3e0:	06                   	push   %es
 3e1:	2f                   	das    
 3e2:	92                   	xchg   %eax,%edx
 3e3:	3d e5 49 04 02       	cmp    $0x20449e5,%eax
 3e8:	03 e3                	add    %ebx,%esp
 3ea:	7c 4a                	jl     436 <_init-0x804885e>
 3ec:	04 01                	add    $0x1,%al
 3ee:	03 a3 03 02 25 01    	add    0x1250203(%ebx),%esp
 3f4:	03 77 74             	add    0x74(%edi),%esi
 3f7:	03 0d 2e 08 31 67    	add    0x6731082e,%ecx
 3fd:	d9 75 04             	fnstenv 0x4(%ebp)
 400:	03 03                	add    (%ebx),%eax
 402:	e8 7c 58 04 01       	call   1045c83 <_init-0x7003011>
 407:	03 9c 03 08 2e 76 03 	add    0x3762e08(%ebx,%eax,1),%ebx
 40e:	61                   	popa   
 40f:	74 03                	je     414 <_init-0x8048880>
 411:	20 58 03             	and    %bl,0x3(%eax)
 414:	a7                   	cmpsl  %es:(%edi),%ds:(%esi)
 415:	7f 74                	jg     48b <_init-0x8048809>
 417:	85 67 e7             	test   %esp,-0x19(%edi)
 41a:	3e                   	ds
 41b:	08 cb                	or     %cl,%bl
 41d:	03 5a 9e             	add    -0x62(%edx),%ebx
 420:	85 67 e7             	test   %esp,-0x19(%edi)
 423:	3e                   	ds
 424:	08 cb                	or     %cl,%bl
 426:	03 95 7f 9e d6 03    	add    0x3d69e7f(%ebp),%edx
 42c:	0b e4                	or     %esp,%esp
 42e:	81 00 02 04 01 86    	addl   $0x86010402,(%eax)
 434:	06                   	push   %es
 435:	90                   	nop
 436:	06                   	push   %es
 437:	a3 08 47 9f 92       	mov    %eax,0x929f4708
 43c:	d7                   	xlat   %ds:(%ebx)
 43d:	04 02                	add    $0x2,%al
 43f:	03 88 7e 4a 04 01    	add    0x1044a7e(%eax),%ecx
 445:	03 fd                	add    %ebp,%edi
 447:	01 02                	add    %eax,(%edx)
 449:	4e                   	dec    %esi
 44a:	01 3e                	add    %edi,(%esi)
 44c:	03 73 3c             	add    0x3c(%ebx),%esi
 44f:	03 10                	add    (%eax),%edx
 451:	08 12                	or     %dl,(%edx)
 453:	f3 4b                	repz dec %ebx
 455:	04 02                	add    $0x2,%al
 457:	03 fc                	add    %esp,%edi
 459:	7d 4a                	jge    4a5 <_init-0x80487ef>
 45b:	04 01                	add    $0x1,%al
 45d:	03 86 02 08 3c 00    	add    0x3c0802(%esi),%eax
 463:	02 04 01             	add    (%ecx,%eax,1),%al
 466:	06                   	push   %es
 467:	4a                   	dec    %edx
 468:	04 02                	add    $0x2,%al
 46a:	06                   	push   %es
 46b:	03 ba 7d 66 04 01    	add    0x104667d(%edx),%edi
 471:	03 c7                	add    %edi,%eax
 473:	02 02                	add    (%edx),%al
 475:	22 01                	and    (%ecx),%al
 477:	04 02                	add    $0x2,%al
 479:	03 b9 7d 3c 04 03    	add    0x3043c7d(%ecx),%edi
 47f:	03 c7                	add    %edi,%eax
 481:	00 74 04 01          	add    %dh,0x1(%esp,%eax,1)
 485:	03 82 02 d6 04 03    	add    0x304d602(%edx),%eax
 48b:	03 fe                	add    %esi,%edi
 48d:	7d 3c                	jge    4cb <_init-0x80487c9>
 48f:	04 01                	add    $0x1,%al
 491:	03 83 02 58 04 02    	add    0x2045802(%ebx),%eax
 497:	03 f6                	add    %esi,%esi
 499:	7d 4a                	jge    4e5 <_init-0x80487af>
 49b:	04 01                	add    $0x1,%al
 49d:	03 8b 02 08 ac 03    	add    0x3ac0802(%ebx),%ecx
 4a3:	77 08                	ja     4ad <_init-0x80487e7>
 4a5:	20 03                	and    %al,(%ebx)
 4a7:	0d c8 03 74 08       	or     $0x87403c8,%eax
 4ac:	58                   	pop    %eax
 4ad:	94                   	xchg   %eax,%esp
 4ae:	c2 03 ed             	ret    $0xed03
 4b1:	7d f2                	jge    4a5 <_init-0x80487ef>
 4b3:	cb                   	lret   
 4b4:	00 02                	add    %al,(%edx)
 4b6:	04 01                	add    $0x1,%al
 4b8:	4c                   	dec    %esp
 4b9:	00 02                	add    %al,(%edx)
 4bb:	04 01                	add    $0x1,%al
 4bd:	56                   	push   %esi
 4be:	5d                   	pop    %ebp
 4bf:	00 02                	add    %al,(%edx)
 4c1:	04 01                	add    $0x1,%al
 4c3:	4f                   	dec    %edi
 4c4:	06                   	push   %es
 4c5:	66 06                	pushw  %es
 4c7:	2f                   	das    
 4c8:	f4                   	hlt    
 4c9:	39 6d 03             	cmp    %ebp,0x3(%ebp)
 4cc:	71 74                	jno    542 <_init-0x8048752>
 4ce:	79 03                	jns    4d3 <_init-0x80487c1>
 4d0:	0b 58 85             	or     -0x7b(%eax),%ebx
 4d3:	85 08                	test   %ecx,(%eax)
 4d5:	3d 4f a0 c9 03       	cmp    $0x3c9a04f,%eax
 4da:	79 74                	jns    550 <_init-0x8048744>
 4dc:	03 0a                	add    (%edx),%ecx
 4de:	58                   	pop    %eax
 4df:	5b                   	pop    %ebx
 4e0:	85 4d 08             	test   %ecx,0x8(%ebp)
 4e3:	3d 4d c9 57 04       	cmp    $0x457c94d,%eax
 4e8:	03 03                	add    (%ebx),%eax
 4ea:	57                   	push   %edi
 4eb:	4a                   	dec    %edx
 4ec:	04 01                	add    $0x1,%al
 4ee:	03 2d 08 12 03 76    	add    0x76031208,%ebp
 4f4:	2e 78 03             	js,pn  4fa <_init-0x804879a>
 4f7:	0a 58 77             	or     0x77(%eax),%bl
 4fa:	08 e4                	or     %ah,%ah
 4fc:	03 15 e4 03 10 02    	add    0x21003e4,%edx
 502:	45                   	inc    %ebp
 503:	01 03                	add    %eax,(%ebx)
 505:	0b 58 03             	or     0x3(%eax),%ebx
 508:	7a ac                	jp     4b6 <_init-0x80487de>
 50a:	50                   	push   %eax
 50b:	00 02                	add    %al,(%edx)
 50d:	04 04                	add    $0x4,%al
 50f:	06                   	push   %es
 510:	2e 00 02             	add    %al,%cs:(%edx)
 513:	04 01                	add    $0x1,%al
 515:	3c 00                	cmp    $0x0,%al
 517:	02 04 02             	add    (%edx,%eax,1),%al
 51a:	c8 4a 00 02          	enter  $0x4a,$0x2
 51e:	04 03                	add    $0x3,%al
 520:	06                   	push   %es
 521:	67 06                	addr16 push %es
 523:	08 74 00 02          	or     %dh,0x2(%eax,%eax,1)
 527:	04 04                	add    $0x4,%al
 529:	9e                   	sahf   
 52a:	00 02                	add    %al,(%edx)
 52c:	04 02                	add    $0x2,%al
 52e:	74 00                	je     530 <_init-0x8048764>
 530:	02 04 03             	add    (%ebx,%eax,1),%al
 533:	9e                   	sahf   
 534:	00 02                	add    %al,(%edx)
 536:	04 03                	add    $0x3,%al
 538:	06                   	push   %es
 539:	50                   	push   %eax
 53a:	00 02                	add    %al,(%edx)
 53c:	04 01                	add    $0x1,%al
 53e:	06                   	push   %es
 53f:	08 2e                	or     %ch,(%esi)
 541:	06                   	push   %es
 542:	f5                   	cmc    
 543:	a1 00 02 04 04       	mov    0x4040200,%eax
 548:	06                   	push   %es
 549:	08 4a 00             	or     %cl,0x0(%edx)
 54c:	02 04 02             	add    (%edx,%eax,1),%al
 54f:	08 12                	or     %dl,(%edx)
 551:	00 02                	add    %al,(%edx)
 553:	04 03                	add    $0x3,%al
 555:	06                   	push   %es
 556:	4c                   	dec    %esp
 557:	08 3d 42 04 02 03    	or     %bh,0x3020442
 55d:	ff                   	(bad)  
 55e:	7e 02                	jle    562 <_init-0x8048732>
 560:	2a 01                	sub    (%ecx),%al
 562:	04 01                	add    $0x1,%al
 564:	03 fe                	add    %esi,%edi
 566:	00 02                	add    %al,(%edx)
 568:	2d 01 83 00 02       	sub    $0x2008301,%eax
 56d:	04 04                	add    $0x4,%al
 56f:	5a                   	pop    %edx
 570:	00 02                	add    %al,(%edx)
 572:	04 02                	add    $0x2,%al
 574:	06                   	push   %es
 575:	74 00                	je     577 <_init-0x804871d>
 577:	02 04 03             	add    (%ebx,%eax,1),%al
 57a:	9e                   	sahf   
 57b:	00 02                	add    %al,(%edx)
 57d:	04 03                	add    $0x3,%al
 57f:	06                   	push   %es
 580:	4d                   	dec    %ebp
 581:	00 02                	add    %al,(%edx)
 583:	04 03                	add    $0x3,%al
 585:	08 21                	or     %ah,(%ecx)
 587:	04 02                	add    $0x2,%al
 589:	03 fb                	add    %ebx,%edi
 58b:	7e 4a                	jle    5d7 <_init-0x80486bd>
 58d:	04 01                	add    $0x1,%al
 58f:	03 89 01 02 31 01    	add    0x1310201(%ecx),%ecx
 595:	83 5a 04 02          	sbbl   $0x2,0x4(%edx)
 599:	03 f4                	add    %esp,%esi
 59b:	7e 90                	jle    52d <_init-0x8048767>
 59d:	04 01                	add    $0x1,%al
 59f:	03 92 01 02 31 01    	add    0x1310201(%edx),%edx
 5a5:	75 83                	jne    52a <_init-0x804876a>
 5a7:	5b                   	pop    %ebx
 5a8:	00 02                	add    %al,(%edx)
 5aa:	04 01                	add    $0x1,%al
 5ac:	b3 06                	mov    $0x6,%bl
 5ae:	82                   	(bad)  
 5af:	00 02                	add    %al,(%edx)
 5b1:	04 02                	add    $0x2,%al
 5b3:	2e 08 12             	or     %dl,%cs:(%edx)
 5b6:	06                   	push   %es
 5b7:	33 04 02             	xor    (%edx,%eax,1),%eax
 5ba:	03 dd                	add    %ebp,%ebx
 5bc:	7e 82                	jle    540 <_init-0x8048754>
 5be:	04 01                	add    $0x1,%al
 5c0:	03 a5 01 02 2d 01    	add    0x12d0201(%ebp),%esp
 5c6:	5f                   	pop    %edi
 5c7:	4c                   	dec    %esp
 5c8:	42                   	inc    %edx
 5c9:	00 02                	add    %al,(%edx)
 5cb:	04 04                	add    $0x4,%al
 5cd:	06                   	push   %es
 5ce:	08 2e                	or     %ch,(%esi)
 5d0:	00 02                	add    %al,(%edx)
 5d2:	04 02                	add    $0x2,%al
 5d4:	f2 04 03             	repnz add $0x3,%al
 5d7:	00 02                	add    %al,(%edx)
 5d9:	04 03                	add    $0x3,%al
 5db:	06                   	push   %es
 5dc:	03 d3                	add    %ebx,%edx
 5de:	7e 4a                	jle    62a <_init-0x804866a>
 5e0:	04 01                	add    $0x1,%al
 5e2:	00 02                	add    %al,(%edx)
 5e4:	04 03                	add    $0x3,%al
 5e6:	03 b1 01 ba 04 03    	add    0x304ba01(%ecx),%esi
 5ec:	00 02                	add    %al,(%edx)
 5ee:	04 03                	add    $0x3,%al
 5f0:	03 cf                	add    %edi,%ecx
 5f2:	7e 9e                	jle    592 <_init-0x8048702>
 5f4:	04 01                	add    $0x1,%al
 5f6:	00 02                	add    %al,(%edx)
 5f8:	04 03                	add    $0x3,%al
 5fa:	03 b6 01 58 06 08    	add    0x8065801(%esi),%esi
 600:	74 00                	je     602 <_init-0x8048692>
 602:	02 04 04             	add    (%esp,%eax,1),%al
 605:	f2 00 02             	repnz add %al,(%edx)
 608:	04 02                	add    $0x2,%al
 60a:	74 00                	je     60c <_init-0x8048688>
 60c:	02 04 03             	add    (%ebx,%eax,1),%al
 60f:	9e                   	sahf   
 610:	04 03                	add    $0x3,%al
 612:	00 02                	add    %al,(%edx)
 614:	04 03                	add    $0x3,%al
 616:	06                   	push   %es
 617:	03 ca                	add    %edx,%ecx
 619:	7e 4a                	jle    665 <_init-0x804862f>
 61b:	04 01                	add    $0x1,%al
 61d:	00 02                	add    %al,(%edx)
 61f:	04 03                	add    $0x3,%al
 621:	03 b7 01 ba 04 03    	add    0x304ba01(%edi),%esi
 627:	00 02                	add    %al,(%edx)
 629:	04 03                	add    $0x3,%al
 62b:	03 c9                	add    %ecx,%ecx
 62d:	7e 9e                	jle    5cd <_init-0x80486c7>
 62f:	04 01                	add    $0x1,%al
 631:	00 02                	add    %al,(%edx)
 633:	04 03                	add    $0x3,%al
 635:	03 bc 01 58 00 02 04 	add    0x4020058(%ecx,%eax,1),%edi
 63c:	03 08                	add    (%eax),%ecx
 63e:	6b 4b 04 02          	imul   $0x2,0x4(%ebx),%ecx
 642:	03 b7 7e ac 04 01    	add    0x104ac7e(%edi),%esi
 648:	03 ca                	add    %edx,%ecx
 64a:	01 02                	add    %eax,(%edx)
 64c:	2d 01 36 08 75       	sub    $0x75083601,%eax
 651:	04 02                	add    $0x2,%al
 653:	03 ad 7e 74 00 02    	add    0x200747e(%ebp),%ebp
 659:	04 01                	add    $0x1,%al
 65b:	03 9d 01 02 2d 01    	add    0x12d0201(%ebp),%ebx
 661:	04 01                	add    $0x1,%al
 663:	00 02                	add    %al,(%edx)
 665:	04 01                	add    $0x1,%al
 667:	03 42 f2             	add    -0xe(%edx),%eax
 66a:	04 02                	add    $0x2,%al
 66c:	00 02                	add    %al,(%edx)
 66e:	04 01                	add    $0x1,%al
 670:	03 3e                	add    (%esi),%edi
 672:	74 04                	je     678 <_init-0x804861c>
 674:	01 00                	add    %eax,(%eax)
 676:	02 04 01             	add    (%ecx,%eax,1),%al
 679:	03 42 58             	add    0x58(%edx),%eax
 67c:	03 fb                	add    %ebx,%edi
 67e:	00 82 bc 03 f5 7e    	add    %al,0x7ef503bc(%edx)
 684:	2e 03 8c 01 82 03 35 02 	add    %cs:0x2350382(%ecx,%eax,1),%ecx
 68c:	24 01                	and    $0x1,%al
 68e:	b0 08                	mov    $0x8,%al
 690:	94                   	xchg   %eax,%esp
 691:	f4                   	hlt    
 692:	84 03                	test   %al,(%ebx)
 694:	79 2e                	jns    6c4 <_init-0x80485d0>
 696:	60                   	pusha  
 697:	d9 3d 08 2f 03 c5    	fnstcw 0xc5032f08
 69d:	03 4a 16             	add    0x16(%edx),%ecx
 6a0:	69 83 67 e8 a1 16 69 83 67 e8 	imul   $0xe8678369,0x16a1e867(%ebx),%eax
 6aa:	02 0a                	add    (%edx),%cl
 6ac:	00 01                	add    %al,(%ecx)
 6ae:	01                   	.byte 0x1

Disassembly of section .debug_str:

00000000 <.debug_str>:
   0:	5f                   	pop    %edi
   1:	73 68                	jae    6b <_init-0x8048c29>
   3:	6f                   	outsl  %ds:(%esi),(%dx)
   4:	72 74                	jb     7a <_init-0x8048c1a>
   6:	62 75 66             	bound  %esi,0x66(%ebp)
   9:	00 5f 49             	add    %bl,0x49(%edi)
   c:	4f                   	dec    %edi
   d:	5f                   	pop    %edi
   e:	6c                   	insb   (%dx),%es:(%edi)
   f:	6f                   	outsl  %ds:(%esi),(%dx)
  10:	63 6b 5f             	arpl   %bp,0x5f(%ebx)
  13:	74 00                	je     15 <_init-0x8048c7f>
  15:	63 6f 6e             	arpl   %bp,0x6e(%edi)
  18:	66 5f                	pop    %di
  1a:	64                   	fs
  1b:	75 6d                	jne    8a <_init-0x8048c0a>
  1d:	70 00                	jo     1f <_init-0x8048c75>
  1f:	63 6f 6e             	arpl   %bp,0x6e(%edi)
  22:	66 5f                	pop    %di
  24:	74 79                	je     9f <_init-0x8048bf5>
  26:	70 65                	jo     8d <_init-0x8048c07>
  28:	00 5f 49             	add    %bl,0x49(%edi)
  2b:	4f                   	dec    %edi
  2c:	5f                   	pop    %edi
  2d:	62 75 66             	bound  %esi,0x66(%ebp)
  30:	5f                   	pop    %edi
  31:	65 6e                	outsb  %gs:(%esi),(%dx)
  33:	64 00 68 65          	add    %ch,%fs:0x65(%eax)
  37:	78 38                	js     71 <_init-0x8048c23>
  39:	5f                   	pop    %edi
  3a:	67                   	addr16
  3b:	65                   	gs
  3c:	74 00                	je     3e <_init-0x8048c56>
  3e:	5f                   	pop    %edi
  3f:	49                   	dec    %ecx
  40:	4f                   	dec    %edi
  41:	5f                   	pop    %edi
  42:	77 72                	ja     b6 <_init-0x8048bde>
  44:	69 74 65 5f 65 6e 64 00 	imul   $0x646e65,0x5f(%ebp,%eiz,2),%esi
  4c:	68 65 78 33 32       	push   $0x32337865
  51:	5f                   	pop    %edi
  52:	73 65                	jae    b9 <_init-0x8048bdb>
  54:	74 00                	je     56 <_init-0x8048c3e>
  56:	5f                   	pop    %edi
  57:	66                   	data16
  58:	6c                   	insb   (%dx),%es:(%edi)
  59:	61                   	popa   
  5a:	67 73 00             	addr16 jae 5d <_init-0x8048c37>
  5d:	68 65 61 64 00       	push   $0x646165
  62:	62 69 6e             	bound  %ebp,0x6e(%ecx)
  65:	38 5f 67             	cmp    %bl,0x67(%edi)
  68:	65                   	gs
  69:	74 00                	je     6b <_init-0x8048c29>
  6b:	6f                   	outsl  %ds:(%esi),(%dx)
  6c:	63 74 38 5f          	arpl   %si,0x5f(%eax,%edi,1)
  70:	67                   	addr16
  71:	65                   	gs
  72:	74 00                	je     74 <_init-0x8048c20>
  74:	76 6f                	jbe    e5 <_init-0x8048baf>
  76:	69 64 5f 73 65 74 00 5f 	imul   $0x5f007465,0x73(%edi,%ebx,2),%esp
  7e:	6d                   	insl   (%dx),%es:(%edi)
  7f:	61                   	popa   
  80:	72 6b                	jb     ed <_init-0x8048ba7>
  82:	65                   	gs
  83:	72 73                	jb     f8 <_init-0x8048b9c>
  85:	00 63 6f             	add    %ah,0x6f(%ebx)
  88:	6e                   	outsb  %ds:(%esi),(%dx)
  89:	66 5f                	pop    %di
  8b:	74 79                	je     106 <_init-0x8048b8e>
  8d:	70 65                	jo     f4 <_init-0x8048ba0>
  8f:	5f                   	pop    %edi
  90:	74 61                	je     f3 <_init-0x8048ba1>
  92:	62 00                	bound  %eax,(%eax)
  94:	6f                   	outsl  %ds:(%esi),(%dx)
  95:	63 74 33 32          	arpl   %si,0x32(%ebx,%esi,1)
  99:	5f                   	pop    %edi
  9a:	73 65                	jae    101 <_init-0x8048b93>
  9c:	74 00                	je     9e <_init-0x8048bf6>
  9e:	5f                   	pop    %edi
  9f:	70 6f                	jo     110 <_init-0x8048b84>
  a1:	73 00                	jae    a3 <_init-0x8048bf1>
  a3:	73 74                	jae    119 <_init-0x8048b7b>
  a5:	72 63                	jb     10a <_init-0x8048b8a>
  a7:	70 79                	jo     122 <_init-0x8048b72>
  a9:	00 68 65             	add    %ch,0x65(%eax)
  ac:	78 36                	js     e4 <_init-0x8048bb0>
  ae:	34 5f                	xor    $0x5f,%al
  b0:	73 65                	jae    117 <_init-0x8048b7d>
  b2:	74 00                	je     b4 <_init-0x8048be0>
  b4:	72 67                	jb     11d <_init-0x8048b77>
  b6:	62 69 5f             	bound  %ebp,0x5f(%ecx)
  b9:	73 65                	jae    120 <_init-0x8048b74>
  bb:	74 00                	je     bd <_init-0x8048bd7>
  bd:	5f                   	pop    %edi
  be:	49                   	dec    %ecx
  bf:	4f                   	dec    %edi
  c0:	5f                   	pop    %edi
  c1:	73 61                	jae    124 <_init-0x8048b70>
  c3:	76 65                	jbe    12a <_init-0x8048b6a>
  c5:	5f                   	pop    %edi
  c6:	65 6e                	outsb  %gs:(%esi),(%dx)
  c8:	64 00 62 69          	add    %ah,%fs:0x69(%edx)
  cc:	6e                   	outsb  %ds:(%esi),(%dx)
  cd:	33 32                	xor    (%edx),%esi
  cf:	5f                   	pop    %edi
  d0:	73 65                	jae    137 <_init-0x8048b5d>
  d2:	74 00                	je     d4 <_init-0x8048bc0>
  d4:	5f                   	pop    %edi
  d5:	5f                   	pop    %edi
  d6:	6c                   	insb   (%dx),%es:(%edi)
  d7:	65 6e                	outsb  %gs:(%esi),(%dx)
  d9:	00 69 67             	add    %ch,0x67(%ecx)
  dc:	6e                   	outsb  %ds:(%esi),(%dx)
  dd:	6f                   	outsl  %ds:(%esi),(%dx)
  de:	72 65                	jb     145 <_init-0x8048b4f>
  e0:	00 63 6f             	add    %ah,0x6f(%ebx)
  e3:	75 6e                	jne    153 <_init-0x8048b41>
  e5:	74 00                	je     e7 <_init-0x8048bad>
  e7:	6c                   	insb   (%dx),%es:(%edi)
  e8:	6f                   	outsl  %ds:(%esi),(%dx)
  e9:	6e                   	outsb  %ds:(%esi),(%dx)
  ea:	67 20 6c 6f          	and    %ch,0x6f(%si)
  ee:	6e                   	outsb  %ds:(%esi),(%dx)
  ef:	67 20 75 6e          	and    %dh,0x6e(%di)
  f3:	73 69                	jae    15e <_init-0x8048b36>
  f5:	67 6e                	outsb  %ds:(%si),(%dx)
  f7:	65 64 20 69 6e       	gs and %ch,%fs:%gs:0x6e(%ecx)
  fc:	74 00                	je     fe <_init-0x8048b96>
  fe:	66                   	data16
  ff:	6c                   	insb   (%dx),%es:(%edi)
 100:	6f                   	outsl  %ds:(%esi),(%dx)
 101:	61                   	popa   
 102:	74 5f                	je     163 <_init-0x8048b31>
 104:	67                   	addr16
 105:	65                   	gs
 106:	74 00                	je     108 <_init-0x8048b8c>
 108:	73 74                	jae    17e <_init-0x8048b16>
 10a:	72 6e                	jb     17a <_init-0x8048b1a>
 10c:	63 70 79             	arpl   %si,0x79(%eax)
 10f:	00 62 72             	add    %ah,0x72(%edx)
 112:	61                   	popa   
 113:	6e                   	outsb  %ds:(%esi),(%dx)
 114:	63 68 00             	arpl   %bp,0x0(%eax)
 117:	5f                   	pop    %edi
 118:	49                   	dec    %ecx
 119:	4f                   	dec    %edi
 11a:	5f                   	pop    %edi
 11b:	62 61 63             	bound  %esp,0x63(%ecx)
 11e:	6b 75 70 5f          	imul   $0x5f,0x70(%ebp),%esi
 122:	62 61 73             	bound  %esp,0x73(%ecx)
 125:	65 00 69 70          	add    %ch,%gs:0x70(%ecx)
 129:	61                   	popa   
 12a:	64                   	fs
 12b:	64                   	fs
 12c:	72 5f                	jb     18d <_init-0x8048b07>
 12e:	73 65                	jae    195 <_init-0x8048aff>
 130:	74 00                	je     132 <_init-0x8048b62>
 132:	5f                   	pop    %edi
 133:	5f                   	pop    %edi
 134:	64                   	fs
 135:	65                   	gs
 136:	73 74                	jae    1ac <_init-0x8048ae8>
 138:	00 5f 49             	add    %bl,0x49(%edi)
 13b:	53                   	push   %ebx
 13c:	6c                   	insb   (%dx),%es:(%edi)
 13d:	6f                   	outsl  %ds:(%esi),(%dx)
 13e:	77 65                	ja     1a5 <_init-0x8048aef>
 140:	72 00                	jb     142 <_init-0x8048b52>
 142:	5f                   	pop    %edi
 143:	66 69 6c 65 6e 6f 00 	imul   $0x6f,0x6e(%ebp,%eiz,2),%bp
 14a:	6f                   	outsl  %ds:(%esi),(%dx)
 14b:	63 74 36 34          	arpl   %si,0x34(%esi,%esi,1)
 14f:	5f                   	pop    %edi
 150:	73 65                	jae    1b7 <_init-0x8048add>
 152:	74 00                	je     154 <_init-0x8048b40>
 154:	76 61                	jbe    1b7 <_init-0x8048add>
 156:	72 5f                	jb     1b7 <_init-0x8048add>
 158:	6c                   	insb   (%dx),%es:(%edi)
 159:	6f                   	outsl  %ds:(%esi),(%dx)
 15a:	6f                   	outsl  %ds:(%esi),(%dx)
 15b:	6b 75 70 00          	imul   $0x0,0x70(%ebp),%esi
 15f:	73 69                	jae    1ca <_init-0x8048aca>
 161:	7a 65                	jp     1c8 <_init-0x8048acc>
 163:	5f                   	pop    %edi
 164:	74 00                	je     166 <_init-0x8048b2e>
 166:	68 65 78 33 32       	push   $0x32337865
 16b:	5f                   	pop    %edi
 16c:	67                   	addr16
 16d:	65                   	gs
 16e:	74 00                	je     170 <_init-0x8048b24>
 170:	5f                   	pop    %edi
 171:	49                   	dec    %ecx
 172:	53                   	push   %ebx
 173:	78 64                	js     1d9 <_init-0x8048abb>
 175:	69 67 69 74 00 62 69 	imul   $0x69620074,0x69(%edi),%esp
 17c:	6e                   	outsb  %ds:(%esi),(%dx)
 17d:	36                   	ss
 17e:	34 5f                	xor    $0x5f,%al
 180:	73 65                	jae    1e7 <_init-0x8048aad>
 182:	74 00                	je     184 <_init-0x8048b10>
 184:	5f                   	pop    %edi
 185:	49                   	dec    %ecx
 186:	4f                   	dec    %edi
 187:	5f                   	pop    %edi
 188:	72 65                	jb     1ef <_init-0x8048aa5>
 18a:	61                   	popa   
 18b:	64                   	fs
 18c:	5f                   	pop    %edi
 18d:	62 61 73             	bound  %esp,0x73(%ecx)
 190:	65 00 73 74          	add    %dh,%gs:0x74(%ebx)
 194:	64 69 6e 00 5f 6e 65 78 	imul   $0x78656e5f,%fs:0x0(%esi),%ebp
 19c:	74 00                	je     19e <_init-0x8048af6>
 19e:	70 61                	jo     201 <_init-0x8048a93>
 1a0:	74 68                	je     20a <_init-0x8048a8a>
 1a2:	00 5f 5f             	add    %bl,0x5f(%edi)
 1a5:	66 6d                	insw   (%dx),%es:(%edi)
 1a7:	74 00                	je     1a9 <_init-0x8048aeb>
 1a9:	5f                   	pop    %edi
 1aa:	5f                   	pop    %edi
 1ab:	73 74                	jae    221 <_init-0x8048a73>
 1ad:	72 65                	jb     214 <_init-0x8048a80>
 1af:	61                   	popa   
 1b0:	6d                   	insl   (%dx),%es:(%edi)
 1b1:	00 5f 5f             	add    %bl,0x5f(%edi)
 1b4:	73 31                	jae    1e7 <_init-0x8048aad>
 1b6:	5f                   	pop    %edi
 1b7:	6c                   	insb   (%dx),%es:(%edi)
 1b8:	65 6e                	outsb  %gs:(%esi),(%dx)
 1ba:	00 63 6f             	add    %ah,0x6f(%ebx)
 1bd:	6e                   	outsb  %ds:(%esi),(%dx)
 1be:	66 5f                	pop    %di
 1c0:	76 61                	jbe    223 <_init-0x8048a71>
 1c2:	72 00                	jb     1c4 <_init-0x8048ad0>
 1c4:	76 61                	jbe    227 <_init-0x8048a6d>
 1c6:	72 5f                	jb     227 <_init-0x8048a6d>
 1c8:	73 65                	jae    22f <_init-0x8048a65>
 1ca:	74 00                	je     1cc <_init-0x8048ac8>
 1cc:	5f                   	pop    %edi
 1cd:	6d                   	insl   (%dx),%es:(%edi)
 1ce:	6f                   	outsl  %ds:(%esi),(%dx)
 1cf:	64 65 00 5f 49       	fs add %bl,%fs:%gs:0x49(%edi)
 1d4:	4f                   	dec    %edi
 1d5:	5f                   	pop    %edi
 1d6:	6d                   	insl   (%dx),%es:(%edi)
 1d7:	61                   	popa   
 1d8:	72 6b                	jb     245 <_init-0x8048a4f>
 1da:	65                   	gs
 1db:	72 00                	jb     1dd <_init-0x8048ab7>
 1dd:	6f                   	outsl  %ds:(%esi),(%dx)
 1de:	63 74 33 32          	arpl   %si,0x32(%ebx,%esi,1)
 1e2:	5f                   	pop    %edi
 1e3:	67                   	addr16
 1e4:	65                   	gs
 1e5:	74 00                	je     1e7 <_init-0x8048aad>
 1e7:	5f                   	pop    %edi
 1e8:	49                   	dec    %ecx
 1e9:	4f                   	dec    %edi
 1ea:	5f                   	pop    %edi
 1eb:	72 65                	jb     252 <_init-0x8048a42>
 1ed:	61                   	popa   
 1ee:	64                   	fs
 1ef:	5f                   	pop    %edi
 1f0:	70 74                	jo     266 <_init-0x8048a2e>
 1f2:	72 00                	jb     1f4 <_init-0x8048aa0>
 1f4:	68 65 78 36 34       	push   $0x34367865
 1f9:	5f                   	pop    %edi
 1fa:	67                   	addr16
 1fb:	65                   	gs
 1fc:	74 00                	je     1fe <_init-0x8048a96>
 1fe:	72 67                	jb     267 <_init-0x8048a2d>
 200:	62 69 5f             	bound  %ebp,0x5f(%ecx)
 203:	67                   	addr16
 204:	65                   	gs
 205:	74 00                	je     207 <_init-0x8048a8d>
 207:	72 67                	jb     270 <_init-0x8048a24>
 209:	62 5f 73             	bound  %ebx,0x73(%edi)
 20c:	65                   	gs
 20d:	74 00                	je     20f <_init-0x8048a85>
 20f:	74 5f                	je     270 <_init-0x8048a24>
 211:	63 6f 64             	arpl   %bp,0x64(%edi)
 214:	65 00 62 69          	add    %ah,%gs:0x69(%edx)
 218:	6e                   	outsb  %ds:(%esi),(%dx)
 219:	33 32                	xor    (%edx),%esi
 21b:	5f                   	pop    %edi
 21c:	67                   	addr16
 21d:	65                   	gs
 21e:	74 00                	je     220 <_init-0x8048a74>
 220:	73 74                	jae    296 <_init-0x80489fe>
 222:	64                   	fs
 223:	65                   	gs
 224:	72 72                	jb     298 <_init-0x80489fc>
 226:	00 63 6f             	add    %ah,0x6f(%ebx)
 229:	6e                   	outsb  %ds:(%esi),(%dx)
 22a:	66 5f                	pop    %di
 22c:	6c                   	insb   (%dx),%es:(%edi)
 22d:	6f                   	outsl  %ds:(%esi),(%dx)
 22e:	61                   	popa   
 22f:	64 00 5f 49          	add    %bl,%fs:0x49(%edi)
 233:	4f                   	dec    %edi
 234:	5f                   	pop    %edi
 235:	77 72                	ja     2a9 <_init-0x80489eb>
 237:	69 74 65 5f 62 61 73 65 	imul   $0x65736162,0x5f(%ebp,%eiz,2),%esi
 23f:	00 2f                	add    %ch,(%edi)
 241:	68 6f 6d 65 2f       	push   $0x2f656d6f
 246:	6a 6f                	push   $0x6f
 248:	6e                   	outsb  %ds:(%esi),(%dx)
 249:	61                   	popa   
 24a:	73 2f                	jae    27b <_init-0x8048a19>
 24c:	44                   	inc    %esp
 24d:	6f                   	outsl  %ds:(%esi),(%dx)
 24e:	63 75 6d             	arpl   %si,0x6d(%ebp)
 251:	65 6e                	outsb  %gs:(%esi),(%dx)
 253:	74 6f                	je     2c4 <_init-0x80489d0>
 255:	73 2f                	jae    286 <_init-0x8048a0e>
 257:	72 65                	jb     2be <_init-0x80489d6>
 259:	66                   	data16
 25a:	65                   	gs
 25b:	72 65                	jb     2c2 <_init-0x80489d2>
 25d:	6e                   	outsb  %ds:(%esi),(%dx)
 25e:	63 69 61             	arpl   %bp,0x61(%ecx)
 261:	73 2f                	jae    292 <_init-0x8048a02>
 263:	70 72                	jo     2d7 <_init-0x80489bd>
 265:	6f                   	outsl  %ds:(%esi),(%dx)
 266:	6a 65                	push   $0x65
 268:	74 6f                	je     2d9 <_init-0x80489bb>
 26a:	73 2d                	jae    299 <_init-0x80489fb>
 26c:	64                   	fs
 26d:	65                   	gs
 26e:	6d                   	insl   (%dx),%es:(%edi)
 26f:	6f                   	outsl  %ds:(%esi),(%dx)
 270:	2f                   	das    
 271:	61                   	popa   
 272:	70 70                	jo     2e4 <_init-0x80489b0>
 274:	2d 74 65 6d 70       	sub    $0x706d6574,%eax
 279:	6c                   	insb   (%dx),%es:(%edi)
 27a:	61                   	popa   
 27b:	74 65                	je     2e2 <_init-0x80489b2>
 27d:	2f                   	das    
 27e:	63 6f 6e             	arpl   %bp,0x6e(%edi)
 281:	66                   	data16
 282:	00 6c 6f 6e          	add    %ch,0x6e(%edi,%ebp,2)
 286:	67 20 6c 6f          	and    %ch,0x6f(%si)
 28a:	6e                   	outsb  %ds:(%esi),(%dx)
 28b:	67 20 69 6e          	and    %ch,0x6e(%bx,%di)
 28f:	74 00                	je     291 <_init-0x8048a03>
 291:	5f                   	pop    %edi
 292:	5f                   	pop    %edi
 293:	73 32                	jae    2c7 <_init-0x80489cd>
 295:	5f                   	pop    %edi
 296:	6c                   	insb   (%dx),%es:(%edi)
 297:	65 6e                	outsb  %gs:(%esi),(%dx)
 299:	00 5f 49             	add    %bl,0x49(%edi)
 29c:	4f                   	dec    %edi
 29d:	5f                   	pop    %edi
 29e:	73 61                	jae    301 <_init-0x8048993>
 2a0:	76 65                	jbe    307 <_init-0x804898d>
 2a2:	5f                   	pop    %edi
 2a3:	62 61 73             	bound  %esp,0x73(%ecx)
 2a6:	65 00 5f 49          	add    %bl,%gs:0x49(%edi)
 2aa:	53                   	push   %ebx
 2ab:	63 6e 74             	arpl   %bp,0x74(%esi)
 2ae:	72 6c                	jb     31c <_init-0x8048978>
 2b0:	00 69 70             	add    %ch,0x70(%ecx)
 2b3:	61                   	popa   
 2b4:	64                   	fs
 2b5:	64                   	fs
 2b6:	72 5f                	jb     317 <_init-0x804897d>
 2b8:	67                   	addr16
 2b9:	65                   	gs
 2ba:	74 00                	je     2bc <_init-0x80489d8>
 2bc:	68 65 78 31 36       	push   $0x36317865
 2c1:	5f                   	pop    %edi
 2c2:	73 65                	jae    329 <_init-0x804896b>
 2c4:	74 00                	je     2c6 <_init-0x80489ce>
 2c6:	6f                   	outsl  %ds:(%esi),(%dx)
 2c7:	63 74 31 36          	arpl   %si,0x36(%ecx,%esi,1)
 2cb:	5f                   	pop    %edi
 2cc:	73 65                	jae    333 <_init-0x8048961>
 2ce:	74 00                	je     2d0 <_init-0x80489c4>
 2d0:	5f                   	pop    %edi
 2d1:	49                   	dec    %ecx
 2d2:	53                   	push   %ebx
 2d3:	64 69 67 69 74 00 6f 63 	imul   $0x636f0074,%fs:0x69(%edi),%esp
 2db:	74 36                	je     313 <_init-0x8048981>
 2dd:	34 5f                	xor    $0x5f,%al
 2df:	67                   	addr16
 2e0:	65                   	gs
 2e1:	74 00                	je     2e3 <_init-0x80489b1>
 2e3:	5f                   	pop    %edi
 2e4:	5f                   	pop    %edi
 2e5:	71 75                	jno    35c <_init-0x8048938>
 2e7:	61                   	popa   
 2e8:	64                   	fs
 2e9:	5f                   	pop    %edi
 2ea:	74 00                	je     2ec <_init-0x80489a8>
 2ec:	5f                   	pop    %edi
 2ed:	49                   	dec    %ecx
 2ee:	53                   	push   %ebx
 2ef:	73 70                	jae    361 <_init-0x8048933>
 2f1:	61                   	popa   
 2f2:	63 65 00             	arpl   %sp,0x0(%ebp)
 2f5:	62 69 6e             	bound  %ebp,0x6e(%ecx)
 2f8:	36                   	ss
 2f9:	34 5f                	xor    $0x5f,%al
 2fb:	67                   	addr16
 2fc:	65                   	gs
 2fd:	74 00                	je     2ff <_init-0x8048995>
 2ff:	63 68 61             	arpl   %bp,0x61(%eax)
 302:	72 5f                	jb     363 <_init-0x8048931>
 304:	73 65                	jae    36b <_init-0x8048929>
 306:	74 00                	je     308 <_init-0x804898c>
 308:	5f                   	pop    %edi
 309:	5f                   	pop    %edi
 30a:	70 61                	jo     36d <_init-0x8048927>
 30c:	64 31 00             	xor    %eax,%fs:(%eax)
 30f:	5f                   	pop    %edi
 310:	5f                   	pop    %edi
 311:	70 61                	jo     374 <_init-0x8048920>
 313:	64 32 00             	xor    %fs:(%eax),%al
 316:	5f                   	pop    %edi
 317:	5f                   	pop    %edi
 318:	70 61                	jo     37b <_init-0x8048919>
 31a:	64 33 00             	xor    %fs:(%eax),%eax
 31d:	5f                   	pop    %edi
 31e:	5f                   	pop    %edi
 31f:	70 61                	jo     382 <_init-0x8048912>
 321:	64                   	fs
 322:	34 00                	xor    $0x0,%al
 324:	5f                   	pop    %edi
 325:	5f                   	pop    %edi
 326:	70 61                	jo     389 <_init-0x804890b>
 328:	64                   	fs
 329:	35 00 73 74 72       	xor    $0x72747300,%eax
 32e:	69 6e 67 5f 73 65 74 	imul   $0x7465735f,0x67(%esi),%ebp
 335:	00 5f 76             	add    %bl,0x76(%edi)
 338:	74 61                	je     39b <_init-0x80488f9>
 33a:	62 6c 65 5f          	bound  %ebp,0x5f(%ebp,%eiz,2)
 33e:	6f                   	outsl  %ds:(%esi),(%dx)
 33f:	66                   	data16
 340:	66                   	data16
 341:	73 65                	jae    3a8 <_init-0x80488ec>
 343:	74 00                	je     345 <_init-0x804894f>
 345:	69 70 70 6f 72 74 5f 	imul   $0x5f74726f,0x70(%eax),%esi
 34c:	73 65                	jae    3b3 <_init-0x80488e1>
 34e:	74 00                	je     350 <_init-0x8048944>
 350:	66                   	data16
 351:	67                   	addr16
 352:	65                   	gs
 353:	74 73                	je     3c8 <_init-0x80488cc>
 355:	00 6c 6f 6e          	add    %ch,0x6e(%edi,%ebp,2)
 359:	67 20 64 6f          	and    %ah,0x6f(%si)
 35d:	75 62                	jne    3c1 <_init-0x80488d3>
 35f:	6c                   	insb   (%dx),%es:(%edi)
 360:	65 00 73 70          	add    %dh,%gs:0x70(%ebx)
 364:	72 69                	jb     3cf <_init-0x80488c5>
 366:	6e                   	outsb  %ds:(%esi),(%dx)
 367:	74 66                	je     3cf <_init-0x80488c5>
 369:	00 77 72             	add    %dh,0x72(%edi)
 36c:	69 74 65 5f 73 65 63 74 	imul   $0x74636573,0x5f(%ebp,%eiz,2),%esi
 374:	69 6f 6e 00 76 61 72 	imul   $0x72617600,0x6e(%edi),%ebp
 37b:	5f                   	pop    %edi
 37c:	67                   	addr16
 37d:	65                   	gs
 37e:	74 00                	je     380 <_init-0x8048914>
 380:	62 6f 6f             	bound  %ebp,0x6f(%edi)
 383:	6c                   	insb   (%dx),%es:(%edi)
 384:	5f                   	pop    %edi
 385:	73 65                	jae    3ec <_init-0x80488a8>
 387:	74 00                	je     389 <_init-0x804890b>
 389:	72 6f                	jb     3fa <_init-0x804889a>
 38b:	6f                   	outsl  %ds:(%esi),(%dx)
 38c:	74 00                	je     38e <_init-0x8048906>
 38e:	62 69 6e             	bound  %ebp,0x6e(%ecx)
 391:	31 36                	xor    %esi,(%esi)
 393:	5f                   	pop    %edi
 394:	73 65                	jae    3fb <_init-0x8048899>
 396:	74 00                	je     398 <_init-0x80488fc>
 398:	5f                   	pop    %edi
 399:	49                   	dec    %ecx
 39a:	53                   	push   %ebx
 39b:	70 75                	jo     412 <_init-0x8048882>
 39d:	6e                   	outsb  %ds:(%esi),(%dx)
 39e:	63 74 00 5f          	arpl   %si,0x5f(%eax,%eax,1)
 3a2:	49                   	dec    %ecx
 3a3:	4f                   	dec    %edi
 3a4:	5f                   	pop    %edi
 3a5:	72 65                	jb     40c <_init-0x8048888>
 3a7:	61                   	popa   
 3a8:	64                   	fs
 3a9:	5f                   	pop    %edi
 3aa:	65 6e                	outsb  %gs:(%esi),(%dx)
 3ac:	64 00 5f 49          	add    %bl,%fs:0x49(%edi)
 3b0:	53                   	push   %ebx
 3b1:	70 72                	jo     425 <_init-0x804886f>
 3b3:	69 6e 74 00 73 68 6f 	imul   $0x6f687300,0x74(%esi),%ebp
 3ba:	72 74                	jb     430 <_init-0x8048864>
 3bc:	20 69 6e             	and    %ch,0x6e(%ecx)
 3bf:	74 00                	je     3c1 <_init-0x80488d3>
 3c1:	53                   	push   %ebx
 3c2:	54                   	push   %esp
 3c3:	55                   	push   %ebp
 3c4:	42                   	inc    %edx
 3c5:	5f                   	pop    %edi
 3c6:	53                   	push   %ebx
 3c7:	54                   	push   %esp
 3c8:	52                   	push   %edx
 3c9:	49                   	dec    %ecx
 3ca:	4e                   	dec    %esi
 3cb:	47                   	inc    %edi
 3cc:	00 72 67             	add    %dh,0x67(%edx)
 3cf:	62 5f 67             	bound  %ebx,0x67(%edi)
 3d2:	65                   	gs
 3d3:	74 00                	je     3d5 <_init-0x80488bf>
 3d5:	71 75                	jno    44c <_init-0x8048848>
 3d7:	6f                   	outsl  %ds:(%esi),(%dx)
 3d8:	74 65                	je     43f <_init-0x8048855>
 3da:	00 72 61             	add    %dh,0x61(%edx)
 3dd:	74 69                	je     448 <_init-0x804884c>
 3df:	6f                   	outsl  %ds:(%esi),(%dx)
 3e0:	5f                   	pop    %edi
 3e1:	73 65                	jae    448 <_init-0x804884c>
 3e3:	74 00                	je     3e5 <_init-0x80488af>
 3e5:	66                   	data16
 3e6:	70 72                	jo     45a <_init-0x804883a>
 3e8:	69 6e 74 66 00 76 6f 	imul   $0x6f760066,0x74(%esi),%ebp
 3ef:	69 64 5f 67 65 74 00 63 	imul   $0x63007465,0x67(%edi,%ebx,2),%esp
 3f7:	79 6d                	jns    466 <_init-0x804882e>
 3f9:	6b 5f 73 65          	imul   $0x65,0x73(%edi),%ebx
 3fd:	74 00                	je     3ff <_init-0x8048895>
 3ff:	5f                   	pop    %edi
 400:	49                   	dec    %ecx
 401:	53                   	push   %ebx
 402:	67 72 61             	addr16 jb 466 <_init-0x804882e>
 405:	70 68                	jo     46f <_init-0x8048825>
 407:	00 75 69             	add    %dh,0x69(%ebp)
 40a:	6e                   	outsb  %ds:(%esi),(%dx)
 40b:	74 5f                	je     46c <_init-0x8048828>
 40d:	73 65                	jae    474 <_init-0x8048820>
 40f:	74 00                	je     411 <_init-0x8048883>
 411:	68 65 78 31 36       	push   $0x36317865
 416:	5f                   	pop    %edi
 417:	67                   	addr16
 418:	65                   	gs
 419:	74 00                	je     41b <_init-0x8048879>
 41b:	6f                   	outsl  %ds:(%esi),(%dx)
 41c:	63 74 31 36          	arpl   %si,0x36(%ecx,%esi,1)
 420:	5f                   	pop    %edi
 421:	67                   	addr16
 422:	65                   	gs
 423:	74 00                	je     425 <_init-0x804886f>
 425:	5f                   	pop    %edi
 426:	6c                   	insb   (%dx),%es:(%edi)
 427:	6f                   	outsl  %ds:(%esi),(%dx)
 428:	63 6b 00             	arpl   %bp,0x0(%ebx)
 42b:	63 6f 6e             	arpl   %bp,0x6e(%edi)
 42e:	66                   	data16
 42f:	2e 63 00             	arpl   %ax,%cs:(%eax)
 432:	5f                   	pop    %edi
 433:	6f                   	outsl  %ds:(%esi),(%dx)
 434:	6c                   	insb   (%dx),%es:(%edi)
 435:	64                   	fs
 436:	5f                   	pop    %edi
 437:	6f                   	outsl  %ds:(%esi),(%dx)
 438:	66                   	data16
 439:	66                   	data16
 43a:	73 65                	jae    4a1 <_init-0x80487f3>
 43c:	74 00                	je     43e <_init-0x8048856>
 43e:	5f                   	pop    %edi
 43f:	49                   	dec    %ecx
 440:	4f                   	dec    %edi
 441:	5f                   	pop    %edi
 442:	46                   	inc    %esi
 443:	49                   	dec    %ecx
 444:	4c                   	dec    %esp
 445:	45                   	inc    %ebp
 446:	00 71 75             	add    %dh,0x75(%ecx)
 449:	65                   	gs
 44a:	75 65                	jne    4b1 <_init-0x80487e3>
 44c:	00 5f 49             	add    %bl,0x49(%edi)
 44f:	53                   	push   %ebx
 450:	61                   	popa   
 451:	6c                   	insb   (%dx),%es:(%edi)
 452:	70 68                	jo     4bc <_init-0x80487d8>
 454:	61                   	popa   
 455:	00 47 4e             	add    %al,0x4e(%edi)
 458:	55                   	push   %ebp
 459:	20 43 20             	and    %al,0x20(%ebx)
 45c:	34 2e                	xor    $0x2e,%al
 45e:	36 2e 33 00          	ss xor %cs:%ss:(%eax),%eax
 462:	63 68 61             	arpl   %bp,0x61(%eax)
 465:	72 5f                	jb     4c6 <_init-0x80487ce>
 467:	67                   	addr16
 468:	65                   	gs
 469:	74 00                	je     46b <_init-0x8048829>
 46b:	65 6e                	outsb  %gs:(%esi),(%dx)
 46d:	74 72                	je     4e1 <_init-0x80487b3>
 46f:	79 00                	jns    471 <_init-0x8048823>
 471:	68 65 78 38 5f       	push   $0x5f387865
 476:	73 65                	jae    4dd <_init-0x80487b7>
 478:	74 00                	je     47a <_init-0x804881a>
 47a:	73 74                	jae    4f0 <_init-0x80487a4>
 47c:	72 69                	jb     4e7 <_init-0x80487ad>
 47e:	6e                   	outsb  %ds:(%esi),(%dx)
 47f:	67 5f                	addr16 pop %edi
 481:	67                   	addr16
 482:	65                   	gs
 483:	74 00                	je     485 <_init-0x804880f>
 485:	63 6f 6e             	arpl   %bp,0x6e(%edi)
 488:	66 5f                	pop    %di
 48a:	73 61                	jae    4ed <_init-0x80487a7>
 48c:	76 65                	jbe    4f3 <_init-0x80487a1>
 48e:	00 75 6e             	add    %dh,0x6e(%ebp)
 491:	73 69                	jae    4fc <_init-0x8048798>
 493:	67 6e                	outsb  %ds:(%si),(%dx)
 495:	65 64 20 63 68       	gs and %ah,%fs:%gs:0x68(%ebx)
 49a:	61                   	popa   
 49b:	72 00                	jb     49d <_init-0x80487f7>
 49d:	66                   	data16
 49e:	6c                   	insb   (%dx),%es:(%edi)
 49f:	6f                   	outsl  %ds:(%esi),(%dx)
 4a0:	61                   	popa   
 4a1:	74 5f                	je     502 <_init-0x8048792>
 4a3:	73 65                	jae    50a <_init-0x804878a>
 4a5:	74 00                	je     4a7 <_init-0x80487ed>
 4a7:	5f                   	pop    %edi
 4a8:	73 62                	jae    50c <_init-0x8048788>
 4aa:	75 66                	jne    512 <_init-0x8048782>
 4ac:	00 6c 69 6e          	add    %ch,0x6e(%ecx,%ebp,2)
 4b0:	65 00 74 5f 6e       	add    %dh,%gs:0x6e(%edi,%ebx,2)
 4b5:	61                   	popa   
 4b6:	6d                   	insl   (%dx),%es:(%edi)
 4b7:	65 00 5f 5f          	add    %bl,%gs:0x5f(%edi)
 4bb:	73 72                	jae    52f <_init-0x8048765>
 4bd:	63 00                	arpl   %ax,(%eax)
 4bf:	5f                   	pop    %edi
 4c0:	49                   	dec    %ecx
 4c1:	4f                   	dec    %edi
 4c2:	5f                   	pop    %edi
 4c3:	77 72                	ja     537 <_init-0x804875d>
 4c5:	69 74 65 5f 70 74 72 00 	imul   $0x727470,0x5f(%ebp,%eiz,2),%esi
 4cd:	69 70 70 6f 72 74 5f 	imul   $0x5f74726f,0x70(%eax),%esi
 4d4:	67                   	addr16
 4d5:	65                   	gs
 4d6:	74 00                	je     4d8 <_init-0x80487bc>
 4d8:	74 61                	je     53b <_init-0x8048759>
 4da:	69 6c 00 62 69 6e 38 5f 	imul   $0x5f386e69,0x62(%eax,%eax,1),%ebp
 4e2:	73 65                	jae    549 <_init-0x804874b>
 4e4:	74 00                	je     4e6 <_init-0x80487ae>
 4e6:	6f                   	outsl  %ds:(%esi),(%dx)
 4e7:	63 74 38 5f          	arpl   %si,0x5f(%eax,%edi,1)
 4eb:	73 65                	jae    552 <_init-0x8048742>
 4ed:	74 00                	je     4ef <_init-0x80487a5>
 4ef:	5f                   	pop    %edi
 4f0:	49                   	dec    %ecx
 4f1:	53                   	push   %ebx
 4f2:	61                   	popa   
 4f3:	6c                   	insb   (%dx),%es:(%edi)
 4f4:	6e                   	outsb  %ds:(%esi),(%dx)
 4f5:	75 6d                	jne    564 <_init-0x8048730>
 4f7:	00 73 74             	add    %dh,0x74(%ebx)
 4fa:	64 6f                	outsl  %fs:(%esi),(%dx)
 4fc:	75 74                	jne    572 <_init-0x8048722>
 4fe:	00 62 6f             	add    %ah,0x6f(%edx)
 501:	6f                   	outsl  %ds:(%esi),(%dx)
 502:	6c                   	insb   (%dx),%es:(%edi)
 503:	5f                   	pop    %edi
 504:	67                   	addr16
 505:	65                   	gs
 506:	74 00                	je     508 <_init-0x804878c>
 508:	62 69 6e             	bound  %ebp,0x6e(%ecx)
 50b:	31 36                	xor    %esi,(%esi)
 50d:	5f                   	pop    %edi
 50e:	67                   	addr16
 50f:	65                   	gs
 510:	74 00                	je     512 <_init-0x8048782>
 512:	5f                   	pop    %edi
 513:	5f                   	pop    %edi
 514:	6f                   	outsl  %ds:(%esi),(%dx)
 515:	66 66 5f             	data32 pop %di
 518:	74 00                	je     51a <_init-0x804877a>
 51a:	5f                   	pop    %edi
 51b:	49                   	dec    %ecx
 51c:	53                   	push   %ebx
 51d:	62 6c 61 6e          	bound  %ebp,0x6e(%ecx,%eiz,2)
 521:	6b 00 73             	imul   $0x73,(%eax),%eax
 524:	68 6f 72 74 20       	push   $0x2074726f
 529:	75 6e                	jne    599 <_init-0x80486fb>
 52b:	73 69                	jae    596 <_init-0x80486fe>
 52d:	67 6e                	outsb  %ds:(%si),(%dx)
 52f:	65 64 20 69 6e       	gs and %ch,%fs:%gs:0x6e(%ecx)
 534:	74 00                	je     536 <_init-0x804875e>
 536:	5f                   	pop    %edi
 537:	63 68 61             	arpl   %bp,0x61(%eax)
 53a:	69 6e 00 5f 49 53 75 	imul   $0x7553495f,0x0(%esi),%ebp
 541:	70 70                	jo     5b3 <_init-0x80486e1>
 543:	65                   	gs
 544:	72 00                	jb     546 <_init-0x804874e>
 546:	72 61                	jb     5a9 <_init-0x80486eb>
 548:	74 69                	je     5b3 <_init-0x80486e1>
 54a:	6f                   	outsl  %ds:(%esi),(%dx)
 54b:	5f                   	pop    %edi
 54c:	67                   	addr16
 54d:	65                   	gs
 54e:	74 00                	je     550 <_init-0x8048744>
 550:	5f                   	pop    %edi
 551:	66                   	data16
 552:	6c                   	insb   (%dx),%es:(%edi)
 553:	61                   	popa   
 554:	67 73 32             	addr16 jae 589 <_init-0x804870b>
 557:	00 5f 63             	add    %bl,0x63(%edi)
 55a:	75 72                	jne    5ce <_init-0x80486c6>
 55c:	5f                   	pop    %edi
 55d:	63 6f 6c             	arpl   %bp,0x6c(%edi)
 560:	75 6d                	jne    5cf <_init-0x80486c5>
 562:	6e                   	outsb  %ds:(%esi),(%dx)
 563:	00 76 61             	add    %dh,0x61(%esi)
 566:	6c                   	insb   (%dx),%es:(%edi)
 567:	75 65                	jne    5ce <_init-0x80486c6>
 569:	00 63 79             	add    %ah,0x79(%ebx)
 56c:	6d                   	insl   (%dx),%es:(%edi)
 56d:	6b 5f 67 65          	imul   $0x65,0x67(%edi),%ebx
 571:	74 00                	je     573 <_init-0x8048721>
 573:	5f                   	pop    %edi
 574:	5f                   	pop    %edi
 575:	6f                   	outsl  %ds:(%esi),(%dx)
 576:	66                   	data16
 577:	66                   	data16
 578:	36                   	ss
 579:	34 5f                	xor    $0x5f,%al
 57b:	74 00                	je     57d <_init-0x8048717>
 57d:	5f                   	pop    %edi
 57e:	75 6e                	jne    5ee <_init-0x80486a6>
 580:	75 73                	jne    5f5 <_init-0x804869f>
 582:	65 64 32 00          	gs xor %fs:%gs:(%eax),%al
 586:	5f                   	pop    %edi
 587:	49                   	dec    %ecx
 588:	4f                   	dec    %edi
 589:	5f                   	pop    %edi
 58a:	62 75 66             	bound  %esi,0x66(%ebp)
 58d:	5f                   	pop    %edi
 58e:	62 61 73             	bound  %esp,0x73(%ecx)
 591:	65 00 75 69          	add    %dh,%gs:0x69(%ebp)
 595:	6e                   	outsb  %ds:(%esi),(%dx)
 596:	74 5f                	je     5f7 <_init-0x804869d>
 598:	67                   	addr16
 599:	65                   	gs
 59a:	74 00                	je     59c <_init-0x80486f8>

Disassembly of section .debug_loc:

00000000 <.debug_loc>:
       0:	0c 00                	or     $0x0,%al
       2:	00 00                	add    %al,(%eax)
       4:	0d 00 00 00 02       	or     $0x2000000,%eax
       9:	00 74 04 0d          	add    %dh,0xd(%esp,%eax,1)
       d:	00 00                	add    %al,(%eax)
       f:	00 10                	add    %dl,(%eax)
      11:	00 00                	add    %al,(%eax)
      13:	00 02                	add    %al,(%edx)
      15:	00 74 08 10          	add    %dh,0x10(%eax,%ecx,1)
      19:	00 00                	add    %al,(%eax)
      1b:	00 31                	add    %dh,(%ecx)
      1d:	00 00                	add    %al,(%eax)
      1f:	00 02                	add    %al,(%edx)
      21:	00 74 20 31          	add    %dh,0x31(%eax,%eiz,1)
      25:	00 00                	add    %al,(%eax)
      27:	00 32                	add    %dh,(%edx)
      29:	00 00                	add    %al,(%eax)
      2b:	00 02                	add    %al,(%edx)
      2d:	00 74 08 32          	add    %dh,0x32(%eax,%ecx,1)
      31:	00 00                	add    %al,(%eax)
      33:	00 33                	add    %dh,(%ebx)
      35:	00 00                	add    %al,(%eax)
      37:	00 02                	add    %al,(%edx)
      39:	00 74 04 00          	add    %dh,0x0(%esp,%eax,1)
      3d:	00 00                	add    %al,(%eax)
      3f:	00 00                	add    %al,(%eax)
      41:	00 00                	add    %al,(%eax)
      43:	00 33                	add    %dh,(%ebx)
      45:	00 00                	add    %al,(%eax)
      47:	00 34 00             	add    %dh,(%eax,%eax,1)
      4a:	00 00                	add    %al,(%eax)
      4c:	02 00                	add    (%eax),%al
      4e:	74 04                	je     54 <_init-0x8048c40>
      50:	34 00                	xor    $0x0,%al
      52:	00 00                	add    %al,(%eax)
      54:	37                   	aaa    
      55:	00 00                	add    %al,(%eax)
      57:	00 02                	add    %al,(%edx)
      59:	00 74 08 37          	add    %dh,0x37(%eax,%ecx,1)
      5d:	00 00                	add    %al,(%eax)
      5f:	00 58 00             	add    %bl,0x0(%eax)
      62:	00 00                	add    %al,(%eax)
      64:	02 00                	add    (%eax),%al
      66:	74 20                	je     88 <_init-0x8048c0c>
      68:	58                   	pop    %eax
      69:	00 00                	add    %al,(%eax)
      6b:	00 59 00             	add    %bl,0x0(%ecx)
      6e:	00 00                	add    %al,(%eax)
      70:	02 00                	add    (%eax),%al
      72:	74 08                	je     7c <_init-0x8048c18>
      74:	59                   	pop    %ecx
      75:	00 00                	add    %al,(%eax)
      77:	00 5a 00             	add    %bl,0x0(%edx)
      7a:	00 00                	add    %al,(%eax)
      7c:	02 00                	add    (%eax),%al
      7e:	74 04                	je     84 <_init-0x8048c10>
      80:	00 00                	add    %al,(%eax)
      82:	00 00                	add    %al,(%eax)
      84:	00 00                	add    %al,(%eax)
      86:	00 00                	add    %al,(%eax)
      88:	5a                   	pop    %edx
      89:	00 00                	add    %al,(%eax)
      8b:	00 5b 00             	add    %bl,0x0(%ebx)
      8e:	00 00                	add    %al,(%eax)
      90:	02 00                	add    (%eax),%al
      92:	74 04                	je     98 <_init-0x8048bfc>
      94:	5b                   	pop    %ebx
      95:	00 00                	add    %al,(%eax)
      97:	00 5e 00             	add    %bl,0x0(%esi)
      9a:	00 00                	add    %al,(%eax)
      9c:	02 00                	add    (%eax),%al
      9e:	74 08                	je     a8 <_init-0x8048bec>
      a0:	5e                   	pop    %esi
      a1:	00 00                	add    %al,(%eax)
      a3:	00 7f 00             	add    %bh,0x0(%edi)
      a6:	00 00                	add    %al,(%eax)
      a8:	02 00                	add    (%eax),%al
      aa:	74 20                	je     cc <_init-0x8048bc8>
      ac:	7f 00                	jg     ae <_init-0x8048be6>
      ae:	00 00                	add    %al,(%eax)
      b0:	80 00 00             	addb   $0x0,(%eax)
      b3:	00 02                	add    %al,(%edx)
      b5:	00 74 08 80          	add    %dh,-0x80(%eax,%ecx,1)
      b9:	00 00                	add    %al,(%eax)
      bb:	00 81 00 00 00 02    	add    %al,0x2000000(%ecx)
      c1:	00 74 04 00          	add    %dh,0x0(%esp,%eax,1)
      c5:	00 00                	add    %al,(%eax)
      c7:	00 00                	add    %al,(%eax)
      c9:	00 00                	add    %al,(%eax)
      cb:	00 81 00 00 00 82    	add    %al,-0x7e000000(%ecx)
      d1:	00 00                	add    %al,(%eax)
      d3:	00 02                	add    %al,(%edx)
      d5:	00 74 04 82          	add    %dh,-0x7e(%esp,%eax,1)
      d9:	00 00                	add    %al,(%eax)
      db:	00 85 00 00 00 02    	add    %al,0x2000000(%ebp)
      e1:	00 74 08 85          	add    %dh,-0x7b(%eax,%ecx,1)
      e5:	00 00                	add    %al,(%eax)
      e7:	00 a6 00 00 00 02    	add    %ah,0x2000000(%esi)
      ed:	00 74 20 a6          	add    %dh,-0x5a(%eax,%eiz,1)
      f1:	00 00                	add    %al,(%eax)
      f3:	00 a7 00 00 00 02    	add    %ah,0x2000000(%edi)
      f9:	00 74 08 a7          	add    %dh,-0x59(%eax,%ecx,1)
      fd:	00 00                	add    %al,(%eax)
      ff:	00 a8 00 00 00 02    	add    %ch,0x2000000(%eax)
     105:	00 74 04 00          	add    %dh,0x0(%esp,%eax,1)
     109:	00 00                	add    %al,(%eax)
     10b:	00 00                	add    %al,(%eax)
     10d:	00 00                	add    %al,(%eax)
     10f:	00 a8 00 00 00 a9    	add    %ch,-0x57000000(%eax)
     115:	00 00                	add    %al,(%eax)
     117:	00 02                	add    %al,(%edx)
     119:	00 74 04 a9          	add    %dh,-0x57(%esp,%eax,1)
     11d:	00 00                	add    %al,(%eax)
     11f:	00 ac 00 00 00 02 00 	add    %ch,0x20000(%eax,%eax,1)
     126:	74 08                	je     130 <_init-0x8048b64>
     128:	ac                   	lods   %ds:(%esi),%al
     129:	00 00                	add    %al,(%eax)
     12b:	00 cd                	add    %cl,%ch
     12d:	00 00                	add    %al,(%eax)
     12f:	00 02                	add    %al,(%edx)
     131:	00 74 20 cd          	add    %dh,-0x33(%eax,%eiz,1)
     135:	00 00                	add    %al,(%eax)
     137:	00 ce                	add    %cl,%dh
     139:	00 00                	add    %al,(%eax)
     13b:	00 02                	add    %al,(%edx)
     13d:	00 74 08 ce          	add    %dh,-0x32(%eax,%ecx,1)
     141:	00 00                	add    %al,(%eax)
     143:	00 cf                	add    %cl,%bh
     145:	00 00                	add    %al,(%eax)
     147:	00 02                	add    %al,(%edx)
     149:	00 74 04 00          	add    %dh,0x0(%esp,%eax,1)
     14d:	00 00                	add    %al,(%eax)
     14f:	00 00                	add    %al,(%eax)
     151:	00 00                	add    %al,(%eax)
     153:	00 cf                	add    %cl,%bh
     155:	00 00                	add    %al,(%eax)
     157:	00 d0                	add    %dl,%al
     159:	00 00                	add    %al,(%eax)
     15b:	00 02                	add    %al,(%edx)
     15d:	00 74 04 d0          	add    %dh,-0x30(%esp,%eax,1)
     161:	00 00                	add    %al,(%eax)
     163:	00 d3                	add    %dl,%bl
     165:	00 00                	add    %al,(%eax)
     167:	00 02                	add    %al,(%edx)
     169:	00 74 08 d3          	add    %dh,-0x2d(%eax,%ecx,1)
     16d:	00 00                	add    %al,(%eax)
     16f:	00 f4                	add    %dh,%ah
     171:	00 00                	add    %al,(%eax)
     173:	00 02                	add    %al,(%edx)
     175:	00 74 20 f4          	add    %dh,-0xc(%eax,%eiz,1)
     179:	00 00                	add    %al,(%eax)
     17b:	00 f5                	add    %dh,%ch
     17d:	00 00                	add    %al,(%eax)
     17f:	00 02                	add    %al,(%edx)
     181:	00 74 08 f5          	add    %dh,-0xb(%eax,%ecx,1)
     185:	00 00                	add    %al,(%eax)
     187:	00 f6                	add    %dh,%dh
     189:	00 00                	add    %al,(%eax)
     18b:	00 02                	add    %al,(%edx)
     18d:	00 74 04 00          	add    %dh,0x0(%esp,%eax,1)
     191:	00 00                	add    %al,(%eax)
     193:	00 00                	add    %al,(%eax)
     195:	00 00                	add    %al,(%eax)
     197:	00 f6                	add    %dh,%dh
     199:	00 00                	add    %al,(%eax)
     19b:	00 f7                	add    %dh,%bh
     19d:	00 00                	add    %al,(%eax)
     19f:	00 02                	add    %al,(%edx)
     1a1:	00 74 04 f7          	add    %dh,-0x9(%esp,%eax,1)
     1a5:	00 00                	add    %al,(%eax)
     1a7:	00 fa                	add    %bh,%dl
     1a9:	00 00                	add    %al,(%eax)
     1ab:	00 02                	add    %al,(%edx)
     1ad:	00 74 08 fa          	add    %dh,-0x6(%eax,%ecx,1)
     1b1:	00 00                	add    %al,(%eax)
     1b3:	00 1b                	add    %bl,(%ebx)
     1b5:	01 00                	add    %eax,(%eax)
     1b7:	00 02                	add    %al,(%edx)
     1b9:	00 74 20 1b          	add    %dh,0x1b(%eax,%eiz,1)
     1bd:	01 00                	add    %eax,(%eax)
     1bf:	00 1c 01             	add    %bl,(%ecx,%eax,1)
     1c2:	00 00                	add    %al,(%eax)
     1c4:	02 00                	add    (%eax),%al
     1c6:	74 08                	je     1d0 <_init-0x8048ac4>
     1c8:	1c 01                	sbb    $0x1,%al
     1ca:	00 00                	add    %al,(%eax)
     1cc:	1d 01 00 00 02       	sbb    $0x2000001,%eax
     1d1:	00 74 04 00          	add    %dh,0x0(%esp,%eax,1)
     1d5:	00 00                	add    %al,(%eax)
     1d7:	00 00                	add    %al,(%eax)
     1d9:	00 00                	add    %al,(%eax)
     1db:	00 1d 01 00 00 1e    	add    %bl,0x1e000001
     1e1:	01 00                	add    %eax,(%eax)
     1e3:	00 02                	add    %al,(%edx)
     1e5:	00 74 04 1e          	add    %dh,0x1e(%esp,%eax,1)
     1e9:	01 00                	add    %eax,(%eax)
     1eb:	00 21                	add    %ah,(%ecx)
     1ed:	01 00                	add    %eax,(%eax)
     1ef:	00 02                	add    %al,(%edx)
     1f1:	00 74 08 21          	add    %dh,0x21(%eax,%ecx,1)
     1f5:	01 00                	add    %eax,(%eax)
     1f7:	00 42 01             	add    %al,0x1(%edx)
     1fa:	00 00                	add    %al,(%eax)
     1fc:	02 00                	add    (%eax),%al
     1fe:	74 20                	je     220 <_init-0x8048a74>
     200:	42                   	inc    %edx
     201:	01 00                	add    %eax,(%eax)
     203:	00 43 01             	add    %al,0x1(%ebx)
     206:	00 00                	add    %al,(%eax)
     208:	02 00                	add    (%eax),%al
     20a:	74 08                	je     214 <_init-0x8048a80>
     20c:	43                   	inc    %ebx
     20d:	01 00                	add    %eax,(%eax)
     20f:	00 44 01 00          	add    %al,0x0(%ecx,%eax,1)
     213:	00 02                	add    %al,(%edx)
     215:	00 74 04 00          	add    %dh,0x0(%esp,%eax,1)
     219:	00 00                	add    %al,(%eax)
     21b:	00 00                	add    %al,(%eax)
     21d:	00 00                	add    %al,(%eax)
     21f:	00 44 01 00          	add    %al,0x0(%ecx,%eax,1)
     223:	00 45 01             	add    %al,0x1(%ebp)
     226:	00 00                	add    %al,(%eax)
     228:	02 00                	add    (%eax),%al
     22a:	74 04                	je     230 <_init-0x8048a64>
     22c:	45                   	inc    %ebp
     22d:	01 00                	add    %eax,(%eax)
     22f:	00 48 01             	add    %cl,0x1(%eax)
     232:	00 00                	add    %al,(%eax)
     234:	02 00                	add    (%eax),%al
     236:	74 08                	je     240 <_init-0x8048a54>
     238:	48                   	dec    %eax
     239:	01 00                	add    %eax,(%eax)
     23b:	00 69 01             	add    %ch,0x1(%ecx)
     23e:	00 00                	add    %al,(%eax)
     240:	02 00                	add    (%eax),%al
     242:	74 20                	je     264 <_init-0x8048a30>
     244:	69 01 00 00 6a 01    	imul   $0x16a0000,(%ecx),%eax
     24a:	00 00                	add    %al,(%eax)
     24c:	02 00                	add    (%eax),%al
     24e:	74 08                	je     258 <_init-0x8048a3c>
     250:	6a 01                	push   $0x1
     252:	00 00                	add    %al,(%eax)
     254:	6b 01 00             	imul   $0x0,(%ecx),%eax
     257:	00 02                	add    %al,(%edx)
     259:	00 74 04 00          	add    %dh,0x0(%esp,%eax,1)
     25d:	00 00                	add    %al,(%eax)
     25f:	00 00                	add    %al,(%eax)
     261:	00 00                	add    %al,(%eax)
     263:	00 6b 01             	add    %ch,0x1(%ebx)
     266:	00 00                	add    %al,(%eax)
     268:	6c                   	insb   (%dx),%es:(%edi)
     269:	01 00                	add    %eax,(%eax)
     26b:	00 02                	add    %al,(%edx)
     26d:	00 74 04 6c          	add    %dh,0x6c(%esp,%eax,1)
     271:	01 00                	add    %eax,(%eax)
     273:	00 6f 01             	add    %ch,0x1(%edi)
     276:	00 00                	add    %al,(%eax)
     278:	02 00                	add    (%eax),%al
     27a:	74 08                	je     284 <_init-0x8048a10>
     27c:	6f                   	outsl  %ds:(%esi),(%dx)
     27d:	01 00                	add    %eax,(%eax)
     27f:	00 90 01 00 00 02    	add    %dl,0x2000001(%eax)
     285:	00 74 20 90          	add    %dh,-0x70(%eax,%eiz,1)
     289:	01 00                	add    %eax,(%eax)
     28b:	00 91 01 00 00 02    	add    %dl,0x2000001(%ecx)
     291:	00 74 08 91          	add    %dh,-0x6f(%eax,%ecx,1)
     295:	01 00                	add    %eax,(%eax)
     297:	00 92 01 00 00 02    	add    %dl,0x2000001(%edx)
     29d:	00 74 04 00          	add    %dh,0x0(%esp,%eax,1)
     2a1:	00 00                	add    %al,(%eax)
     2a3:	00 00                	add    %al,(%eax)
     2a5:	00 00                	add    %al,(%eax)
     2a7:	00 92 01 00 00 93    	add    %dl,-0x6cffffff(%edx)
     2ad:	01 00                	add    %eax,(%eax)
     2af:	00 02                	add    %al,(%edx)
     2b1:	00 74 04 93          	add    %dh,-0x6d(%esp,%eax,1)
     2b5:	01 00                	add    %eax,(%eax)
     2b7:	00 96 01 00 00 02    	add    %dl,0x2000001(%esi)
     2bd:	00 74 08 96          	add    %dh,-0x6a(%eax,%ecx,1)
     2c1:	01 00                	add    %eax,(%eax)
     2c3:	00 b7 01 00 00 02    	add    %dh,0x2000001(%edi)
     2c9:	00 74 20 b7          	add    %dh,-0x49(%eax,%eiz,1)
     2cd:	01 00                	add    %eax,(%eax)
     2cf:	00 b8 01 00 00 02    	add    %bh,0x2000001(%eax)
     2d5:	00 74 08 b8          	add    %dh,-0x48(%eax,%ecx,1)
     2d9:	01 00                	add    %eax,(%eax)
     2db:	00 b9 01 00 00 02    	add    %bh,0x2000001(%ecx)
     2e1:	00 74 04 00          	add    %dh,0x0(%esp,%eax,1)
     2e5:	00 00                	add    %al,(%eax)
     2e7:	00 00                	add    %al,(%eax)
     2e9:	00 00                	add    %al,(%eax)
     2eb:	00 b9 01 00 00 ba    	add    %bh,-0x45ffffff(%ecx)
     2f1:	01 00                	add    %eax,(%eax)
     2f3:	00 02                	add    %al,(%edx)
     2f5:	00 74 04 ba          	add    %dh,-0x46(%esp,%eax,1)
     2f9:	01 00                	add    %eax,(%eax)
     2fb:	00 bd 01 00 00 02    	add    %bh,0x2000001(%ebp)
     301:	00 74 08 bd          	add    %dh,-0x43(%eax,%ecx,1)
     305:	01 00                	add    %eax,(%eax)
     307:	00 de                	add    %bl,%dh
     309:	01 00                	add    %eax,(%eax)
     30b:	00 02                	add    %al,(%edx)
     30d:	00 74 20 de          	add    %dh,-0x22(%eax,%eiz,1)
     311:	01 00                	add    %eax,(%eax)
     313:	00 df                	add    %bl,%bh
     315:	01 00                	add    %eax,(%eax)
     317:	00 02                	add    %al,(%edx)
     319:	00 74 08 df          	add    %dh,-0x21(%eax,%ecx,1)
     31d:	01 00                	add    %eax,(%eax)
     31f:	00 e0                	add    %ah,%al
     321:	01 00                	add    %eax,(%eax)
     323:	00 02                	add    %al,(%edx)
     325:	00 74 04 00          	add    %dh,0x0(%esp,%eax,1)
     329:	00 00                	add    %al,(%eax)
     32b:	00 00                	add    %al,(%eax)
     32d:	00 00                	add    %al,(%eax)
     32f:	00 e0                	add    %ah,%al
     331:	01 00                	add    %eax,(%eax)
     333:	00 e3                	add    %ah,%bl
     335:	01 00                	add    %eax,(%eax)
     337:	00 02                	add    %al,(%edx)
     339:	00 74 04 e3          	add    %dh,-0x1d(%esp,%eax,1)
     33d:	01 00                	add    %eax,(%eax)
     33f:	00 2a                	add    %ch,(%edx)
     341:	02 00                	add    (%eax),%al
     343:	00 02                	add    %al,(%edx)
     345:	00 74 30 2a          	add    %dh,0x2a(%eax,%esi,1)
     349:	02 00                	add    (%eax),%al
     34b:	00 2b                	add    %ch,(%ebx)
     34d:	02 00                	add    (%eax),%al
     34f:	00 02                	add    %al,(%edx)
     351:	00 74 04 00          	add    %dh,0x0(%esp,%eax,1)
     355:	00 00                	add    %al,(%eax)
     357:	00 00                	add    %al,(%eax)
     359:	00 00                	add    %al,(%eax)
     35b:	00 fe                	add    %bh,%dh
     35d:	01 00                	add    %eax,(%eax)
     35f:	00 27                	add    %ah,(%edi)
     361:	02 00                	add    (%eax),%al
     363:	00 06                	add    %al,(%esi)
     365:	00 03                	add    %al,(%ebx)
     367:	24 e0                	and    $0xe0,%al
     369:	04 08                	add    $0x8,%al
     36b:	9f                   	lahf   
     36c:	00 00                	add    %al,(%eax)
     36e:	00 00                	add    %al,(%eax)
     370:	00 00                	add    %al,(%eax)
     372:	00 00                	add    %al,(%eax)
     374:	fe 01                	incb   (%ecx)
     376:	00 00                	add    %al,(%eax)
     378:	27                   	daa    
     379:	02 00                	add    (%eax),%al
     37b:	00 02                	add    %al,(%edx)
     37d:	00 91 04 00 00 00    	add    %dl,0x4(%ecx)
     383:	00 00                	add    %al,(%eax)
     385:	00 00                	add    %al,(%eax)
     387:	00 2b                	add    %ch,(%ebx)
     389:	02 00                	add    (%eax),%al
     38b:	00 2e                	add    %ch,(%esi)
     38d:	02 00                	add    (%eax),%al
     38f:	00 02                	add    %al,(%edx)
     391:	00 74 04 2e          	add    %dh,0x2e(%esp,%eax,1)
     395:	02 00                	add    (%eax),%al
     397:	00 77 02             	add    %dh,0x2(%edi)
     39a:	00 00                	add    %al,(%eax)
     39c:	02 00                	add    (%eax),%al
     39e:	74 30                	je     3d0 <_init-0x80488c4>
     3a0:	77 02                	ja     3a4 <_init-0x80488f0>
     3a2:	00 00                	add    %al,(%eax)
     3a4:	78 02                	js     3a8 <_init-0x80488ec>
     3a6:	00 00                	add    %al,(%eax)
     3a8:	02 00                	add    (%eax),%al
     3aa:	74 04                	je     3b0 <_init-0x80488e4>
     3ac:	00 00                	add    %al,(%eax)
     3ae:	00 00                	add    %al,(%eax)
     3b0:	00 00                	add    %al,(%eax)
     3b2:	00 00                	add    %al,(%eax)
     3b4:	49                   	dec    %ecx
     3b5:	02 00                	add    (%eax),%al
     3b7:	00 74 02 00          	add    %dh,0x0(%edx,%eax,1)
     3bb:	00 06                	add    %al,(%esi)
     3bd:	00 03                	add    %al,(%ebx)
     3bf:	27                   	daa    
     3c0:	e0 04                	loopne 3c6 <_init-0x80488ce>
     3c2:	08 9f 00 00 00 00    	or     %bl,0x0(%edi)
     3c8:	00 00                	add    %al,(%eax)
     3ca:	00 00                	add    %al,(%eax)
     3cc:	49                   	dec    %ecx
     3cd:	02 00                	add    (%eax),%al
     3cf:	00 74 02 00          	add    %dh,0x0(%edx,%eax,1)
     3d3:	00 02                	add    %al,(%edx)
     3d5:	00 91 04 00 00 00    	add    %dl,0x4(%ecx)
     3db:	00 00                	add    %al,(%eax)
     3dd:	00 00                	add    %al,(%eax)
     3df:	00 78 02             	add    %bh,0x2(%eax)
     3e2:	00 00                	add    %al,(%eax)
     3e4:	7b 02                	jnp    3e8 <_init-0x80488ac>
     3e6:	00 00                	add    %al,(%eax)
     3e8:	02 00                	add    (%eax),%al
     3ea:	74 04                	je     3f0 <_init-0x80488a4>
     3ec:	7b 02                	jnp    3f0 <_init-0x80488a4>
     3ee:	00 00                	add    %al,(%eax)
     3f0:	c4 02                	les    (%edx),%eax
     3f2:	00 00                	add    %al,(%eax)
     3f4:	02 00                	add    (%eax),%al
     3f6:	74 30                	je     428 <_init-0x804886c>
     3f8:	c4 02                	les    (%edx),%eax
     3fa:	00 00                	add    %al,(%eax)
     3fc:	c5 02                	lds    (%edx),%eax
     3fe:	00 00                	add    %al,(%eax)
     400:	02 00                	add    (%eax),%al
     402:	74 04                	je     408 <_init-0x804888c>
     404:	00 00                	add    %al,(%eax)
     406:	00 00                	add    %al,(%eax)
     408:	00 00                	add    %al,(%eax)
     40a:	00 00                	add    %al,(%eax)
     40c:	96                   	xchg   %eax,%esi
     40d:	02 00                	add    (%eax),%al
     40f:	00 c1                	add    %al,%cl
     411:	02 00                	add    (%eax),%al
     413:	00 06                	add    %al,(%esi)
     415:	00 03                	add    %al,(%ebx)
     417:	2a e0                	sub    %al,%ah
     419:	04 08                	add    $0x8,%al
     41b:	9f                   	lahf   
     41c:	00 00                	add    %al,(%eax)
     41e:	00 00                	add    %al,(%eax)
     420:	00 00                	add    %al,(%eax)
     422:	00 00                	add    %al,(%eax)
     424:	96                   	xchg   %eax,%esi
     425:	02 00                	add    (%eax),%al
     427:	00 c1                	add    %al,%cl
     429:	02 00                	add    (%eax),%al
     42b:	00 02                	add    %al,(%edx)
     42d:	00 91 04 00 00 00    	add    %dl,0x4(%ecx)
     433:	00 00                	add    %al,(%eax)
     435:	00 00                	add    %al,(%eax)
     437:	00 c5                	add    %al,%ch
     439:	02 00                	add    (%eax),%al
     43b:	00 c8                	add    %cl,%al
     43d:	02 00                	add    (%eax),%al
     43f:	00 02                	add    %al,(%edx)
     441:	00 74 04 c8          	add    %dh,-0x38(%esp,%eax,1)
     445:	02 00                	add    (%eax),%al
     447:	00 11                	add    %dl,(%ecx)
     449:	03 00                	add    (%eax),%eax
     44b:	00 02                	add    %al,(%edx)
     44d:	00 74 30 11          	add    %dh,0x11(%eax,%esi,1)
     451:	03 00                	add    (%eax),%eax
     453:	00 12                	add    %dl,(%edx)
     455:	03 00                	add    (%eax),%eax
     457:	00 02                	add    %al,(%edx)
     459:	00 74 04 00          	add    %dh,0x0(%esp,%eax,1)
     45d:	00 00                	add    %al,(%eax)
     45f:	00 00                	add    %al,(%eax)
     461:	00 00                	add    %al,(%eax)
     463:	00 e3                	add    %ah,%bl
     465:	02 00                	add    (%eax),%al
     467:	00 0e                	add    %cl,(%esi)
     469:	03 00                	add    (%eax),%eax
     46b:	00 06                	add    %al,(%esi)
     46d:	00 03                	add    %al,(%ebx)
     46f:	2d e0 04 08 9f       	sub    $0x9f0804e0,%eax
     474:	00 00                	add    %al,(%eax)
     476:	00 00                	add    %al,(%eax)
     478:	00 00                	add    %al,(%eax)
     47a:	00 00                	add    %al,(%eax)
     47c:	e3 02                	jecxz  480 <_init-0x8048814>
     47e:	00 00                	add    %al,(%eax)
     480:	0e                   	push   %cs
     481:	03 00                	add    (%eax),%eax
     483:	00 02                	add    %al,(%edx)
     485:	00 91 04 00 00 00    	add    %dl,0x4(%ecx)
     48b:	00 00                	add    %al,(%eax)
     48d:	00 00                	add    %al,(%eax)
     48f:	00 12                	add    %dl,(%edx)
     491:	03 00                	add    (%eax),%eax
     493:	00 15 03 00 00 02    	add    %dl,0x2000003
     499:	00 74 04 15          	add    %dh,0x15(%esp,%eax,1)
     49d:	03 00                	add    (%eax),%eax
     49f:	00 5c 03 00          	add    %bl,0x0(%ebx,%eax,1)
     4a3:	00 02                	add    %al,(%edx)
     4a5:	00 74 30 5c          	add    %dh,0x5c(%eax,%esi,1)
     4a9:	03 00                	add    (%eax),%eax
     4ab:	00 5d 03             	add    %bl,0x3(%ebp)
     4ae:	00 00                	add    %al,(%eax)
     4b0:	02 00                	add    (%eax),%al
     4b2:	74 04                	je     4b8 <_init-0x80487dc>
     4b4:	00 00                	add    %al,(%eax)
     4b6:	00 00                	add    %al,(%eax)
     4b8:	00 00                	add    %al,(%eax)
     4ba:	00 00                	add    %al,(%eax)
     4bc:	30 03                	xor    %al,(%ebx)
     4be:	00 00                	add    %al,(%eax)
     4c0:	53                   	push   %ebx
     4c1:	03 00                	add    (%eax),%eax
     4c3:	00 05 00 91 00 06    	add    %al,0x6009100
     4c9:	23 08                	and    (%eax),%ecx
     4cb:	00 00                	add    %al,(%eax)
     4cd:	00 00                	add    %al,(%eax)
     4cf:	00 00                	add    %al,(%eax)
     4d1:	00 00                	add    %al,(%eax)
     4d3:	30 03                	xor    %al,(%ebx)
     4d5:	00 00                	add    %al,(%eax)
     4d7:	59                   	pop    %ecx
     4d8:	03 00                	add    (%eax),%eax
     4da:	00 06                	add    %al,(%esi)
     4dc:	00 03                	add    %al,(%ebx)
     4de:	79 de                	jns    4be <_init-0x80487d6>
     4e0:	04 08                	add    $0x8,%al
     4e2:	9f                   	lahf   
     4e3:	00 00                	add    %al,(%eax)
     4e5:	00 00                	add    %al,(%eax)
     4e7:	00 00                	add    %al,(%eax)
     4e9:	00 00                	add    %al,(%eax)
     4eb:	30 03                	xor    %al,(%ebx)
     4ed:	00 00                	add    %al,(%eax)
     4ef:	59                   	pop    %ecx
     4f0:	03 00                	add    (%eax),%eax
     4f2:	00 02                	add    %al,(%edx)
     4f4:	00 91 04 00 00 00    	add    %dl,0x4(%ecx)
     4fa:	00 00                	add    %al,(%eax)
     4fc:	00 00                	add    %al,(%eax)
     4fe:	00 8b 03 00 00 8e    	add    %cl,-0x71fffffd(%ebx)
     504:	03 00                	add    (%eax),%eax
     506:	00 02                	add    %al,(%edx)
     508:	00 74 04 8e          	add    %dh,-0x72(%esp,%eax,1)
     50c:	03 00                	add    (%eax),%eax
     50e:	00 d8                	add    %bl,%al
     510:	03 00                	add    (%eax),%eax
     512:	00 02                	add    %al,(%edx)
     514:	00 74 30 d8          	add    %dh,-0x28(%eax,%esi,1)
     518:	03 00                	add    (%eax),%eax
     51a:	00 d9                	add    %bl,%cl
     51c:	03 00                	add    (%eax),%eax
     51e:	00 02                	add    %al,(%edx)
     520:	00 74 04 00          	add    %dh,0x0(%esp,%eax,1)
     524:	00 00                	add    %al,(%eax)
     526:	00 00                	add    %al,(%eax)
     528:	00 00                	add    %al,(%eax)
     52a:	00 a9 03 00 00 d5    	add    %ch,-0x2afffffd(%ecx)
     530:	03 00                	add    (%eax),%eax
     532:	00 06                	add    %al,(%esi)
     534:	00 03                	add    %al,(%ebx)
     536:	30 e0                	xor    %ah,%al
     538:	04 08                	add    $0x8,%al
     53a:	9f                   	lahf   
     53b:	00 00                	add    %al,(%eax)
     53d:	00 00                	add    %al,(%eax)
     53f:	00 00                	add    %al,(%eax)
     541:	00 00                	add    %al,(%eax)
     543:	a9 03 00 00 d5       	test   $0xd5000003,%eax
     548:	03 00                	add    (%eax),%eax
     54a:	00 02                	add    %al,(%edx)
     54c:	00 91 04 00 00 00    	add    %dl,0x4(%ecx)
     552:	00 00                	add    %al,(%eax)
     554:	00 00                	add    %al,(%eax)
     556:	00 d9                	add    %bl,%cl
     558:	03 00                	add    (%eax),%eax
     55a:	00 dc                	add    %bl,%ah
     55c:	03 00                	add    (%eax),%eax
     55e:	00 02                	add    %al,(%edx)
     560:	00 74 04 dc          	add    %dh,-0x24(%esp,%eax,1)
     564:	03 00                	add    (%eax),%eax
     566:	00 26                	add    %ah,(%esi)
     568:	04 00                	add    $0x0,%al
     56a:	00 02                	add    %al,(%edx)
     56c:	00 74 30 26          	add    %dh,0x26(%eax,%esi,1)
     570:	04 00                	add    $0x0,%al
     572:	00 27                	add    %ah,(%edi)
     574:	04 00                	add    $0x0,%al
     576:	00 02                	add    %al,(%edx)
     578:	00 74 04 00          	add    %dh,0x0(%esp,%eax,1)
     57c:	00 00                	add    %al,(%eax)
     57e:	00 00                	add    %al,(%eax)
     580:	00 00                	add    %al,(%eax)
     582:	00 f7                	add    %dh,%bh
     584:	03 00                	add    (%eax),%eax
     586:	00 23                	add    %ah,(%ebx)
     588:	04 00                	add    $0x0,%al
     58a:	00 06                	add    %al,(%esi)
     58c:	00 03                	add    %al,(%ebx)
     58e:	33 e0                	xor    %eax,%esp
     590:	04 08                	add    $0x8,%al
     592:	9f                   	lahf   
     593:	00 00                	add    %al,(%eax)
     595:	00 00                	add    %al,(%eax)
     597:	00 00                	add    %al,(%eax)
     599:	00 00                	add    %al,(%eax)
     59b:	f7 03 00 00 23 04    	testl  $0x4230000,(%ebx)
     5a1:	00 00                	add    %al,(%eax)
     5a3:	02 00                	add    (%eax),%al
     5a5:	91                   	xchg   %eax,%ecx
     5a6:	04 00                	add    $0x0,%al
     5a8:	00 00                	add    %al,(%eax)
     5aa:	00 00                	add    %al,(%eax)
     5ac:	00 00                	add    %al,(%eax)
     5ae:	00 27                	add    %ah,(%edi)
     5b0:	04 00                	add    $0x0,%al
     5b2:	00 2a                	add    %ch,(%edx)
     5b4:	04 00                	add    $0x0,%al
     5b6:	00 02                	add    %al,(%edx)
     5b8:	00 74 04 2a          	add    %dh,0x2a(%esp,%eax,1)
     5bc:	04 00                	add    $0x0,%al
     5be:	00 73 04             	add    %dh,0x4(%ebx)
     5c1:	00 00                	add    %al,(%eax)
     5c3:	02 00                	add    (%eax),%al
     5c5:	74 30                	je     5f7 <_init-0x804869d>
     5c7:	73 04                	jae    5cd <_init-0x80486c7>
     5c9:	00 00                	add    %al,(%eax)
     5cb:	74 04                	je     5d1 <_init-0x80486c3>
     5cd:	00 00                	add    %al,(%eax)
     5cf:	02 00                	add    (%eax),%al
     5d1:	74 04                	je     5d7 <_init-0x80486bd>
     5d3:	00 00                	add    %al,(%eax)
     5d5:	00 00                	add    %al,(%eax)
     5d7:	00 00                	add    %al,(%eax)
     5d9:	00 00                	add    %al,(%eax)
     5db:	45                   	inc    %ebp
     5dc:	04 00                	add    $0x0,%al
     5de:	00 70 04             	add    %dh,0x4(%eax)
     5e1:	00 00                	add    %al,(%eax)
     5e3:	06                   	push   %es
     5e4:	00 03                	add    %al,(%ebx)
     5e6:	3a e0                	cmp    %al,%ah
     5e8:	04 08                	add    $0x8,%al
     5ea:	9f                   	lahf   
     5eb:	00 00                	add    %al,(%eax)
     5ed:	00 00                	add    %al,(%eax)
     5ef:	00 00                	add    %al,(%eax)
     5f1:	00 00                	add    %al,(%eax)
     5f3:	45                   	inc    %ebp
     5f4:	04 00                	add    $0x0,%al
     5f6:	00 70 04             	add    %dh,0x4(%eax)
     5f9:	00 00                	add    %al,(%eax)
     5fb:	02 00                	add    (%eax),%al
     5fd:	91                   	xchg   %eax,%ecx
     5fe:	04 00                	add    $0x0,%al
     600:	00 00                	add    %al,(%eax)
     602:	00 00                	add    %al,(%eax)
     604:	00 00                	add    %al,(%eax)
     606:	00 74 04 00          	add    %dh,0x0(%esp,%eax,1)
     60a:	00 77 04             	add    %dh,0x4(%edi)
     60d:	00 00                	add    %al,(%eax)
     60f:	02 00                	add    (%eax),%al
     611:	74 04                	je     617 <_init-0x804867d>
     613:	77 04                	ja     619 <_init-0x804867b>
     615:	00 00                	add    %al,(%eax)
     617:	c0 04 00 00          	rolb   $0x0,(%eax,%eax,1)
     61b:	02 00                	add    (%eax),%al
     61d:	74 30                	je     64f <_init-0x8048645>
     61f:	c0 04 00 00          	rolb   $0x0,(%eax,%eax,1)
     623:	c1 04 00 00          	roll   $0x0,(%eax,%eax,1)
     627:	02 00                	add    (%eax),%al
     629:	74 04                	je     62f <_init-0x8048665>
     62b:	00 00                	add    %al,(%eax)
     62d:	00 00                	add    %al,(%eax)
     62f:	00 00                	add    %al,(%eax)
     631:	00 00                	add    %al,(%eax)
     633:	92                   	xchg   %eax,%edx
     634:	04 00                	add    $0x0,%al
     636:	00 bd 04 00 00 06    	add    %bh,0x6000004(%ebp)
     63c:	00 03                	add    %al,(%ebx)
     63e:	41                   	inc    %ecx
     63f:	e0 04                	loopne 645 <_init-0x804864f>
     641:	08 9f 00 00 00 00    	or     %bl,0x0(%edi)
     647:	00 00                	add    %al,(%eax)
     649:	00 00                	add    %al,(%eax)
     64b:	92                   	xchg   %eax,%edx
     64c:	04 00                	add    $0x0,%al
     64e:	00 bd 04 00 00 02    	add    %bh,0x2000004(%ebp)
     654:	00 91 04 00 00 00    	add    %dl,0x4(%ecx)
     65a:	00 00                	add    %al,(%eax)
     65c:	00 00                	add    %al,(%eax)
     65e:	00 c1                	add    %al,%cl
     660:	04 00                	add    $0x0,%al
     662:	00 c2                	add    %al,%dl
     664:	04 00                	add    $0x0,%al
     666:	00 02                	add    %al,(%edx)
     668:	00 74 04 c2          	add    %dh,-0x3e(%esp,%eax,1)
     66c:	04 00                	add    $0x0,%al
     66e:	00 c5                	add    %al,%ch
     670:	04 00                	add    $0x0,%al
     672:	00 02                	add    %al,(%edx)
     674:	00 74 08 c5          	add    %dh,-0x3b(%eax,%ecx,1)
     678:	04 00                	add    $0x0,%al
     67a:	00 15 05 00 00 02    	add    %dl,0x2000005
     680:	00 74 30 15          	add    %dh,0x15(%eax,%esi,1)
     684:	05 00 00 16 05       	add    $0x5160000,%eax
     689:	00 00                	add    %al,(%eax)
     68b:	02 00                	add    (%eax),%al
     68d:	74 08                	je     697 <_init-0x80485fd>
     68f:	16                   	push   %ss
     690:	05 00 00 17 05       	add    $0x5170000,%eax
     695:	00 00                	add    %al,(%eax)
     697:	02 00                	add    (%eax),%al
     699:	74 04                	je     69f <_init-0x80485f5>
     69b:	00 00                	add    %al,(%eax)
     69d:	00 00                	add    %al,(%eax)
     69f:	00 00                	add    %al,(%eax)
     6a1:	00 00                	add    %al,(%eax)
     6a3:	e0 04                	loopne 6a9 <_init-0x80485eb>
     6a5:	00 00                	add    %al,(%eax)
     6a7:	12 05 00 00 06 00    	adc    0x60000,%al
     6ad:	03 48 e0             	add    -0x20(%eax),%ecx
     6b0:	04 08                	add    $0x8,%al
     6b2:	9f                   	lahf   
     6b3:	00 00                	add    %al,(%eax)
     6b5:	00 00                	add    %al,(%eax)
     6b7:	00 00                	add    %al,(%eax)
     6b9:	00 00                	add    %al,(%eax)
     6bb:	e0 04                	loopne 6c1 <_init-0x80485d3>
     6bd:	00 00                	add    %al,(%eax)
     6bf:	12 05 00 00 02 00    	adc    0x20000,%al
     6c5:	91                   	xchg   %eax,%ecx
     6c6:	04 00                	add    $0x0,%al
     6c8:	00 00                	add    %al,(%eax)
     6ca:	00 00                	add    %al,(%eax)
     6cc:	00 00                	add    %al,(%eax)
     6ce:	00 43 06             	add    %al,0x6(%ebx)
     6d1:	00 00                	add    %al,(%eax)
     6d3:	44                   	inc    %esp
     6d4:	06                   	push   %es
     6d5:	00 00                	add    %al,(%eax)
     6d7:	02 00                	add    (%eax),%al
     6d9:	74 04                	je     6df <_init-0x80485b5>
     6db:	44                   	inc    %esp
     6dc:	06                   	push   %es
     6dd:	00 00                	add    %al,(%eax)
     6df:	47                   	inc    %edi
     6e0:	06                   	push   %es
     6e1:	00 00                	add    %al,(%eax)
     6e3:	02 00                	add    (%eax),%al
     6e5:	74 08                	je     6ef <_init-0x80485a5>
     6e7:	47                   	inc    %edi
     6e8:	06                   	push   %es
     6e9:	00 00                	add    %al,(%eax)
     6eb:	83 06 00             	addl   $0x0,(%esi)
     6ee:	00 02                	add    %al,(%edx)
     6f0:	00 74 20 83          	add    %dh,-0x7d(%eax,%eiz,1)
     6f4:	06                   	push   %es
     6f5:	00 00                	add    %al,(%eax)
     6f7:	84 06                	test   %al,(%esi)
     6f9:	00 00                	add    %al,(%eax)
     6fb:	02 00                	add    (%eax),%al
     6fd:	74 08                	je     707 <_init-0x804858d>
     6ff:	84 06                	test   %al,(%esi)
     701:	00 00                	add    %al,(%eax)
     703:	85 06                	test   %eax,(%esi)
     705:	00 00                	add    %al,(%eax)
     707:	02 00                	add    (%eax),%al
     709:	74 04                	je     70f <_init-0x8048585>
     70b:	00 00                	add    %al,(%eax)
     70d:	00 00                	add    %al,(%eax)
     70f:	00 00                	add    %al,(%eax)
     711:	00 00                	add    %al,(%eax)
     713:	85 06                	test   %eax,(%esi)
     715:	00 00                	add    %al,(%eax)
     717:	86 06                	xchg   %al,(%esi)
     719:	00 00                	add    %al,(%eax)
     71b:	02 00                	add    (%eax),%al
     71d:	74 04                	je     723 <_init-0x8048571>
     71f:	86 06                	xchg   %al,(%esi)
     721:	00 00                	add    %al,(%eax)
     723:	89 06                	mov    %eax,(%esi)
     725:	00 00                	add    %al,(%eax)
     727:	02 00                	add    (%eax),%al
     729:	74 08                	je     733 <_init-0x8048561>
     72b:	89 06                	mov    %eax,(%esi)
     72d:	00 00                	add    %al,(%eax)
     72f:	c5 06                	lds    (%esi),%eax
     731:	00 00                	add    %al,(%eax)
     733:	02 00                	add    (%eax),%al
     735:	74 20                	je     757 <_init-0x804853d>
     737:	c5 06                	lds    (%esi),%eax
     739:	00 00                	add    %al,(%eax)
     73b:	c6 06 00             	movb   $0x0,(%esi)
     73e:	00 02                	add    %al,(%edx)
     740:	00 74 08 c6          	add    %dh,-0x3a(%eax,%ecx,1)
     744:	06                   	push   %es
     745:	00 00                	add    %al,(%eax)
     747:	c7 06 00 00 02 00    	movl   $0x20000,(%esi)
     74d:	74 04                	je     753 <_init-0x8048541>
     74f:	00 00                	add    %al,(%eax)
     751:	00 00                	add    %al,(%eax)
     753:	00 00                	add    %al,(%eax)
     755:	00 00                	add    %al,(%eax)
     757:	c7 06 00 00 c8 06    	movl   $0x6c80000,(%esi)
     75d:	00 00                	add    %al,(%eax)
     75f:	02 00                	add    (%eax),%al
     761:	74 04                	je     767 <_init-0x804852d>
     763:	c8 06 00 00          	enter  $0x6,$0x0
     767:	cb                   	lret   
     768:	06                   	push   %es
     769:	00 00                	add    %al,(%eax)
     76b:	02 00                	add    (%eax),%al
     76d:	74 08                	je     777 <_init-0x804851d>
     76f:	cb                   	lret   
     770:	06                   	push   %es
     771:	00 00                	add    %al,(%eax)
     773:	07                   	pop    %es
     774:	07                   	pop    %es
     775:	00 00                	add    %al,(%eax)
     777:	02 00                	add    (%eax),%al
     779:	74 20                	je     79b <_init-0x80484f9>
     77b:	07                   	pop    %es
     77c:	07                   	pop    %es
     77d:	00 00                	add    %al,(%eax)
     77f:	08 07                	or     %al,(%edi)
     781:	00 00                	add    %al,(%eax)
     783:	02 00                	add    (%eax),%al
     785:	74 08                	je     78f <_init-0x8048505>
     787:	08 07                	or     %al,(%edi)
     789:	00 00                	add    %al,(%eax)
     78b:	09 07                	or     %eax,(%edi)
     78d:	00 00                	add    %al,(%eax)
     78f:	02 00                	add    (%eax),%al
     791:	74 04                	je     797 <_init-0x80484fd>
     793:	00 00                	add    %al,(%eax)
     795:	00 00                	add    %al,(%eax)
     797:	00 00                	add    %al,(%eax)
     799:	00 00                	add    %al,(%eax)
     79b:	09 07                	or     %eax,(%edi)
     79d:	00 00                	add    %al,(%eax)
     79f:	0a 07                	or     (%edi),%al
     7a1:	00 00                	add    %al,(%eax)
     7a3:	02 00                	add    (%eax),%al
     7a5:	74 04                	je     7ab <_init-0x80484e9>
     7a7:	0a 07                	or     (%edi),%al
     7a9:	00 00                	add    %al,(%eax)
     7ab:	0d 07 00 00 02       	or     $0x2000007,%eax
     7b0:	00 74 08 0d          	add    %dh,0xd(%eax,%ecx,1)
     7b4:	07                   	pop    %es
     7b5:	00 00                	add    %al,(%eax)
     7b7:	49                   	dec    %ecx
     7b8:	07                   	pop    %es
     7b9:	00 00                	add    %al,(%eax)
     7bb:	02 00                	add    (%eax),%al
     7bd:	74 20                	je     7df <_init-0x80484b5>
     7bf:	49                   	dec    %ecx
     7c0:	07                   	pop    %es
     7c1:	00 00                	add    %al,(%eax)
     7c3:	4a                   	dec    %edx
     7c4:	07                   	pop    %es
     7c5:	00 00                	add    %al,(%eax)
     7c7:	02 00                	add    (%eax),%al
     7c9:	74 08                	je     7d3 <_init-0x80484c1>
     7cb:	4a                   	dec    %edx
     7cc:	07                   	pop    %es
     7cd:	00 00                	add    %al,(%eax)
     7cf:	4b                   	dec    %ebx
     7d0:	07                   	pop    %es
     7d1:	00 00                	add    %al,(%eax)
     7d3:	02 00                	add    (%eax),%al
     7d5:	74 04                	je     7db <_init-0x80484b9>
     7d7:	00 00                	add    %al,(%eax)
     7d9:	00 00                	add    %al,(%eax)
     7db:	00 00                	add    %al,(%eax)
     7dd:	00 00                	add    %al,(%eax)
     7df:	4b                   	dec    %ebx
     7e0:	07                   	pop    %es
     7e1:	00 00                	add    %al,(%eax)
     7e3:	4c                   	dec    %esp
     7e4:	07                   	pop    %es
     7e5:	00 00                	add    %al,(%eax)
     7e7:	02 00                	add    (%eax),%al
     7e9:	74 04                	je     7ef <_init-0x80484a5>
     7eb:	4c                   	dec    %esp
     7ec:	07                   	pop    %es
     7ed:	00 00                	add    %al,(%eax)
     7ef:	4f                   	dec    %edi
     7f0:	07                   	pop    %es
     7f1:	00 00                	add    %al,(%eax)
     7f3:	02 00                	add    (%eax),%al
     7f5:	74 08                	je     7ff <_init-0x8048495>
     7f7:	4f                   	dec    %edi
     7f8:	07                   	pop    %es
     7f9:	00 00                	add    %al,(%eax)
     7fb:	8b 07                	mov    (%edi),%eax
     7fd:	00 00                	add    %al,(%eax)
     7ff:	02 00                	add    (%eax),%al
     801:	74 20                	je     823 <_init-0x8048471>
     803:	8b 07                	mov    (%edi),%eax
     805:	00 00                	add    %al,(%eax)
     807:	8c 07                	mov    %es,(%edi)
     809:	00 00                	add    %al,(%eax)
     80b:	02 00                	add    (%eax),%al
     80d:	74 08                	je     817 <_init-0x804847d>
     80f:	8c 07                	mov    %es,(%edi)
     811:	00 00                	add    %al,(%eax)
     813:	8d 07                	lea    (%edi),%eax
     815:	00 00                	add    %al,(%eax)
     817:	02 00                	add    (%eax),%al
     819:	74 04                	je     81f <_init-0x8048475>
     81b:	00 00                	add    %al,(%eax)
     81d:	00 00                	add    %al,(%eax)
     81f:	00 00                	add    %al,(%eax)
     821:	00 00                	add    %al,(%eax)
     823:	8d 07                	lea    (%edi),%eax
     825:	00 00                	add    %al,(%eax)
     827:	90                   	nop
     828:	07                   	pop    %es
     829:	00 00                	add    %al,(%eax)
     82b:	02 00                	add    (%eax),%al
     82d:	74 04                	je     833 <_init-0x8048461>
     82f:	90                   	nop
     830:	07                   	pop    %es
     831:	00 00                	add    %al,(%eax)
     833:	b7 07                	mov    $0x7,%bh
     835:	00 00                	add    %al,(%eax)
     837:	02 00                	add    (%eax),%al
     839:	74 20                	je     85b <_init-0x8048439>
     83b:	b7 07                	mov    $0x7,%bh
     83d:	00 00                	add    %al,(%eax)
     83f:	b8 07 00 00 02       	mov    $0x2000007,%eax
     844:	00 74 04 00          	add    %dh,0x0(%esp,%eax,1)
     848:	00 00                	add    %al,(%eax)
     84a:	00 00                	add    %al,(%eax)
     84c:	00 00                	add    %al,(%eax)
     84e:	00 b8 07 00 00 b9    	add    %bh,-0x46fffff9(%eax)
     854:	07                   	pop    %es
     855:	00 00                	add    %al,(%eax)
     857:	02 00                	add    (%eax),%al
     859:	74 04                	je     85f <_init-0x8048435>
     85b:	b9 07 00 00 ba       	mov    $0xba000007,%ecx
     860:	07                   	pop    %es
     861:	00 00                	add    %al,(%eax)
     863:	02 00                	add    (%eax),%al
     865:	74 08                	je     86f <_init-0x8048425>
     867:	ba 07 00 00 bd       	mov    $0xbd000007,%edx
     86c:	07                   	pop    %es
     86d:	00 00                	add    %al,(%eax)
     86f:	02 00                	add    (%eax),%al
     871:	74 0c                	je     87f <_init-0x8048415>
     873:	bd 07 00 00 16       	mov    $0x16000007,%ebp
     878:	08 00                	or     %al,(%eax)
     87a:	00 02                	add    %al,(%edx)
     87c:	00 74 20 16          	add    %dh,0x16(%eax,%eiz,1)
     880:	08 00                	or     %al,(%eax)
     882:	00 17                	add    %dl,(%edi)
     884:	08 00                	or     %al,(%eax)
     886:	00 02                	add    %al,(%edx)
     888:	00 74 0c 17          	add    %dh,0x17(%esp,%ecx,1)
     88c:	08 00                	or     %al,(%eax)
     88e:	00 18                	add    %bl,(%eax)
     890:	08 00                	or     %al,(%eax)
     892:	00 02                	add    %al,(%edx)
     894:	00 74 08 18          	add    %dh,0x18(%eax,%ecx,1)
     898:	08 00                	or     %al,(%eax)
     89a:	00 19                	add    %bl,(%ecx)
     89c:	08 00                	or     %al,(%eax)
     89e:	00 02                	add    %al,(%edx)
     8a0:	00 74 04 00          	add    %dh,0x0(%esp,%eax,1)
     8a4:	00 00                	add    %al,(%eax)
     8a6:	00 00                	add    %al,(%eax)
     8a8:	00 00                	add    %al,(%eax)
     8aa:	00 d6                	add    %dl,%dh
     8ac:	07                   	pop    %es
     8ad:	00 00                	add    %al,(%eax)
     8af:	f7 07 00 00 02 00    	testl  $0x20000,(%edi)
     8b5:	91                   	xchg   %eax,%ecx
     8b6:	04 f7                	add    $0xf7,%al
     8b8:	07                   	pop    %es
     8b9:	00 00                	add    %al,(%eax)
     8bb:	0d 08 00 00 01       	or     $0x1000008,%eax
     8c0:	00 50 00             	add    %dl,0x0(%eax)
     8c3:	00 00                	add    %al,(%eax)
     8c5:	00 00                	add    %al,(%eax)
     8c7:	00 00                	add    %al,(%eax)
     8c9:	00 d6                	add    %dl,%dh
     8cb:	07                   	pop    %es
     8cc:	00 00                	add    %al,(%eax)
     8ce:	e3 07                	jecxz  8d7 <_init-0x80483bd>
     8d0:	00 00                	add    %al,(%eax)
     8d2:	02 00                	add    (%eax),%al
     8d4:	91                   	xchg   %eax,%ecx
     8d5:	04 e3                	add    $0xe3,%al
     8d7:	07                   	pop    %es
     8d8:	00 00                	add    %al,(%eax)
     8da:	0d 08 00 00 01       	or     $0x1000008,%eax
     8df:	00 50 00             	add    %dl,0x0(%eax)
     8e2:	00 00                	add    %al,(%eax)
     8e4:	00 00                	add    %al,(%eax)
     8e6:	00 00                	add    %al,(%eax)
     8e8:	00 19                	add    %bl,(%ecx)
     8ea:	08 00                	or     %al,(%eax)
     8ec:	00 1a                	add    %bl,(%edx)
     8ee:	08 00                	or     %al,(%eax)
     8f0:	00 02                	add    %al,(%edx)
     8f2:	00 74 04 1a          	add    %dh,0x1a(%esp,%eax,1)
     8f6:	08 00                	or     %al,(%eax)
     8f8:	00 1b                	add    %bl,(%ebx)
     8fa:	08 00                	or     %al,(%eax)
     8fc:	00 02                	add    %al,(%edx)
     8fe:	00 74 08 1b          	add    %dh,0x1b(%eax,%ecx,1)
     902:	08 00                	or     %al,(%eax)
     904:	00 1e                	add    %bl,(%esi)
     906:	08 00                	or     %al,(%eax)
     908:	00 02                	add    %al,(%edx)
     90a:	00 74 0c 1e          	add    %dh,0x1e(%esp,%ecx,1)
     90e:	08 00                	or     %al,(%eax)
     910:	00 63 09             	add    %ah,0x9(%ebx)
     913:	00 00                	add    %al,(%eax)
     915:	02 00                	add    (%eax),%al
     917:	74 20                	je     939 <_init-0x804835b>
     919:	63 09                	arpl   %cx,(%ecx)
     91b:	00 00                	add    %al,(%eax)
     91d:	64 09 00             	or     %eax,%fs:(%eax)
     920:	00 02                	add    %al,(%edx)
     922:	00 74 0c 64          	add    %dh,0x64(%esp,%ecx,1)
     926:	09 00                	or     %eax,(%eax)
     928:	00 65 09             	add    %ah,0x9(%ebp)
     92b:	00 00                	add    %al,(%eax)
     92d:	02 00                	add    (%eax),%al
     92f:	74 08                	je     939 <_init-0x804835b>
     931:	65 09 00             	or     %eax,%gs:(%eax)
     934:	00 66 09             	add    %ah,0x9(%esi)
     937:	00 00                	add    %al,(%eax)
     939:	02 00                	add    (%eax),%al
     93b:	74 04                	je     941 <_init-0x8048353>
     93d:	00 00                	add    %al,(%eax)
     93f:	00 00                	add    %al,(%eax)
     941:	00 00                	add    %al,(%eax)
     943:	00 00                	add    %al,(%eax)
     945:	37                   	aaa    
     946:	08 00                	or     %al,(%eax)
     948:	00 58 08             	add    %bl,0x8(%eax)
     94b:	00 00                	add    %al,(%eax)
     94d:	02 00                	add    (%eax),%al
     94f:	91                   	xchg   %eax,%ecx
     950:	04 58                	add    $0x58,%al
     952:	08 00                	or     %al,(%eax)
     954:	00 64 09 00          	add    %ah,0x0(%ecx,%ecx,1)
     958:	00 01                	add    %al,(%ecx)
     95a:	00 53 00             	add    %dl,0x0(%ebx)
     95d:	00 00                	add    %al,(%eax)
     95f:	00 00                	add    %al,(%eax)
     961:	00 00                	add    %al,(%eax)
     963:	00 37                	add    %dh,(%edi)
     965:	08 00                	or     %al,(%eax)
     967:	00 44 08 00          	add    %al,0x0(%eax,%ecx,1)
     96b:	00 02                	add    %al,(%edx)
     96d:	00 91 04 44 08 00    	add    %dl,0x84404(%ecx)
     973:	00 64 09 00          	add    %ah,0x0(%ecx,%ecx,1)
     977:	00 01                	add    %al,(%ecx)
     979:	00 53 00             	add    %dl,0x0(%ebx)
     97c:	00 00                	add    %al,(%eax)
     97e:	00 00                	add    %al,(%eax)
     980:	00 00                	add    %al,(%eax)
     982:	00 66 09             	add    %ah,0x9(%esi)
     985:	00 00                	add    %al,(%eax)
     987:	67 09 00             	or     %eax,(%bx,%si)
     98a:	00 02                	add    %al,(%edx)
     98c:	00 74 04 67          	add    %dh,0x67(%esp,%eax,1)
     990:	09 00                	or     %eax,(%eax)
     992:	00 68 09             	add    %ch,0x9(%eax)
     995:	00 00                	add    %al,(%eax)
     997:	02 00                	add    (%eax),%al
     999:	74 08                	je     9a3 <_init-0x80482f1>
     99b:	68 09 00 00 69       	push   $0x69000009
     9a0:	09 00                	or     %eax,(%eax)
     9a2:	00 02                	add    %al,(%edx)
     9a4:	00 74 0c 69          	add    %dh,0x69(%esp,%ecx,1)
     9a8:	09 00                	or     %eax,(%eax)
     9aa:	00 6c 09 00          	add    %ch,0x0(%ecx,%ecx,1)
     9ae:	00 02                	add    %al,(%edx)
     9b0:	00 74 10 6c          	add    %dh,0x6c(%eax,%edx,1)
     9b4:	09 00                	or     %eax,(%eax)
     9b6:	00 56 0a             	add    %dl,0xa(%esi)
     9b9:	00 00                	add    %al,(%eax)
     9bb:	02 00                	add    (%eax),%al
     9bd:	74 20                	je     9df <_init-0x80482b5>
     9bf:	56                   	push   %esi
     9c0:	0a 00                	or     (%eax),%al
     9c2:	00 57 0a             	add    %dl,0xa(%edi)
     9c5:	00 00                	add    %al,(%eax)
     9c7:	02 00                	add    (%eax),%al
     9c9:	74 10                	je     9db <_init-0x80482b9>
     9cb:	57                   	push   %edi
     9cc:	0a 00                	or     (%eax),%al
     9ce:	00 58 0a             	add    %bl,0xa(%eax)
     9d1:	00 00                	add    %al,(%eax)
     9d3:	02 00                	add    (%eax),%al
     9d5:	74 0c                	je     9e3 <_init-0x80482b1>
     9d7:	58                   	pop    %eax
     9d8:	0a 00                	or     (%eax),%al
     9da:	00 59 0a             	add    %bl,0xa(%ecx)
     9dd:	00 00                	add    %al,(%eax)
     9df:	02 00                	add    (%eax),%al
     9e1:	74 08                	je     9eb <_init-0x80482a9>
     9e3:	59                   	pop    %ecx
     9e4:	0a 00                	or     (%eax),%al
     9e6:	00 5a 0a             	add    %bl,0xa(%edx)
     9e9:	00 00                	add    %al,(%eax)
     9eb:	02 00                	add    (%eax),%al
     9ed:	74 04                	je     9f3 <_init-0x80482a1>
     9ef:	00 00                	add    %al,(%eax)
     9f1:	00 00                	add    %al,(%eax)
     9f3:	00 00                	add    %al,(%eax)
     9f5:	00 00                	add    %al,(%eax)
     9f7:	a9 09 00 00 b5       	test   $0xb5000009,%eax
     9fc:	09 00                	or     %eax,(%eax)
     9fe:	00 01                	add    %al,(%ecx)
     a00:	00 52 b5             	add    %dl,-0x4b(%edx)
     a03:	09 00                	or     %eax,(%eax)
     a05:	00 f8                	add    %bh,%al
     a07:	09 00                	or     %eax,(%eax)
     a09:	00 01                	add    %al,(%ecx)
     a0b:	00 56 f8             	add    %dl,-0x8(%esi)
     a0e:	09 00                	or     %eax,(%eax)
     a10:	00 fa                	add    %bh,%dl
     a12:	09 00                	or     %eax,(%eax)
     a14:	00 01                	add    %al,(%ecx)
     a16:	00 52 0d             	add    %dl,0xd(%edx)
     a19:	0a 00                	or     (%eax),%al
     a1b:	00 40 0a             	add    %al,0xa(%eax)
     a1e:	00 00                	add    %al,(%eax)
     a20:	01 00                	add    %eax,(%eax)
     a22:	56                   	push   %esi
     a23:	40                   	inc    %eax
     a24:	0a 00                	or     (%eax),%al
     a26:	00 4e 0a             	add    %cl,0xa(%esi)
     a29:	00 00                	add    %al,(%eax)
     a2b:	05 00 91 00 06       	add    $0x6009100,%eax
     a30:	23 08                	and    (%eax),%ecx
     a32:	00 00                	add    %al,(%eax)
     a34:	00 00                	add    %al,(%eax)
     a36:	00 00                	add    %al,(%eax)
     a38:	00 00                	add    %al,(%eax)
     a3a:	f1                   	icebp  
     a3b:	09 00                	or     %eax,(%eax)
     a3d:	00 f8                	add    %bh,%al
     a3f:	09 00                	or     %eax,(%eax)
     a41:	00 02                	add    %al,(%edx)
     a43:	00 30                	add    %dh,(%eax)
     a45:	9f                   	lahf   
     a46:	0b 0a                	or     (%edx),%ecx
     a48:	00 00                	add    %al,(%eax)
     a4a:	0d 0a 00 00 03       	or     $0x300000a,%eax
     a4f:	00 71 7f             	add    %dh,0x7f(%ecx)
     a52:	9f                   	lahf   
     a53:	0d 0a 00 00 4e       	or     $0x4e00000a,%eax
     a58:	0a 00                	or     (%eax),%al
     a5a:	00 01                	add    %al,(%ecx)
     a5c:	00 57 00             	add    %dl,0x0(%edi)
     a5f:	00 00                	add    %al,(%eax)
     a61:	00 00                	add    %al,(%eax)
     a63:	00 00                	add    %al,(%eax)
     a65:	00 b2 09 00 00 c3    	add    %dh,-0x3cfffff7(%edx)
     a6b:	09 00                	or     %eax,(%eax)
     a6d:	00 02                	add    %al,(%edx)
     a6f:	00 72 00             	add    %dh,0x0(%edx)
     a72:	00 00                	add    %al,(%eax)
     a74:	00 00                	add    %al,(%eax)
     a76:	00 00                	add    %al,(%eax)
     a78:	00 00                	add    %al,(%eax)
     a7a:	c4 09                	les    (%ecx),%ecx
     a7c:	00 00                	add    %al,(%eax)
     a7e:	d1 09                	rorl   (%ecx)
     a80:	00 00                	add    %al,(%eax)
     a82:	01 00                	add    %eax,(%eax)
     a84:	50                   	push   %eax
     a85:	00 00                	add    %al,(%eax)
     a87:	00 00                	add    %al,(%eax)
     a89:	00 00                	add    %al,(%eax)
     a8b:	00 00                	add    %al,(%eax)
     a8d:	8f 09                	(bad)  
     a8f:	00 00                	add    %al,(%eax)
     a91:	c3                   	ret    
     a92:	09 00                	or     %eax,(%eax)
     a94:	00 01                	add    %al,(%ecx)
     a96:	00 52 c3             	add    %dl,-0x3d(%edx)
     a99:	09 00                	or     %eax,(%eax)
     a9b:	00 f8                	add    %bh,%al
     a9d:	09 00                	or     %eax,(%eax)
     a9f:	00 03                	add    %al,(%ebx)
     aa1:	00 76 7f             	add    %dh,0x7f(%esi)
     aa4:	9f                   	lahf   
     aa5:	f8                   	clc    
     aa6:	09 00                	or     %eax,(%eax)
     aa8:	00 06                	add    %al,(%esi)
     aaa:	0a 00                	or     (%eax),%al
     aac:	00 01                	add    %al,(%ecx)
     aae:	00 52 00             	add    %dl,0x0(%edx)
     ab1:	00 00                	add    %al,(%eax)
     ab3:	00 00                	add    %al,(%eax)
     ab5:	00 00                	add    %al,(%eax)
     ab7:	00 5a 0a             	add    %bl,0xa(%edx)
     aba:	00 00                	add    %al,(%eax)
     abc:	5b                   	pop    %ebx
     abd:	0a 00                	or     (%eax),%al
     abf:	00 02                	add    %al,(%edx)
     ac1:	00 74 04 5b          	add    %dh,0x5b(%esp,%eax,1)
     ac5:	0a 00                	or     (%eax),%al
     ac7:	00 5e 0a             	add    %bl,0xa(%esi)
     aca:	00 00                	add    %al,(%eax)
     acc:	02 00                	add    (%eax),%al
     ace:	74 08                	je     ad8 <_init-0x80481bc>
     ad0:	5e                   	pop    %esi
     ad1:	0a 00                	or     (%eax),%al
     ad3:	00 a0 0a 00 00 02    	add    %ah,0x200000a(%eax)
     ad9:	00 74 20 a0          	add    %dh,-0x60(%eax,%eiz,1)
     add:	0a 00                	or     (%eax),%al
     adf:	00 a1 0a 00 00 02    	add    %ah,0x200000a(%ecx)
     ae5:	00 74 08 a1          	add    %dh,-0x5f(%eax,%ecx,1)
     ae9:	0a 00                	or     (%eax),%al
     aeb:	00 a2 0a 00 00 02    	add    %ah,0x200000a(%edx)
     af1:	00 74 04 00          	add    %dh,0x0(%esp,%eax,1)
     af5:	00 00                	add    %al,(%eax)
     af7:	00 00                	add    %al,(%eax)
     af9:	00 00                	add    %al,(%eax)
     afb:	00 7a 0a             	add    %bh,0xa(%edx)
     afe:	00 00                	add    %al,(%eax)
     b00:	95                   	xchg   %eax,%ebp
     b01:	0a 00                	or     (%eax),%al
     b03:	00 05 00 91 00 06    	add    %al,0x6009100
     b09:	23 08                	and    (%eax),%ecx
     b0b:	95                   	xchg   %eax,%ebp
     b0c:	0a 00                	or     (%eax),%al
     b0e:	00 a1 0a 00 00 01    	add    %ah,0x100000a(%ecx)
     b14:	00 53 00             	add    %dl,0x0(%ebx)
     b17:	00 00                	add    %al,(%eax)
     b19:	00 00                	add    %al,(%eax)
     b1b:	00 00                	add    %al,(%eax)
     b1d:	00 a2 0a 00 00 a3    	add    %ah,-0x5cfffff6(%edx)
     b23:	0a 00                	or     (%eax),%al
     b25:	00 02                	add    %al,(%edx)
     b27:	00 74 04 a3          	add    %dh,-0x5d(%esp,%eax,1)
     b2b:	0a 00                	or     (%eax),%al
     b2d:	00 a6 0a 00 00 02    	add    %ah,0x200000a(%esi)
     b33:	00 74 08 a6          	add    %dh,-0x5a(%eax,%ecx,1)
     b37:	0a 00                	or     (%eax),%al
     b39:	00 e8                	add    %ch,%al
     b3b:	0a 00                	or     (%eax),%al
     b3d:	00 02                	add    %al,(%edx)
     b3f:	00 74 20 e8          	add    %dh,-0x18(%eax,%eiz,1)
     b43:	0a 00                	or     (%eax),%al
     b45:	00 e9                	add    %ch,%cl
     b47:	0a 00                	or     (%eax),%al
     b49:	00 02                	add    %al,(%edx)
     b4b:	00 74 08 e9          	add    %dh,-0x17(%eax,%ecx,1)
     b4f:	0a 00                	or     (%eax),%al
     b51:	00 ea                	add    %ch,%dl
     b53:	0a 00                	or     (%eax),%al
     b55:	00 02                	add    %al,(%edx)
     b57:	00 74 04 00          	add    %dh,0x0(%esp,%eax,1)
     b5b:	00 00                	add    %al,(%eax)
     b5d:	00 00                	add    %al,(%eax)
     b5f:	00 00                	add    %al,(%eax)
     b61:	00 c2                	add    %al,%dl
     b63:	0a 00                	or     (%eax),%al
     b65:	00 dd                	add    %bl,%ch
     b67:	0a 00                	or     (%eax),%al
     b69:	00 05 00 91 00 06    	add    %al,0x6009100
     b6f:	23 08                	and    (%eax),%ecx
     b71:	dd 0a                	fisttpll (%edx)
     b73:	00 00                	add    %al,(%eax)
     b75:	e9 0a 00 00 01       	jmp    1000b84 <_init-0x7048110>
     b7a:	00 53 00             	add    %dl,0x0(%ebx)
     b7d:	00 00                	add    %al,(%eax)
     b7f:	00 00                	add    %al,(%eax)
     b81:	00 00                	add    %al,(%eax)
     b83:	00 ea                	add    %ch,%dl
     b85:	0a 00                	or     (%eax),%al
     b87:	00 eb                	add    %ch,%bl
     b89:	0a 00                	or     (%eax),%al
     b8b:	00 02                	add    %al,(%edx)
     b8d:	00 74 04 eb          	add    %dh,-0x15(%esp,%eax,1)
     b91:	0a 00                	or     (%eax),%al
     b93:	00 ec                	add    %ch,%ah
     b95:	0a 00                	or     (%eax),%al
     b97:	00 02                	add    %al,(%edx)
     b99:	00 74 08 ec          	add    %dh,-0x14(%eax,%ecx,1)
     b9d:	0a 00                	or     (%eax),%al
     b9f:	00 ed                	add    %ch,%ch
     ba1:	0a 00                	or     (%eax),%al
     ba3:	00 02                	add    %al,(%edx)
     ba5:	00 74 0c ed          	add    %dh,-0x13(%esp,%ecx,1)
     ba9:	0a 00                	or     (%eax),%al
     bab:	00 ee                	add    %ch,%dh
     bad:	0a 00                	or     (%eax),%al
     baf:	00 02                	add    %al,(%edx)
     bb1:	00 74 10 ee          	add    %dh,-0x12(%eax,%edx,1)
     bb5:	0a 00                	or     (%eax),%al
     bb7:	00 f4                	add    %dh,%ah
     bb9:	0a 00                	or     (%eax),%al
     bbb:	00 02                	add    %al,(%edx)
     bbd:	00 74 14 f4          	add    %dh,-0xc(%esp,%edx,1)
     bc1:	0a 00                	or     (%eax),%al
     bc3:	00 b6 0c 00 00 03    	add    %dh,0x300000c(%esi)
     bc9:	00 74 e0 30          	add    %dh,0x30(%eax,%eiz,8)
     bcd:	b6 0c                	mov    $0xc,%dh
     bcf:	00 00                	add    %al,(%eax)
     bd1:	b7 0c                	mov    $0xc,%bh
     bd3:	00 00                	add    %al,(%eax)
     bd5:	02 00                	add    (%eax),%al
     bd7:	74 14                	je     bed <_init-0x80480a7>
     bd9:	b7 0c                	mov    $0xc,%bh
     bdb:	00 00                	add    %al,(%eax)
     bdd:	b8 0c 00 00 02       	mov    $0x200000c,%eax
     be2:	00 74 10 b8          	add    %dh,-0x48(%eax,%edx,1)
     be6:	0c 00                	or     $0x0,%al
     be8:	00 b9 0c 00 00 02    	add    %bh,0x200000c(%ecx)
     bee:	00 74 0c b9          	add    %dh,-0x47(%esp,%ecx,1)
     bf2:	0c 00                	or     $0x0,%al
     bf4:	00 ba 0c 00 00 02    	add    %bh,0x200000c(%edx)
     bfa:	00 74 08 ba          	add    %dh,-0x46(%eax,%ecx,1)
     bfe:	0c 00                	or     $0x0,%al
     c00:	00 bb 0c 00 00 02    	add    %bh,0x200000c(%ebx)
     c06:	00 74 04 00          	add    %dh,0x0(%esp,%eax,1)
     c0a:	00 00                	add    %al,(%eax)
     c0c:	00 00                	add    %al,(%eax)
     c0e:	00 00                	add    %al,(%eax)
     c10:	00 ea                	add    %ch,%dl
     c12:	0a 00                	or     (%eax),%al
     c14:	00 07                	add    %al,(%edi)
     c16:	0b 00                	or     (%eax),%eax
     c18:	00 01                	add    %al,(%ecx)
     c1a:	00 50 07             	add    %dl,0x7(%eax)
     c1d:	0b 00                	or     (%eax),%eax
     c1f:	00 bb 0c 00 00 03    	add    %bh,0x300000c(%ebx)
     c25:	00 91 c0 4f 00 00    	add    %dl,0x4fc0(%ecx)
     c2b:	00 00                	add    %al,(%eax)
     c2d:	00 00                	add    %al,(%eax)
     c2f:	00 00                	add    %al,(%eax)
     c31:	ea 0a 00 00 3f 0b 00 	ljmp   $0xb,$0x3f00000a
     c38:	00 01                	add    %al,(%ecx)
     c3a:	00 52 00             	add    %dl,0x0(%edx)
     c3d:	00 00                	add    %al,(%eax)
     c3f:	00 00                	add    %al,(%eax)
     c41:	00 00                	add    %al,(%eax)
     c43:	00 ea                	add    %ch,%dl
     c45:	0a 00                	or     (%eax),%al
     c47:	00 3f                	add    %bh,(%edi)
     c49:	0b 00                	or     (%eax),%eax
     c4b:	00 01                	add    %al,(%ecx)
     c4d:	00 51 3f             	add    %dl,0x3f(%ecx)
     c50:	0b 00                	or     (%eax),%eax
     c52:	00 80 0c 00 00 03    	add    %al,0x300000c(%eax)
     c58:	00 91 cc 4f 96 0c    	add    %dl,0xc964fcc(%ecx)
     c5e:	00 00                	add    %al,(%eax)
     c60:	ab                   	stos   %eax,%es:(%edi)
     c61:	0c 00                	or     $0x0,%al
     c63:	00 03                	add    %al,(%ebx)
     c65:	00 91 cc 4f 00 00    	add    %dl,0x4fcc(%ecx)
     c6b:	00 00                	add    %al,(%eax)
     c6d:	00 00                	add    %al,(%eax)
     c6f:	00 00                	add    %al,(%eax)
     c71:	07                   	pop    %es
     c72:	0b 00                	or     (%eax),%eax
     c74:	00 3f                	add    %bh,(%edi)
     c76:	0b 00                	or     (%eax),%eax
     c78:	00 02                	add    %al,(%edx)
     c7a:	00 30                	add    %dh,(%eax)
     c7c:	9f                   	lahf   
     c7d:	b5 0b                	mov    $0xb,%ch
     c7f:	00 00                	add    %al,(%eax)
     c81:	d9 0b                	(bad)  (%ebx)
     c83:	00 00                	add    %al,(%eax)
     c85:	01 00                	add    %eax,(%eax)
     c87:	57                   	push   %edi
     c88:	d9 0b                	(bad)  (%ebx)
     c8a:	00 00                	add    %al,(%eax)
     c8c:	80 0c 00 00          	orb    $0x0,(%eax,%eax,1)
     c90:	03 00                	add    (%eax),%eax
     c92:	91                   	xchg   %eax,%ecx
     c93:	c4 4f 96             	les    -0x6a(%edi),%ecx
     c96:	0c 00                	or     $0x0,%al
     c98:	00 a6 0c 00 00 01    	add    %ah,0x100000c(%esi)
     c9e:	00 57 a6             	add    %dl,-0x5a(%edi)
     ca1:	0c 00                	or     $0x0,%al
     ca3:	00 ab 0c 00 00 03    	add    %ch,0x300000c(%ebx)
     ca9:	00 91 c4 4f 00 00    	add    %dl,0x4fc4(%ecx)
     caf:	00 00                	add    %al,(%eax)
     cb1:	00 00                	add    %al,(%eax)
     cb3:	00 00                	add    %al,(%eax)
     cb5:	17                   	pop    %ss
     cb6:	0b 00                	or     (%eax),%eax
     cb8:	00 3f                	add    %bh,(%edi)
     cba:	0b 00                	or     (%eax),%eax
     cbc:	00 01                	add    %al,(%ecx)
     cbe:	00 52 3f             	add    %dl,0x3f(%edx)
     cc1:	0b 00                	or     (%eax),%eax
     cc3:	00 d9                	add    %bl,%cl
     cc5:	0b 00                	or     (%eax),%eax
     cc7:	00 01                	add    %al,(%ecx)
     cc9:	00 53 d9             	add    %dl,-0x27(%ebx)
     ccc:	0b 00                	or     (%eax),%eax
     cce:	00 dd                	add    %bl,%ch
     cd0:	0b 00                	or     (%eax),%eax
     cd2:	00 01                	add    %al,(%ecx)
     cd4:	00 56 dd             	add    %dl,-0x23(%esi)
     cd7:	0b 00                	or     (%eax),%eax
     cd9:	00 f4                	add    %dh,%ah
     cdb:	0b 00                	or     (%eax),%eax
     cdd:	00 0b                	add    %cl,(%ebx)
     cdf:	00 73 00             	add    %dh,0x0(%ebx)
     ce2:	32 24 91             	xor    (%ecx,%edx,4),%ah
     ce5:	00 22                	add    %ah,(%edx)
     ce7:	0a 24 18             	or     (%eax,%ebx,1),%ah
     cea:	1c f4                	sbb    $0xf4,%al
     cec:	0b 00                	or     (%eax),%eax
     cee:	00 80 0c 00 00 01    	add    %al,0x100000c(%eax)
     cf4:	00 56 96             	add    %dl,-0x6a(%esi)
     cf7:	0c 00                	or     $0x0,%al
     cf9:	00 9a 0c 00 00 01    	add    %bl,0x100000c(%edx)
     cff:	00 53 9a             	add    %dl,-0x66(%ebx)
     d02:	0c 00                	or     $0x0,%al
     d04:	00 ab 0c 00 00 03    	add    %ch,0x300000c(%ebx)
     d0a:	00 91 dc 4f 00 00    	add    %dl,0x4fdc(%ecx)
     d10:	00 00                	add    %al,(%eax)
     d12:	00 00                	add    %al,(%eax)
     d14:	00 00                	add    %al,(%eax)
     d16:	07                   	pop    %es
     d17:	0b 00                	or     (%eax),%eax
     d19:	00 d9                	add    %bl,%cl
     d1b:	0b 00                	or     (%eax),%eax
     d1d:	00 02                	add    %al,(%edx)
     d1f:	00 30                	add    %dh,(%eax)
     d21:	9f                   	lahf   
     d22:	d9 0b                	(bad)  (%ebx)
     d24:	00 00                	add    %al,(%eax)
     d26:	e1 0b                	loope  d33 <_init-0x8047f61>
     d28:	00 00                	add    %al,(%eax)
     d2a:	01 00                	add    %eax,(%eax)
     d2c:	53                   	push   %ebx
     d2d:	76 0c                	jbe    d3b <_init-0x8047f59>
     d2f:	00 00                	add    %al,(%eax)
     d31:	80 0c 00 00          	orb    $0x0,(%eax,%eax,1)
     d35:	01 00                	add    %eax,(%eax)
     d37:	53                   	push   %ebx
     d38:	96                   	xchg   %eax,%esi
     d39:	0c 00                	or     $0x0,%al
     d3b:	00 ab 0c 00 00 02    	add    %ch,0x200000c(%ebx)
     d41:	00 30                	add    %dh,(%eax)
     d43:	9f                   	lahf   
     d44:	00 00                	add    %al,(%eax)
     d46:	00 00                	add    %al,(%eax)
     d48:	00 00                	add    %al,(%eax)
     d4a:	00 00                	add    %al,(%eax)
     d4c:	07                   	pop    %es
     d4d:	0b 00                	or     (%eax),%eax
     d4f:	00 3f                	add    %bh,(%edi)
     d51:	0b 00                	or     (%eax),%eax
     d53:	00 02                	add    %al,(%edx)
     d55:	00 30                	add    %dh,(%eax)
     d57:	9f                   	lahf   
     d58:	50                   	push   %eax
     d59:	0b 00                	or     (%eax),%eax
     d5b:	00 52 0b             	add    %dl,0xb(%edx)
     d5e:	00 00                	add    %al,(%eax)
     d60:	01 00                	add    %eax,(%eax)
     d62:	55                   	push   %ebp
     d63:	b5 0b                	mov    $0xb,%ch
     d65:	00 00                	add    %al,(%eax)
     d67:	c9                   	leave  
     d68:	0b 00                	or     (%eax),%eax
     d6a:	00 01                	add    %al,(%ecx)
     d6c:	00 55 c9             	add    %dl,-0x37(%ebp)
     d6f:	0b 00                	or     (%eax),%eax
     d71:	00 80 0c 00 00 03    	add    %al,0x300000c(%eax)
     d77:	00 91 c8 4f 96 0c    	add    %dl,0xc964fc8(%ecx)
     d7d:	00 00                	add    %al,(%eax)
     d7f:	ab                   	stos   %eax,%es:(%edi)
     d80:	0c 00                	or     $0x0,%al
     d82:	00 03                	add    %al,(%ebx)
     d84:	00 91 c8 4f 00 00    	add    %dl,0x4fc8(%ecx)
     d8a:	00 00                	add    %al,(%eax)
     d8c:	00 00                	add    %al,(%eax)
     d8e:	00 00                	add    %al,(%eax)
     d90:	60                   	pusha  
     d91:	0b 00                	or     (%eax),%eax
     d93:	00 88 0b 00 00 06    	add    %cl,0x600000b(%eax)
     d99:	00 03                	add    %al,(%ebx)
     d9b:	8f                   	(bad)  
     d9c:	e0 04                	loopne da2 <_init-0x8047ef2>
     d9e:	08 9f 00 00 00 00    	or     %bl,0x0(%edi)
     da4:	00 00                	add    %al,(%eax)
     da6:	00 00                	add    %al,(%eax)
     da8:	60                   	pusha  
     da9:	0b 00                	or     (%eax),%eax
     dab:	00 88 0b 00 00 03    	add    %cl,0x300000b(%eax)
     db1:	00 91 c0 4f 00 00    	add    %dl,0x4fc0(%ecx)
     db7:	00 00                	add    %al,(%eax)
     db9:	00 00                	add    %al,(%eax)
     dbb:	00 00                	add    %al,(%eax)
     dbd:	88 0b                	mov    %cl,(%ebx)
     dbf:	00 00                	add    %al,(%eax)
     dc1:	b2 0b                	mov    $0xb,%dl
     dc3:	00 00                	add    %al,(%eax)
     dc5:	06                   	push   %es
     dc6:	00 03                	add    %al,(%ebx)
     dc8:	8f                   	(bad)  
     dc9:	e0 04                	loopne dcf <_init-0x8047ec5>
     dcb:	08 9f 00 00 00 00    	or     %bl,0x0(%edi)
     dd1:	00 00                	add    %al,(%eax)
     dd3:	00 00                	add    %al,(%eax)
     dd5:	88 0b                	mov    %cl,(%ebx)
     dd7:	00 00                	add    %al,(%eax)
     dd9:	b2 0b                	mov    $0xb,%dl
     ddb:	00 00                	add    %al,(%eax)
     ddd:	03 00                	add    (%eax),%eax
     ddf:	91                   	xchg   %eax,%ecx
     de0:	c0 4f 00 00          	rorb   $0x0,0x0(%edi)
     de4:	00 00                	add    %al,(%eax)
     de6:	00 00                	add    %al,(%eax)
     de8:	00 00                	add    %al,(%eax)
     dea:	ff 0b                	decl   (%ebx)
     dec:	00 00                	add    %al,(%eax)
     dee:	2b 0c 00             	sub    (%eax,%eax,1),%ecx
     df1:	00 06                	add    %al,(%esi)
     df3:	00 03                	add    %al,(%ebx)
     df5:	98                   	cwtl   
     df6:	e0 04                	loopne dfc <_init-0x8047e98>
     df8:	08 9f 00 00 00 00    	or     %bl,0x0(%edi)
     dfe:	00 00                	add    %al,(%eax)
     e00:	00 00                	add    %al,(%eax)
     e02:	ff 0b                	decl   (%ebx)
     e04:	00 00                	add    %al,(%eax)
     e06:	2b 0c 00             	sub    (%eax,%eax,1),%ecx
     e09:	00 01                	add    %al,(%ecx)
     e0b:	00 57 00             	add    %dl,0x0(%edi)
     e0e:	00 00                	add    %al,(%eax)
     e10:	00 00                	add    %al,(%eax)
     e12:	00 00                	add    %al,(%eax)
     e14:	00 2b                	add    %ch,(%ebx)
     e16:	0c 00                	or     $0x0,%al
     e18:	00 40 0c             	add    %al,0xc(%eax)
     e1b:	00 00                	add    %al,(%eax)
     e1d:	02 00                	add    (%eax),%al
     e1f:	76 00                	jbe    e21 <_init-0x8047e73>
     e21:	00 00                	add    %al,(%eax)
     e23:	00 00                	add    %al,(%eax)
     e25:	00 00                	add    %al,(%eax)
     e27:	00 00                	add    %al,(%eax)
     e29:	2b 0c 00             	sub    (%eax,%eax,1),%ecx
     e2c:	00 41 0c             	add    %al,0xc(%ecx)
     e2f:	00 00                	add    %al,(%eax)
     e31:	01 00                	add    %eax,(%eax)
     e33:	57                   	push   %edi
     e34:	00 00                	add    %al,(%eax)
     e36:	00 00                	add    %al,(%eax)
     e38:	00 00                	add    %al,(%eax)
     e3a:	00 00                	add    %al,(%eax)
     e3c:	d9 0b                	(bad)  (%ebx)
     e3e:	00 00                	add    %al,(%eax)
     e40:	f5                   	cmc    
     e41:	0b 00                	or     (%eax),%eax
     e43:	00 06                	add    %al,(%esi)
     e45:	00 03                	add    %al,(%ebx)
     e47:	9e                   	sahf   
     e48:	e0 04                	loopne e4e <_init-0x8047e46>
     e4a:	08 9f 41 0c 00 00    	or     %bl,0xc41(%edi)
     e50:	80 0c 00 00          	orb    $0x0,(%eax,%eax,1)
     e54:	06                   	push   %es
     e55:	00 03                	add    %al,(%ebx)
     e57:	9e                   	sahf   
     e58:	e0 04                	loopne e5e <_init-0x8047e36>
     e5a:	08 9f 00 00 00 00    	or     %bl,0x0(%edi)
     e60:	00 00                	add    %al,(%eax)
     e62:	00 00                	add    %al,(%eax)
     e64:	d9 0b                	(bad)  (%ebx)
     e66:	00 00                	add    %al,(%eax)
     e68:	f5                   	cmc    
     e69:	0b 00                	or     (%eax),%eax
     e6b:	00 03                	add    %al,(%ebx)
     e6d:	00 91 c0 4f 41 0c    	add    %dl,0xc414fc0(%ecx)
     e73:	00 00                	add    %al,(%eax)
     e75:	80 0c 00 00          	orb    $0x0,(%eax,%eax,1)
     e79:	03 00                	add    (%eax),%eax
     e7b:	91                   	xchg   %eax,%ecx
     e7c:	c0 4f 00 00          	rorb   $0x0,0x0(%edi)
     e80:	00 00                	add    %al,(%eax)
     e82:	00 00                	add    %al,(%eax)
     e84:	00 00                	add    %al,(%eax)
     e86:	bb 0c 00 00 bc       	mov    $0xbc00000c,%ebx
     e8b:	0c 00                	or     $0x0,%al
     e8d:	00 02                	add    %al,(%edx)
     e8f:	00 74 04 bc          	add    %dh,-0x44(%esp,%eax,1)
     e93:	0c 00                	or     $0x0,%al
     e95:	00 bd 0c 00 00 02    	add    %bh,0x200000c(%ebp)
     e9b:	00 74 08 bd          	add    %dh,-0x43(%eax,%ecx,1)
     e9f:	0c 00                	or     $0x0,%al
     ea1:	00 c0                	add    %al,%al
     ea3:	0c 00                	or     $0x0,%al
     ea5:	00 02                	add    %al,(%edx)
     ea7:	00 74 0c c0          	add    %dh,-0x40(%esp,%ecx,1)
     eab:	0c 00                	or     $0x0,%al
     ead:	00 13                	add    %dl,(%ebx)
     eaf:	0d 00 00 02 00       	or     $0x20000,%eax
     eb4:	74 20                	je     ed6 <_init-0x8047dbe>
     eb6:	13 0d 00 00 14 0d    	adc    0xd140000,%ecx
     ebc:	00 00                	add    %al,(%eax)
     ebe:	02 00                	add    (%eax),%al
     ec0:	74 0c                	je     ece <_init-0x8047dc6>
     ec2:	14 0d                	adc    $0xd,%al
     ec4:	00 00                	add    %al,(%eax)
     ec6:	15 0d 00 00 02       	adc    $0x200000d,%eax
     ecb:	00 74 08 15          	add    %dh,0x15(%eax,%ecx,1)
     ecf:	0d 00 00 16 0d       	or     $0xd160000,%eax
     ed4:	00 00                	add    %al,(%eax)
     ed6:	02 00                	add    (%eax),%al
     ed8:	74 04                	je     ede <_init-0x8047db6>
     eda:	00 00                	add    %al,(%eax)
     edc:	00 00                	add    %al,(%eax)
     ede:	00 00                	add    %al,(%eax)
     ee0:	00 00                	add    %al,(%eax)
     ee2:	d6                   	(bad)  
     ee3:	0c 00                	or     $0x0,%al
     ee5:	00 e2                	add    %ah,%dl
     ee7:	0c 00                	or     $0x0,%al
     ee9:	00 02                	add    %al,(%edx)
     eeb:	00 91 00 e2 0c 00    	add    %dl,0xce200(%ecx)
     ef1:	00 00                	add    %al,(%eax)
     ef3:	0d 00 00 01 00       	or     $0x10000,%eax
     ef8:	53                   	push   %ebx
     ef9:	09 0d 00 00 0e 0d    	or     %ecx,0xd0e0000
     eff:	00 00                	add    %al,(%eax)
     f01:	02 00                	add    (%eax),%al
     f03:	91                   	xchg   %eax,%ecx
     f04:	00 00                	add    %al,(%eax)
     f06:	00 00                	add    %al,(%eax)
     f08:	00 00                	add    %al,(%eax)
     f0a:	00 00                	add    %al,(%eax)
     f0c:	00 16                	add    %dl,(%esi)
     f0e:	0d 00 00 17 0d       	or     $0xd170000,%eax
     f13:	00 00                	add    %al,(%eax)
     f15:	02 00                	add    (%eax),%al
     f17:	74 04                	je     f1d <_init-0x8047d77>
     f19:	17                   	pop    %ss
     f1a:	0d 00 00 1a 0d       	or     $0xd1a0000,%eax
     f1f:	00 00                	add    %al,(%eax)
     f21:	02 00                	add    (%eax),%al
     f23:	74 08                	je     f2d <_init-0x8047d67>
     f25:	1a 0d 00 00 5c 0d    	sbb    0xd5c0000,%cl
     f2b:	00 00                	add    %al,(%eax)
     f2d:	02 00                	add    (%eax),%al
     f2f:	74 20                	je     f51 <_init-0x8047d43>
     f31:	5c                   	pop    %esp
     f32:	0d 00 00 5d 0d       	or     $0xd5d0000,%eax
     f37:	00 00                	add    %al,(%eax)
     f39:	02 00                	add    (%eax),%al
     f3b:	74 08                	je     f45 <_init-0x8047d4f>
     f3d:	5d                   	pop    %ebp
     f3e:	0d 00 00 5e 0d       	or     $0xd5e0000,%eax
     f43:	00 00                	add    %al,(%eax)
     f45:	02 00                	add    (%eax),%al
     f47:	74 04                	je     f4d <_init-0x8047d47>
     f49:	00 00                	add    %al,(%eax)
     f4b:	00 00                	add    %al,(%eax)
     f4d:	00 00                	add    %al,(%eax)
     f4f:	00 00                	add    %al,(%eax)
     f51:	16                   	push   %ss
     f52:	0d 00 00 40 0d       	or     $0xd400000,%eax
     f57:	00 00                	add    %al,(%eax)
     f59:	02 00                	add    (%eax),%al
     f5b:	91                   	xchg   %eax,%ecx
     f5c:	08 40 0d             	or     %al,0xd(%eax)
     f5f:	00 00                	add    %al,(%eax)
     f61:	54                   	push   %esp
     f62:	0d 00 00 01 00       	or     $0x10000,%eax
     f67:	53                   	push   %ebx
     f68:	54                   	push   %esp
     f69:	0d 00 00 59 0d       	or     $0xd590000,%eax
     f6e:	00 00                	add    %al,(%eax)
     f70:	02 00                	add    (%eax),%al
     f72:	91                   	xchg   %eax,%ecx
     f73:	08 00                	or     %al,(%eax)
     f75:	00 00                	add    %al,(%eax)
     f77:	00 00                	add    %al,(%eax)
     f79:	00 00                	add    %al,(%eax)
     f7b:	00 32                	add    %dh,(%edx)
     f7d:	0d 00 00 4c 0d       	or     $0xd4c0000,%eax
     f82:	00 00                	add    %al,(%eax)
     f84:	01 00                	add    %eax,(%eax)
     f86:	50                   	push   %eax
     f87:	54                   	push   %esp
     f88:	0d 00 00 59 0d       	or     $0xd590000,%eax
     f8d:	00 00                	add    %al,(%eax)
     f8f:	01 00                	add    %eax,(%eax)
     f91:	50                   	push   %eax
     f92:	00 00                	add    %al,(%eax)
     f94:	00 00                	add    %al,(%eax)
     f96:	00 00                	add    %al,(%eax)
     f98:	00 00                	add    %al,(%eax)
     f9a:	5e                   	pop    %esi
     f9b:	0d 00 00 5f 0d       	or     $0xd5f0000,%eax
     fa0:	00 00                	add    %al,(%eax)
     fa2:	02 00                	add    (%eax),%al
     fa4:	74 04                	je     faa <_init-0x8047cea>
     fa6:	5f                   	pop    %edi
     fa7:	0d 00 00 62 0d       	or     $0xd620000,%eax
     fac:	00 00                	add    %al,(%eax)
     fae:	02 00                	add    (%eax),%al
     fb0:	74 08                	je     fba <_init-0x8047cda>
     fb2:	62 0d 00 00 bc 0d    	bound  %ecx,0xdbc0000
     fb8:	00 00                	add    %al,(%eax)
     fba:	02 00                	add    (%eax),%al
     fbc:	74 20                	je     fde <_init-0x8047cb6>
     fbe:	bc 0d 00 00 bd       	mov    $0xbd00000d,%esp
     fc3:	0d 00 00 02 00       	or     $0x20000,%eax
     fc8:	74 08                	je     fd2 <_init-0x8047cc2>
     fca:	bd 0d 00 00 be       	mov    $0xbe00000d,%ebp
     fcf:	0d 00 00 02 00       	or     $0x20000,%eax
     fd4:	74 04                	je     fda <_init-0x8047cba>
     fd6:	00 00                	add    %al,(%eax)
     fd8:	00 00                	add    %al,(%eax)
     fda:	00 00                	add    %al,(%eax)
     fdc:	00 00                	add    %al,(%eax)
     fde:	7e 0d                	jle    fed <_init-0x8047ca7>
     fe0:	00 00                	add    %al,(%eax)
     fe2:	8e 0d 00 00 01 00    	mov    0x10000,%cs
     fe8:	50                   	push   %eax
     fe9:	b2 0d                	mov    $0xd,%dl
     feb:	00 00                	add    %al,(%eax)
     fed:	b7 0d                	mov    $0xd,%bh
     fef:	00 00                	add    %al,(%eax)
     ff1:	01 00                	add    %eax,(%eax)
     ff3:	50                   	push   %eax
     ff4:	00 00                	add    %al,(%eax)
     ff6:	00 00                	add    %al,(%eax)
     ff8:	00 00                	add    %al,(%eax)
     ffa:	00 00                	add    %al,(%eax)
     ffc:	be 0d 00 00 bf       	mov    $0xbf00000d,%esi
    1001:	0d 00 00 02 00       	or     $0x20000,%eax
    1006:	74 04                	je     100c <_init-0x8047c88>
    1008:	bf 0d 00 00 c0       	mov    $0xc000000d,%edi
    100d:	0d 00 00 02 00       	or     $0x20000,%eax
    1012:	74 08                	je     101c <_init-0x8047c78>
    1014:	c0 0d 00 00 c1 0d 00 	rorb   $0x0,0xdc10000
    101b:	00 02                	add    %al,(%edx)
    101d:	00 74 0c c1          	add    %dh,-0x3f(%esp,%ecx,1)
    1021:	0d 00 00 c2 0d       	or     $0xdc20000,%eax
    1026:	00 00                	add    %al,(%eax)
    1028:	02 00                	add    (%eax),%al
    102a:	74 10                	je     103c <_init-0x8047c58>
    102c:	c2 0d 00             	ret    $0xd
    102f:	00 c8                	add    %cl,%al
    1031:	0d 00 00 02 00       	or     $0x20000,%eax
    1036:	74 14                	je     104c <_init-0x8047c48>
    1038:	c8 0d 00 00          	enter  $0xd,$0x0
    103c:	1f                   	pop    %ds
    103d:	12 00                	adc    (%eax),%al
    103f:	00 03                	add    %al,(%ebx)
    1041:	00 74 f0 10          	add    %dh,0x10(%eax,%esi,8)
    1045:	1f                   	pop    %ds
    1046:	12 00                	adc    (%eax),%al
    1048:	00 20                	add    %ah,(%eax)
    104a:	12 00                	adc    (%eax),%al
    104c:	00 02                	add    %al,(%edx)
    104e:	00 74 14 20          	add    %dh,0x20(%esp,%edx,1)
    1052:	12 00                	adc    (%eax),%al
    1054:	00 21                	add    %ah,(%ecx)
    1056:	12 00                	adc    (%eax),%al
    1058:	00 02                	add    %al,(%edx)
    105a:	00 74 10 21          	add    %dh,0x21(%eax,%edx,1)
    105e:	12 00                	adc    (%eax),%al
    1060:	00 22                	add    %ah,(%edx)
    1062:	12 00                	adc    (%eax),%al
    1064:	00 02                	add    %al,(%edx)
    1066:	00 74 0c 22          	add    %dh,0x22(%esp,%ecx,1)
    106a:	12 00                	adc    (%eax),%al
    106c:	00 23                	add    %ah,(%ebx)
    106e:	12 00                	adc    (%eax),%al
    1070:	00 02                	add    %al,(%edx)
    1072:	00 74 08 23          	add    %dh,0x23(%eax,%ecx,1)
    1076:	12 00                	adc    (%eax),%al
    1078:	00 24 12             	add    %ah,(%edx,%edx,1)
    107b:	00 00                	add    %al,(%eax)
    107d:	02 00                	add    (%eax),%al
    107f:	74 04                	je     1085 <_init-0x8047c0f>
    1081:	00 00                	add    %al,(%eax)
    1083:	00 00                	add    %al,(%eax)
    1085:	00 00                	add    %al,(%eax)
    1087:	00 00                	add    %al,(%eax)
    1089:	05 0e 00 00 11       	add    $0x1100000e,%eax
    108e:	0e                   	push   %cs
    108f:	00 00                	add    %al,(%eax)
    1091:	01 00                	add    %eax,(%eax)
    1093:	50                   	push   %eax
    1094:	11 0e                	adc    %ecx,(%esi)
    1096:	00 00                	add    %al,(%eax)
    1098:	24 12                	and    $0x12,%al
    109a:	00 00                	add    %al,(%eax)
    109c:	03 00                	add    (%eax),%eax
    109e:	91                   	xchg   %eax,%ecx
    109f:	b8 6f 00 00 00       	mov    $0x6f,%eax
    10a4:	00 00                	add    %al,(%eax)
    10a6:	00 00                	add    %al,(%eax)
    10a8:	00 32                	add    %dh,(%edx)
    10aa:	0e                   	push   %cs
    10ab:	00 00                	add    %al,(%eax)
    10ad:	f8                   	clc    
    10ae:	11 00                	adc    %eax,(%eax)
    10b0:	00 03                	add    %al,(%ebx)
    10b2:	00 91 c4 6f 00 00    	add    %dl,0x6fc4(%ecx)
    10b8:	00 00                	add    %al,(%eax)
    10ba:	00 00                	add    %al,(%eax)
    10bc:	00 00                	add    %al,(%eax)
    10be:	37                   	aaa    
    10bf:	0e                   	push   %cs
    10c0:	00 00                	add    %al,(%eax)
    10c2:	62 0e                	bound  %ecx,(%esi)
    10c4:	00 00                	add    %al,(%eax)
    10c6:	04 00                	add    $0x0,%al
    10c8:	91                   	xchg   %eax,%ecx
    10c9:	dc 6f 9f             	fsubrl -0x61(%edi)
    10cc:	62 0e                	bound  %ecx,(%esi)
    10ce:	00 00                	add    %al,(%eax)
    10d0:	c6                   	(bad)  
    10d1:	0e                   	push   %cs
    10d2:	00 00                	add    %al,(%eax)
    10d4:	01 00                	add    %eax,(%eax)
    10d6:	52                   	push   %edx
    10d7:	c6                   	(bad)  
    10d8:	0e                   	push   %cs
    10d9:	00 00                	add    %al,(%eax)
    10db:	d0 0e                	rorb   (%esi)
    10dd:	00 00                	add    %al,(%eax)
    10df:	03 00                	add    (%eax),%eax
    10e1:	72 01                	jb     10e4 <_init-0x8047bb0>
    10e3:	9f                   	lahf   
    10e4:	d0 0e                	rorb   (%esi)
    10e6:	00 00                	add    %al,(%eax)
    10e8:	f0 0e                	lock push %cs
    10ea:	00 00                	add    %al,(%eax)
    10ec:	03 00                	add    (%eax),%eax
    10ee:	76 01                	jbe    10f1 <_init-0x8047ba3>
    10f0:	9f                   	lahf   
    10f1:	f0 0e                	lock push %cs
    10f3:	00 00                	add    %al,(%eax)
    10f5:	22 10                	and    (%eax),%dl
    10f7:	00 00                	add    %al,(%eax)
    10f9:	01 00                	add    %eax,(%eax)
    10fb:	55                   	push   %ebp
    10fc:	22 10                	and    (%eax),%dl
    10fe:	00 00                	add    %al,(%eax)
    1100:	37                   	aaa    
    1101:	10 00                	adc    %al,(%eax)
    1103:	00 01                	add    %al,(%ecx)
    1105:	00 56 37             	add    %dl,0x37(%esi)
    1108:	10 00                	adc    %al,(%eax)
    110a:	00 48 10             	add    %cl,0x10(%eax)
    110d:	00 00                	add    %al,(%eax)
    110f:	01 00                	add    %eax,(%eax)
    1111:	55                   	push   %ebp
    1112:	48                   	dec    %eax
    1113:	10 00                	adc    %al,(%eax)
    1115:	00 4a 10             	add    %cl,0x10(%edx)
    1118:	00 00                	add    %al,(%eax)
    111a:	01 00                	add    %eax,(%eax)
    111c:	56                   	push   %esi
    111d:	4a                   	dec    %edx
    111e:	10 00                	adc    %al,(%eax)
    1120:	00 84 10 00 00 01 00 	add    %al,0x10000(%eax,%edx,1)
    1127:	55                   	push   %ebp
    1128:	84 10                	test   %dl,(%eax)
    112a:	00 00                	add    %al,(%eax)
    112c:	88 10                	mov    %dl,(%eax)
    112e:	00 00                	add    %al,(%eax)
    1130:	03 00                	add    (%eax),%eax
    1132:	75 7f                	jne    11b3 <_init-0x8047ae1>
    1134:	9f                   	lahf   
    1135:	88 10                	mov    %dl,(%eax)
    1137:	00 00                	add    %al,(%eax)
    1139:	db 10                	fistl  (%eax)
    113b:	00 00                	add    %al,(%eax)
    113d:	01 00                	add    %eax,(%eax)
    113f:	55                   	push   %ebp
    1140:	00 00                	add    %al,(%eax)
    1142:	00 00                	add    %al,(%eax)
    1144:	00 00                	add    %al,(%eax)
    1146:	00 00                	add    %al,(%eax)
    1148:	00 0f                	add    %cl,(%edi)
    114a:	00 00                	add    %al,(%eax)
    114c:	0e                   	push   %cs
    114d:	0f 00 00             	sldt   (%eax)
    1150:	01 00                	add    %eax,(%eax)
    1152:	50                   	push   %eax
    1153:	31 0f                	xor    %ecx,(%edi)
    1155:	00 00                	add    %al,(%eax)
    1157:	35 0f 00 00 01       	xor    $0x100000f,%eax
    115c:	00 50 00             	add    %dl,0x0(%eax)
    115f:	00 00                	add    %al,(%eax)
    1161:	00 00                	add    %al,(%eax)
    1163:	00 00                	add    %al,(%eax)
    1165:	00 b2 10 00 00 cc    	add    %dh,-0x33fffff0(%edx)
    116b:	10 00                	adc    %al,(%eax)
    116d:	00 01                	add    %al,(%ecx)
    116f:	00 50 00             	add    %dl,0x0(%eax)
    1172:	00 00                	add    %al,(%eax)
    1174:	00 00                	add    %al,(%eax)
    1176:	00 00                	add    %al,(%eax)
    1178:	00 32                	add    %dh,(%edx)
    117a:	0e                   	push   %cs
    117b:	00 00                	add    %al,(%eax)
    117d:	f8                   	clc    
    117e:	11 00                	adc    %eax,(%eax)
    1180:	00 03                	add    %al,(%ebx)
    1182:	00 91 b0 6f 00 00    	add    %dl,0x6fb0(%ecx)
    1188:	00 00                	add    %al,(%eax)
    118a:	00 00                	add    %al,(%eax)
    118c:	00 00                	add    %al,(%eax)
    118e:	32 0e                	xor    (%esi),%cl
    1190:	00 00                	add    %al,(%eax)
    1192:	15 10 00 00 03       	adc    $0x3000010,%eax
    1197:	00 91 cc 6f 15 10    	add    %dl,0x10156fcc(%ecx)
    119d:	00 00                	add    %al,(%eax)
    119f:	22 10                	and    (%eax),%dl
    11a1:	00 00                	add    %al,(%eax)
    11a3:	01 00                	add    %eax,(%eax)
    11a5:	53                   	push   %ebx
    11a6:	22 10                	and    (%eax),%dl
    11a8:	00 00                	add    %al,(%eax)
    11aa:	f8                   	clc    
    11ab:	11 00                	adc    %eax,(%eax)
    11ad:	00 03                	add    %al,(%ebx)
    11af:	00 91 cc 6f 00 00    	add    %dl,0x6fcc(%ecx)
    11b5:	00 00                	add    %al,(%eax)
    11b7:	00 00                	add    %al,(%eax)
    11b9:	00 00                	add    %al,(%eax)
    11bb:	92                   	xchg   %eax,%edx
    11bc:	0f 00 00             	sldt   (%eax)
    11bf:	a6                   	cmpsb  %es:(%edi),%ds:(%esi)
    11c0:	0f 00 00             	sldt   (%eax)
    11c3:	01 00                	add    %eax,(%eax)
    11c5:	50                   	push   %eax
    11c6:	a6                   	cmpsb  %es:(%edi),%ds:(%esi)
    11c7:	0f 00 00             	sldt   (%eax)
    11ca:	11 10                	adc    %edx,(%eax)
    11cc:	00 00                	add    %al,(%eax)
    11ce:	01 00                	add    %eax,(%eax)
    11d0:	53                   	push   %ebx
    11d1:	3c 11                	cmp    $0x11,%al
    11d3:	00 00                	add    %al,(%eax)
    11d5:	47                   	inc    %edi
    11d6:	11 00                	adc    %eax,(%eax)
    11d8:	00 01                	add    %al,(%ecx)
    11da:	00 50 7a             	add    %dl,0x7a(%eax)
    11dd:	11 00                	adc    %eax,(%eax)
    11df:	00 8d 11 00 00 01    	add    %cl,0x1000011(%ebp)
    11e5:	00 50 00             	add    %dl,0x0(%eax)
    11e8:	00 00                	add    %al,(%eax)
    11ea:	00 00                	add    %al,(%eax)
    11ec:	00 00                	add    %al,(%eax)
    11ee:	00 ed                	add    %ch,%ch
    11f0:	0d 00 00 32 0e       	or     $0xe320000,%eax
    11f5:	00 00                	add    %al,(%eax)
    11f7:	02 00                	add    (%eax),%al
    11f9:	30 9f 32 0e 00 00    	xor    %bl,0xe32(%edi)
    11ff:	5e                   	pop    %esi
    1200:	0f 00 00             	sldt   (%eax)
    1203:	03 00                	add    (%eax),%eax
    1205:	91                   	xchg   %eax,%ecx
    1206:	bc 6f 5e 0f 00       	mov    $0xf5e6f,%esp
    120b:	00 6b 0f             	add    %ch,0xf(%ebx)
    120e:	00 00                	add    %al,(%eax)
    1210:	02 00                	add    (%eax),%al
    1212:	31 9f 6b 0f 00 00    	xor    %ebx,0xf6b(%edi)
    1218:	c7                   	(bad)  
    1219:	0f 00 00             	sldt   (%eax)
    121c:	03 00                	add    (%eax),%eax
    121e:	91                   	xchg   %eax,%ecx
    121f:	bc 6f c7 0f 00       	mov    $0xfc76f,%esp
    1224:	00 d4                	add    %dl,%ah
    1226:	0f 00 00             	sldt   (%eax)
    1229:	02 00                	add    (%eax),%al
    122b:	31 9f d4 0f 00 00    	xor    %ebx,0xfd4(%edi)
    1231:	0e                   	push   %cs
    1232:	10 00                	adc    %al,(%eax)
    1234:	00 03                	add    %al,(%ebx)
    1236:	00 91 bc 6f 15 10    	add    %dl,0x10156fbc(%ecx)
    123c:	00 00                	add    %al,(%eax)
    123e:	22 10                	and    (%eax),%dl
    1240:	00 00                	add    %al,(%eax)
    1242:	02 00                	add    (%eax),%al
    1244:	30 9f 22 10 00 00    	xor    %bl,0x1022(%edi)
    124a:	f8                   	clc    
    124b:	11 00                	adc    %eax,(%eax)
    124d:	00 03                	add    %al,(%ebx)
    124f:	00 91 bc 6f f8 11    	add    %dl,0x11f86fbc(%ecx)
    1255:	00 00                	add    %al,(%eax)
    1257:	00 12                	add    %dl,(%edx)
    1259:	00 00                	add    %al,(%eax)
    125b:	02 00                	add    (%eax),%al
    125d:	30 9f 00 00 00 00    	xor    %bl,0x0(%edi)
    1263:	00 00                	add    %al,(%eax)
    1265:	00 00                	add    %al,(%eax)
    1267:	37                   	aaa    
    1268:	0e                   	push   %cs
    1269:	00 00                	add    %al,(%eax)
    126b:	48                   	dec    %eax
    126c:	0e                   	push   %cs
    126d:	00 00                	add    %al,(%eax)
    126f:	04 00                	add    $0x0,%al
    1271:	91                   	xchg   %eax,%ecx
    1272:	dc 6f 9f             	fsubrl -0x61(%edi)
    1275:	48                   	dec    %eax
    1276:	0e                   	push   %cs
    1277:	00 00                	add    %al,(%eax)
    1279:	70 0e                	jo     1289 <_init-0x8047a0b>
    127b:	00 00                	add    %al,(%eax)
    127d:	01 00                	add    %eax,(%eax)
    127f:	52                   	push   %edx
    1280:	00 00                	add    %al,(%eax)
    1282:	00 00                	add    %al,(%eax)
    1284:	00 00                	add    %al,(%eax)
    1286:	00 00                	add    %al,(%eax)
    1288:	76 0e                	jbe    1298 <_init-0x80479fc>
    128a:	00 00                	add    %al,(%eax)
    128c:	95                   	xchg   %eax,%ebp
    128d:	0e                   	push   %cs
    128e:	00 00                	add    %al,(%eax)
    1290:	01 00                	add    %eax,(%eax)
    1292:	50                   	push   %eax
    1293:	95                   	xchg   %eax,%ebp
    1294:	0e                   	push   %cs
    1295:	00 00                	add    %al,(%eax)
    1297:	9c                   	pushf  
    1298:	0e                   	push   %cs
    1299:	00 00                	add    %al,(%eax)
    129b:	03 00                	add    (%eax),%eax
    129d:	70 01                	jo     12a0 <_init-0x80479f4>
    129f:	9f                   	lahf   
    12a0:	00 00                	add    %al,(%eax)
    12a2:	00 00                	add    %al,(%eax)
    12a4:	00 00                	add    %al,(%eax)
    12a6:	00 00                	add    %al,(%eax)
    12a8:	c9                   	leave  
    12a9:	0e                   	push   %cs
    12aa:	00 00                	add    %al,(%eax)
    12ac:	d0 0e                	rorb   (%esi)
    12ae:	00 00                	add    %al,(%eax)
    12b0:	03 00                	add    (%eax),%eax
    12b2:	72 01                	jb     12b5 <_init-0x80479df>
    12b4:	9f                   	lahf   
    12b5:	d0 0e                	rorb   (%esi)
    12b7:	00 00                	add    %al,(%eax)
    12b9:	db 0e                	fisttpl (%esi)
    12bb:	00 00                	add    %al,(%eax)
    12bd:	03 00                	add    (%eax),%eax
    12bf:	76 01                	jbe    12c2 <_init-0x80479d2>
    12c1:	9f                   	lahf   
    12c2:	db 0e                	fisttpl (%esi)
    12c4:	00 00                	add    %al,(%eax)
    12c6:	04 0f                	add    $0xf,%al
    12c8:	00 00                	add    %al,(%eax)
    12ca:	01 00                	add    %eax,(%eax)
    12cc:	55                   	push   %ebp
    12cd:	00 00                	add    %al,(%eax)
    12cf:	00 00                	add    %al,(%eax)
    12d1:	00 00                	add    %al,(%eax)
    12d3:	00 00                	add    %al,(%eax)
    12d5:	1b 0f                	sbb    (%edi),%ecx
    12d7:	00 00                	add    %al,(%eax)
    12d9:	31 0f                	xor    %ecx,(%edi)
    12db:	00 00                	add    %al,(%eax)
    12dd:	01 00                	add    %eax,(%eax)
    12df:	50                   	push   %eax
    12e0:	6b 0f 00             	imul   $0x0,(%edi),%ecx
    12e3:	00 7c 0f 00          	add    %bh,0x0(%edi,%ecx,1)
    12e7:	00 01                	add    %al,(%ecx)
    12e9:	00 50 7c             	add    %dl,0x7c(%eax)
    12ec:	0f 00 00             	sldt   (%eax)
    12ef:	88 0f                	mov    %cl,(%edi)
    12f1:	00 00                	add    %al,(%eax)
    12f3:	03 00                	add    (%eax),%eax
    12f5:	70 01                	jo     12f8 <_init-0x804799c>
    12f7:	9f                   	lahf   
    12f8:	00 00                	add    %al,(%eax)
    12fa:	00 00                	add    %al,(%eax)
    12fc:	00 00                	add    %al,(%eax)
    12fe:	00 00                	add    %al,(%eax)
    1300:	31 0f                	xor    %ecx,(%edi)
    1302:	00 00                	add    %al,(%eax)
    1304:	6b 0f 00             	imul   $0x0,(%edi),%ecx
    1307:	00 06                	add    %al,(%esi)
    1309:	00 03                	add    %al,(%ebx)
    130b:	a4                   	movsb  %ds:(%esi),%es:(%edi)
    130c:	e0 04                	loopne 1312 <_init-0x8047982>
    130e:	08 9f 00 00 00 00    	or     %bl,0x0(%edi)
    1314:	00 00                	add    %al,(%eax)
    1316:	00 00                	add    %al,(%eax)
    1318:	96                   	xchg   %eax,%esi
    1319:	0f 00 00             	sldt   (%eax)
    131c:	d4 0f                	aam    $0xf
    131e:	00 00                	add    %al,(%eax)
    1320:	06                   	push   %es
    1321:	00 03                	add    %al,(%ebx)
    1323:	b9 e0 04 08 9f       	mov    $0x9f0804e0,%ecx
    1328:	00 00                	add    %al,(%eax)
    132a:	00 00                	add    %al,(%eax)
    132c:	00 00                	add    %al,(%eax)
    132e:	00 00                	add    %al,(%eax)
    1330:	dd 0f                	fisttpll (%edi)
    1332:	00 00                	add    %al,(%eax)
    1334:	0e                   	push   %cs
    1335:	10 00                	adc    %al,(%eax)
    1337:	00 06                	add    %al,(%esi)
    1339:	00 03                	add    %al,(%ebx)
    133b:	d6                   	(bad)  
    133c:	e0 04                	loopne 1342 <_init-0x8047952>
    133e:	08 9f 00 00 00 00    	or     %bl,0x0(%edi)
    1344:	00 00                	add    %al,(%eax)
    1346:	00 00                	add    %al,(%eax)
    1348:	52                   	push   %edx
    1349:	10 00                	adc    %al,(%eax)
    134b:	00 84 10 00 00 06 00 	add    %al,0x60000(%eax,%edx,1)
    1352:	03 a4 e0 04 08 9f 00 	add    0x9f0804(%eax,%eiz,8),%esp
    1359:	00 00                	add    %al,(%eax)
    135b:	00 00                	add    %al,(%eax)
    135d:	00 00                	add    %al,(%eax)
    135f:	00 8b 10 00 00 91    	add    %cl,-0x6efffff0(%ebx)
    1365:	10 00                	adc    %al,(%eax)
    1367:	00 01                	add    %al,(%ecx)
    1369:	00 56 91             	add    %dl,-0x6f(%esi)
    136c:	10 00                	adc    %al,(%eax)
    136e:	00 9e 10 00 00 01    	add    %bl,0x1000010(%esi)
    1374:	00 52 9e             	add    %dl,-0x62(%edx)
    1377:	10 00                	adc    %al,(%eax)
    1379:	00 cc                	add    %cl,%ah
    137b:	10 00                	adc    %al,(%eax)
    137d:	00 01                	add    %al,(%ecx)
    137f:	00 50 00             	add    %dl,0x0(%eax)
    1382:	00 00                	add    %al,(%eax)
    1384:	00 00                	add    %al,(%eax)
    1386:	00 00                	add    %al,(%eax)
    1388:	00 b2 10 00 00 c6    	add    %dh,-0x39fffff0(%edx)
    138e:	11 00                	adc    %eax,(%eax)
    1390:	00 04 00             	add    %al,(%eax,%eax,1)
    1393:	91                   	xchg   %eax,%ecx
    1394:	dc 77 9f             	fdivl  -0x61(%edi)
    1397:	00 00                	add    %al,(%eax)
    1399:	00 00                	add    %al,(%eax)
    139b:	00 00                	add    %al,(%eax)
    139d:	00 00                	add    %al,(%eax)
    139f:	e1 10                	loope  13b1 <_init-0x80478e3>
    13a1:	00 00                	add    %al,(%eax)
    13a3:	06                   	push   %es
    13a4:	11 00                	adc    %eax,(%eax)
    13a6:	00 01                	add    %al,(%ecx)
    13a8:	00 50 06             	add    %dl,0x6(%eax)
    13ab:	11 00                	adc    %eax,(%eax)
    13ad:	00 1d 11 00 00 03    	add    %bl,0x3000011
    13b3:	00 70 01             	add    %dh,0x1(%eax)
    13b6:	9f                   	lahf   
    13b7:	00 00                	add    %al,(%eax)
    13b9:	00 00                	add    %al,(%eax)
    13bb:	00 00                	add    %al,(%eax)
    13bd:	00 00                	add    %al,(%eax)
    13bf:	0a 11                	or     (%ecx),%dl
    13c1:	00 00                	add    %al,(%eax)
    13c3:	c6                   	(bad)  
    13c4:	11 00                	adc    %eax,(%eax)
    13c6:	00 01                	add    %al,(%ecx)
    13c8:	00 55 00             	add    %dl,0x0(%ebp)
    13cb:	00 00                	add    %al,(%eax)
    13cd:	00 00                	add    %al,(%eax)
    13cf:	00 00                	add    %al,(%eax)
    13d1:	00 0a                	add    %cl,(%edx)
    13d3:	11 00                	adc    %eax,(%eax)
    13d5:	00 c6                	add    %al,%dh
    13d7:	11 00                	adc    %eax,(%eax)
    13d9:	00 04 00             	add    %al,(%eax,%eax,1)
    13dc:	91                   	xchg   %eax,%ecx
    13dd:	dc 7b 9f             	fdivrl -0x61(%ebx)
    13e0:	00 00                	add    %al,(%eax)
    13e2:	00 00                	add    %al,(%eax)
    13e4:	00 00                	add    %al,(%eax)
    13e6:	00 00                	add    %al,(%eax)
    13e8:	40                   	inc    %eax
    13e9:	11 00                	adc    %eax,(%eax)
    13eb:	00 7a 11             	add    %bh,0x11(%edx)
    13ee:	00 00                	add    %al,(%eax)
    13f0:	06                   	push   %es
    13f1:	00 03                	add    %al,(%ebx)
    13f3:	f1                   	icebp  
    13f4:	e0 04                	loopne 13fa <_init-0x804789a>
    13f6:	08 9f 00 00 00 00    	or     %bl,0x0(%edi)
    13fc:	00 00                	add    %al,(%eax)
    13fe:	00 00                	add    %al,(%eax)
    1400:	99                   	cltd   
    1401:	11 00                	adc    %eax,(%eax)
    1403:	00 c6                	add    %al,%dh
    1405:	11 00                	adc    %eax,(%eax)
    1407:	00 06                	add    %al,(%esi)
    1409:	00 03                	add    %al,(%ebx)
    140b:	a4                   	movsb  %ds:(%esi),%es:(%edi)
    140c:	e0 04                	loopne 1412 <_init-0x8047882>
    140e:	08 9f 00 00 00 00    	or     %bl,0x0(%edi)
    1414:	00 00                	add    %al,(%eax)
    1416:	00 00                	add    %al,(%eax)
    1418:	32 0e                	xor    (%esi),%cl
    141a:	00 00                	add    %al,(%eax)
    141c:	f8                   	clc    
    141d:	11 00                	adc    %eax,(%eax)
    141f:	00 03                	add    %al,(%ebx)
    1421:	00 91 b8 6f 00 00    	add    %dl,0x6fb8(%ecx)
    1427:	00 00                	add    %al,(%eax)
    1429:	00 00                	add    %al,(%eax)
    142b:	00 00                	add    %al,(%eax)
    142d:	32 0e                	xor    (%esi),%cl
    142f:	00 00                	add    %al,(%eax)
    1431:	f8                   	clc    
    1432:	11 00                	adc    %eax,(%eax)
    1434:	00 04 00             	add    %al,(%eax,%eax,1)
    1437:	0a 00                	or     (%eax),%al
    1439:	04 9f                	add    $0x9f,%al
    143b:	00 00                	add    %al,(%eax)
    143d:	00 00                	add    %al,(%eax)
    143f:	00 00                	add    %al,(%eax)
    1441:	00 00                	add    %al,(%eax)
    1443:	32 0e                	xor    (%esi),%cl
    1445:	00 00                	add    %al,(%eax)
    1447:	da 11                	ficoml (%ecx)
    1449:	00 00                	add    %al,(%eax)
    144b:	04 00                	add    $0x0,%al
    144d:	91                   	xchg   %eax,%ecx
    144e:	dc 6f 9f             	fsubrl -0x61(%edi)
    1451:	da 11                	ficoml (%ecx)
    1453:	00 00                	add    %al,(%eax)
    1455:	e1 11                	loope  1468 <_init-0x804782c>
    1457:	00 00                	add    %al,(%eax)
    1459:	01 00                	add    %eax,(%eax)
    145b:	52                   	push   %edx
    145c:	e1 11                	loope  146f <_init-0x8047825>
    145e:	00 00                	add    %al,(%eax)
    1460:	f8                   	clc    
    1461:	11 00                	adc    %eax,(%eax)
    1463:	00 04 00             	add    %al,(%eax,%eax,1)
    1466:	91                   	xchg   %eax,%ecx
    1467:	dc 6f 9f             	fsubrl -0x61(%edi)
    146a:	00 00                	add    %al,(%eax)
    146c:	00 00                	add    %al,(%eax)
    146e:	00 00                	add    %al,(%eax)
    1470:	00 00                	add    %al,(%eax)
    1472:	24 12                	and    $0x12,%al
    1474:	00 00                	add    %al,(%eax)
    1476:	27                   	daa    
    1477:	12 00                	adc    (%eax),%al
    1479:	00 02                	add    %al,(%edx)
    147b:	00 74 04 27          	add    %dh,0x27(%esp,%eax,1)
    147f:	12 00                	adc    (%eax),%al
    1481:	00 75 12             	add    %dh,0x12(%ebp)
    1484:	00 00                	add    %al,(%eax)
    1486:	02 00                	add    (%eax),%al
    1488:	74 20                	je     14aa <_init-0x80477ea>
    148a:	75 12                	jne    149e <_init-0x80477f6>
    148c:	00 00                	add    %al,(%eax)
    148e:	76 12                	jbe    14a2 <_init-0x80477f2>
    1490:	00 00                	add    %al,(%eax)
    1492:	02 00                	add    (%eax),%al
    1494:	74 04                	je     149a <_init-0x80477fa>
    1496:	00 00                	add    %al,(%eax)
    1498:	00 00                	add    %al,(%eax)
    149a:	00 00                	add    %al,(%eax)
    149c:	00 00                	add    %al,(%eax)
    149e:	45                   	inc    %ebp
    149f:	12 00                	adc    (%eax),%al
    14a1:	00 56 12             	add    %dl,0x12(%esi)
    14a4:	00 00                	add    %al,(%eax)
    14a6:	01 00                	add    %eax,(%eax)
    14a8:	50                   	push   %eax
    14a9:	56                   	push   %esi
    14aa:	12 00                	adc    (%eax),%al
    14ac:	00 6e 12             	add    %ch,0x12(%esi)
    14af:	00 00                	add    %al,(%eax)
    14b1:	01 00                	add    %eax,(%eax)
    14b3:	53                   	push   %ebx
    14b4:	00 00                	add    %al,(%eax)
    14b6:	00 00                	add    %al,(%eax)
    14b8:	00 00                	add    %al,(%eax)
    14ba:	00 00                	add    %al,(%eax)
    14bc:	59                   	pop    %ecx
    14bd:	12 00                	adc    (%eax),%al
    14bf:	00 60 12             	add    %ah,0x12(%eax)
    14c2:	00 00                	add    %al,(%eax)
    14c4:	01 00                	add    %eax,(%eax)
    14c6:	50                   	push   %eax
    14c7:	60                   	pusha  
    14c8:	12 00                	adc    (%eax),%al
    14ca:	00 63 12             	add    %ah,0x12(%ebx)
    14cd:	00 00                	add    %al,(%eax)
    14cf:	01 00                	add    %eax,(%eax)
    14d1:	56                   	push   %esi
    14d2:	00 00                	add    %al,(%eax)
    14d4:	00 00                	add    %al,(%eax)
    14d6:	00 00                	add    %al,(%eax)
    14d8:	00 00                	add    %al,(%eax)
    14da:	76 12                	jbe    14ee <_init-0x80477a6>
    14dc:	00 00                	add    %al,(%eax)
    14de:	79 12                	jns    14f2 <_init-0x80477a2>
    14e0:	00 00                	add    %al,(%eax)
    14e2:	02 00                	add    (%eax),%al
    14e4:	74 04                	je     14ea <_init-0x80477aa>
    14e6:	79 12                	jns    14fa <_init-0x804779a>
    14e8:	00 00                	add    %al,(%eax)
    14ea:	8f                   	(bad)  
    14eb:	12 00                	adc    (%eax),%al
    14ed:	00 02                	add    %al,(%edx)
    14ef:	00 74 10 8f          	add    %dh,-0x71(%eax,%edx,1)
    14f3:	12 00                	adc    (%eax),%al
    14f5:	00 90 12 00 00 02    	add    %dl,0x2000012(%eax)
    14fb:	00 74 04 00          	add    %dh,0x0(%esp,%eax,1)
    14ff:	00 00                	add    %al,(%eax)
    1501:	00 00                	add    %al,(%eax)
    1503:	00 00                	add    %al,(%eax)
    1505:	00 96 12 00 00 97    	add    %dl,-0x68ffffee(%esi)
    150b:	12 00                	adc    (%eax),%al
    150d:	00 02                	add    %al,(%edx)
    150f:	00 74 04 97          	add    %dh,-0x69(%esp,%eax,1)
    1513:	12 00                	adc    (%eax),%al
    1515:	00 9a 12 00 00 02    	add    %bl,0x2000012(%edx)
    151b:	00 74 08 9a          	add    %dh,-0x66(%eax,%ecx,1)
    151f:	12 00                	adc    (%eax),%al
    1521:	00 bb 12 00 00 02    	add    %bh,0x2000012(%ebx)
    1527:	00 74 20 bb          	add    %dh,-0x45(%eax,%eiz,1)
    152b:	12 00                	adc    (%eax),%al
    152d:	00 bc 12 00 00 02 00 	add    %bh,0x20000(%edx,%edx,1)
    1534:	74 08                	je     153e <_init-0x8047756>
    1536:	bc 12 00 00 bd       	mov    $0xbd000012,%esp
    153b:	12 00                	adc    (%eax),%al
    153d:	00 02                	add    %al,(%edx)
    153f:	00 74 04 00          	add    %dh,0x0(%esp,%eax,1)
    1543:	00 00                	add    %al,(%eax)
    1545:	00 00                	add    %al,(%eax)
    1547:	00 00                	add    %al,(%eax)
    1549:	00 c3                	add    %al,%bl
    154b:	12 00                	adc    (%eax),%al
    154d:	00 c4                	add    %al,%ah
    154f:	12 00                	adc    (%eax),%al
    1551:	00 02                	add    %al,(%edx)
    1553:	00 74 04 c4          	add    %dh,-0x3c(%esp,%eax,1)
    1557:	12 00                	adc    (%eax),%al
    1559:	00 c7                	add    %al,%bh
    155b:	12 00                	adc    (%eax),%al
    155d:	00 02                	add    %al,(%edx)
    155f:	00 74 08 c7          	add    %dh,-0x39(%eax,%ecx,1)
    1563:	12 00                	adc    (%eax),%al
    1565:	00 e8                	add    %ch,%al
    1567:	12 00                	adc    (%eax),%al
    1569:	00 02                	add    %al,(%edx)
    156b:	00 74 20 e8          	add    %dh,-0x18(%eax,%eiz,1)
    156f:	12 00                	adc    (%eax),%al
    1571:	00 e9                	add    %ch,%cl
    1573:	12 00                	adc    (%eax),%al
    1575:	00 02                	add    %al,(%edx)
    1577:	00 74 08 e9          	add    %dh,-0x17(%eax,%ecx,1)
    157b:	12 00                	adc    (%eax),%al
    157d:	00 ea                	add    %ch,%dl
    157f:	12 00                	adc    (%eax),%al
    1581:	00 02                	add    %al,(%edx)
    1583:	00 74 04 00          	add    %dh,0x0(%esp,%eax,1)
    1587:	00 00                	add    %al,(%eax)
    1589:	00 00                	add    %al,(%eax)
    158b:	00 00                	add    %al,(%eax)
    158d:	00                   	.byte 0x0

Disassembly of section .debug_ranges:

00000000 <.debug_ranges>:
   0:	84 09                	test   %cl,(%ecx)
   2:	00 00                	add    %al,(%eax)
   4:	a9 09 00 00 f1       	test   $0xf1000009,%eax
   9:	09 00                	or     %eax,(%eax)
   b:	00 f8                	add    %bh,%al
   d:	09 00                	or     %eax,(%eax)
   f:	00 00                	add    %al,(%eax)
  11:	00 00                	add    %al,(%eax)
  13:	00 00                	add    %al,(%eax)
  15:	00 00                	add    %al,(%eax)
  17:	00 ff                	add    %bh,%bh
  19:	0b 00                	or     (%eax),%eax
  1b:	00 2b                	add    %ch,(%ebx)
  1d:	0c 00                	or     $0x0,%al
  1f:	00 9f 0c 00 00 ab    	add    %bl,-0x54fffff4(%edi)
  25:	0c 00                	or     $0x0,%al
  27:	00 00                	add    %al,(%eax)
  29:	00 00                	add    %al,(%eax)
  2b:	00 00                	add    %al,(%eax)
  2d:	00 00                	add    %al,(%eax)
  2f:	00 07                	add    %al,(%edi)
  31:	0f 00 00             	sldt   (%eax)
  34:	31 0f                	xor    %ecx,(%edi)
  36:	00 00                	add    %al,(%eax)
  38:	6b 0f 00             	imul   $0x0,(%edi),%ecx
  3b:	00 80 0f 00 00 00    	add    %al,0xf(%eax)
  41:	00 00                	add    %al,(%eax)
  43:	00 00                	add    %al,(%eax)
  45:	00 00                	add    %al,(%eax)
  47:	00                   	.byte 0x0
